ARM GAS  C:\Users\Kozak\AppData\Local\Temp\ccGvcuU8.s 			page 1


   1              		.syntax unified
   2              		.cpu cortex-m0plus
   3              		.fpu softvfp
   4              		.eabi_attribute 20, 1
   5              		.eabi_attribute 21, 1
   6              		.eabi_attribute 23, 3
   7              		.eabi_attribute 24, 1
   8              		.eabi_attribute 25, 1
   9              		.eabi_attribute 26, 1
  10              		.eabi_attribute 30, 1
  11              		.eabi_attribute 34, 0
  12              		.eabi_attribute 18, 4
  13              		.thumb
  14              		.syntax unified
  15              		.file	"adc_bipboy.c"
  16              		.text
  17              	.Ltext0:
  18              		.cfi_sections	.debug_frame
  19              		.section	.text.adc_init,"ax",%progbits
  20              		.align	2
  21              		.global	adc_init
  22              		.code	16
  23              		.thumb_func
  24              		.type	adc_init, %function
  25              	adc_init:
  26              	.LFB34:
  27              		.file 1 "adc_bipboy.c"
   1:adc_bipboy.c  **** #include "bipboy.h"
   2:adc_bipboy.c  **** 
   3:adc_bipboy.c  **** void adc_init(void) {
  28              		.loc 1 3 0
  29              		.cfi_startproc
  30              		@ args = 0, pretend = 0, frame = 0
  31              		@ frame_needed = 0, uses_anonymous_args = 0
  32 0000 10B5     		push	{r4, lr}
  33              		.cfi_def_cfa_offset 8
  34              		.cfi_offset 4, -8
  35              		.cfi_offset 14, -4
   4:adc_bipboy.c  ****     ADC_Start();
  36              		.loc 1 4 0
  37 0002 FFF7FEFF 		bl	ADC_Start
  38              	.LVL0:
   5:adc_bipboy.c  **** }
  39              		.loc 1 5 0
  40              		@ sp needed
  41 0006 10BD     		pop	{r4, pc}
  42              		.cfi_endproc
  43              	.LFE34:
  44              		.size	adc_init, .-adc_init
  45              		.section	.text.adc_channel_value,"ax",%progbits
  46              		.align	2
  47              		.global	adc_channel_value
  48              		.code	16
  49              		.thumb_func
  50              		.type	adc_channel_value, %function
  51              	adc_channel_value:
  52              	.LFB35:
ARM GAS  C:\Users\Kozak\AppData\Local\Temp\ccGvcuU8.s 			page 2


   6:adc_bipboy.c  **** 
   7:adc_bipboy.c  **** uint16 adc_channel_value(uint8 channel) {
  53              		.loc 1 7 0
  54              		.cfi_startproc
  55              		@ args = 0, pretend = 0, frame = 0
  56              		@ frame_needed = 0, uses_anonymous_args = 0
  57              	.LVL1:
  58 0000 10B5     		push	{r4, lr}
  59              		.cfi_def_cfa_offset 8
  60              		.cfi_offset 4, -8
  61              		.cfi_offset 14, -4
   8:adc_bipboy.c  ****     uint16 value = ADC_ReadResult_mVolts(channel);
  62              		.loc 1 8 0
  63 0002 FFF7FEFF 		bl	ADC_ReadResult_mVolts
  64              	.LVL2:
   9:adc_bipboy.c  ****     return value;
  10:adc_bipboy.c  **** }
  65              		.loc 1 10 0
  66              		@ sp needed
  67 0006 10BD     		pop	{r4, pc}
  68              		.cfi_endproc
  69              	.LFE35:
  70              		.size	adc_channel_value, .-adc_channel_value
  71              		.text
  72              	.Letext0:
  73              		.file 2 "Generated_Source\\PSoC4/cytypes.h"
  74              		.file 3 "Generated_Source\\PSoC4/ADC_Adc.h"