ARM GAS  C:\Users\Kozak\AppData\Local\Temp\ccbX0Oyq.s 			page 1


   1              		.syntax unified
   2              		.cpu cortex-m0plus
   3              		.fpu softvfp
   4              		.eabi_attribute 20, 1
   5              		.eabi_attribute 21, 1
   6              		.eabi_attribute 23, 3
   7              		.eabi_attribute 24, 1
   8              		.eabi_attribute 25, 1
   9              		.eabi_attribute 26, 1
  10              		.eabi_attribute 30, 1
  11              		.eabi_attribute 34, 0
  12              		.eabi_attribute 18, 4
  13              		.thumb
  14              		.syntax unified
  15              		.file	"buttons.c"
  16              		.text
  17              	.Ltext0:
  18              		.cfi_sections	.debug_frame
  19              		.section	.text.Button_Back_Int_Handler,"ax",%progbits
  20              		.align	2
  21              		.global	Button_Back_Int_Handler
  22              		.code	16
  23              		.thumb_func
  24              		.type	Button_Back_Int_Handler, %function
  25              	Button_Back_Int_Handler:
  26              	.LFB34:
  27              		.file 1 "buttons.c"
   1:buttons.c     **** #include "bipboy.h"
   2:buttons.c     **** 
   3:buttons.c     **** uint16 counter = 0;
   4:buttons.c     **** 
   5:buttons.c     **** CY_ISR(Button_Back_Int_Handler) {   
  28              		.loc 1 5 0
  29              		.cfi_startproc
  30              		@ args = 0, pretend = 0, frame = 0
  31              		@ frame_needed = 0, uses_anonymous_args = 0
  32 0000 10B5     		push	{r4, lr}
  33              		.cfi_def_cfa_offset 8
  34              		.cfi_offset 4, -8
  35              		.cfi_offset 14, -4
   6:buttons.c     ****     counter++;
  36              		.loc 1 6 0
  37 0002 034A     		ldr	r2, .L2
  38 0004 1388     		ldrh	r3, [r2]
  39 0006 0133     		adds	r3, r3, #1
  40 0008 1380     		strh	r3, [r2]
   7:buttons.c     ****     Button_Back_ClearInterrupt();
  41              		.loc 1 7 0
  42 000a FFF7FEFF 		bl	Button_Back_ClearInterrupt
  43              	.LVL0:
   8:buttons.c     **** }
  44              		.loc 1 8 0
  45              		@ sp needed
  46 000e 10BD     		pop	{r4, pc}
  47              	.L3:
  48              		.align	2
  49              	.L2:
ARM GAS  C:\Users\Kozak\AppData\Local\Temp\ccbX0Oyq.s 			page 2


  50 0010 00000000 		.word	.LANCHOR0
  51              		.cfi_endproc
  52              	.LFE34:
  53              		.size	Button_Back_Int_Handler, .-Button_Back_Int_Handler
  54              		.section	.text.Button_Ok_Int_Handler,"ax",%progbits
  55              		.align	2
  56              		.global	Button_Ok_Int_Handler
  57              		.code	16
  58              		.thumb_func
  59              		.type	Button_Ok_Int_Handler, %function
  60              	Button_Ok_Int_Handler:
  61              	.LFB35:
   9:buttons.c     **** 
  10:buttons.c     **** CY_ISR(Button_Ok_Int_Handler) {
  62              		.loc 1 10 0
  63              		.cfi_startproc
  64              		@ args = 0, pretend = 0, frame = 0
  65              		@ frame_needed = 0, uses_anonymous_args = 0
  66 0000 10B5     		push	{r4, lr}
  67              		.cfi_def_cfa_offset 8
  68              		.cfi_offset 4, -8
  69              		.cfi_offset 14, -4
  11:buttons.c     ****     counter++;
  70              		.loc 1 11 0
  71 0002 034A     		ldr	r2, .L5
  72 0004 1388     		ldrh	r3, [r2]
  73 0006 0133     		adds	r3, r3, #1
  74 0008 1380     		strh	r3, [r2]
  12:buttons.c     ****     Button_Ok_ClearInterrupt();
  75              		.loc 1 12 0
  76 000a FFF7FEFF 		bl	Button_Ok_ClearInterrupt
  77              	.LVL1:
  13:buttons.c     **** }
  78              		.loc 1 13 0
  79              		@ sp needed
  80 000e 10BD     		pop	{r4, pc}
  81              	.L6:
  82              		.align	2
  83              	.L5:
  84 0010 00000000 		.word	.LANCHOR0
  85              		.cfi_endproc
  86              	.LFE35:
  87              		.size	Button_Ok_Int_Handler, .-Button_Ok_Int_Handler
  88              		.section	.text.Button_Up_Int_Handler,"ax",%progbits
  89              		.align	2
  90              		.global	Button_Up_Int_Handler
  91              		.code	16
  92              		.thumb_func
  93              		.type	Button_Up_Int_Handler, %function
  94              	Button_Up_Int_Handler:
  95              	.LFB36:
  14:buttons.c     **** 
  15:buttons.c     **** CY_ISR(Button_Up_Int_Handler) {
  96              		.loc 1 15 0
  97              		.cfi_startproc
  98              		@ args = 0, pretend = 0, frame = 0
  99              		@ frame_needed = 0, uses_anonymous_args = 0
ARM GAS  C:\Users\Kozak\AppData\Local\Temp\ccbX0Oyq.s 			page 3


 100 0000 10B5     		push	{r4, lr}
 101              		.cfi_def_cfa_offset 8
 102              		.cfi_offset 4, -8
 103              		.cfi_offset 14, -4
  16:buttons.c     ****     counter++;
 104              		.loc 1 16 0
 105 0002 034A     		ldr	r2, .L8
 106 0004 1388     		ldrh	r3, [r2]
 107 0006 0133     		adds	r3, r3, #1
 108 0008 1380     		strh	r3, [r2]
  17:buttons.c     ****     Button_Up_ClearInterrupt();
 109              		.loc 1 17 0
 110 000a FFF7FEFF 		bl	Button_Up_ClearInterrupt
 111              	.LVL2:
  18:buttons.c     **** }
 112              		.loc 1 18 0
 113              		@ sp needed
 114 000e 10BD     		pop	{r4, pc}
 115              	.L9:
 116              		.align	2
 117              	.L8:
 118 0010 00000000 		.word	.LANCHOR0
 119              		.cfi_endproc
 120              	.LFE36:
 121              		.size	Button_Up_Int_Handler, .-Button_Up_Int_Handler
 122              		.section	.text.Button_Down_Int_Handler,"ax",%progbits
 123              		.align	2
 124              		.global	Button_Down_Int_Handler
 125              		.code	16
 126              		.thumb_func
 127              		.type	Button_Down_Int_Handler, %function
 128              	Button_Down_Int_Handler:
 129              	.LFB37:
  19:buttons.c     **** 
  20:buttons.c     **** CY_ISR(Button_Down_Int_Handler) {
 130              		.loc 1 20 0
 131              		.cfi_startproc
 132              		@ args = 0, pretend = 0, frame = 0
 133              		@ frame_needed = 0, uses_anonymous_args = 0
 134 0000 10B5     		push	{r4, lr}
 135              		.cfi_def_cfa_offset 8
 136              		.cfi_offset 4, -8
 137              		.cfi_offset 14, -4
  21:buttons.c     ****     counter++;
 138              		.loc 1 21 0
 139 0002 034A     		ldr	r2, .L11
 140 0004 1388     		ldrh	r3, [r2]
 141 0006 0133     		adds	r3, r3, #1
 142 0008 1380     		strh	r3, [r2]
  22:buttons.c     ****     Button_Down_ClearInterrupt();
 143              		.loc 1 22 0
 144 000a FFF7FEFF 		bl	Button_Down_ClearInterrupt
 145              	.LVL3:
  23:buttons.c     **** }
 146              		.loc 1 23 0
 147              		@ sp needed
 148 000e 10BD     		pop	{r4, pc}
ARM GAS  C:\Users\Kozak\AppData\Local\Temp\ccbX0Oyq.s 			page 4


 149              	.L12:
 150              		.align	2
 151              	.L11:
 152 0010 00000000 		.word	.LANCHOR0
 153              		.cfi_endproc
 154              	.LFE37:
 155              		.size	Button_Down_Int_Handler, .-Button_Down_Int_Handler
 156              		.global	counter
 157              		.bss
 158              		.align	1
 159              		.set	.LANCHOR0,. + 0
 160              		.type	counter, %object
 161              		.size	counter, 2
 162              	counter:
 163 0000 0000     		.space	2
 164              		.text
 165              	.Letext0:
 166              		.file 2 "Generated_Source\\PSoC4/Button_Back.h"
 167              		.file 3 "Generated_Source\\PSoC4/Button_Ok.h"
 168              		.file 4 "Generated_Source\\PSoC4/Button_Up.h"
 169              		.file 5 "Generated_Source\\PSoC4/Button_Down.h"
 170              		.file 6 "Generated_Source\\PSoC4/cytypes.h"