ARM GAS  C:\Users\Kozak\AppData\Local\Temp\ccw2QRBU.s 			page 1


   1              		.syntax unified
   2              		.cpu cortex-m0plus
   3              		.fpu softvfp
   4              		.eabi_attribute 20, 1
   5              		.eabi_attribute 21, 1
   6              		.eabi_attribute 23, 3
   7              		.eabi_attribute 24, 1
   8              		.eabi_attribute 25, 1
   9              		.eabi_attribute 26, 1
  10              		.eabi_attribute 30, 1
  11              		.eabi_attribute 34, 0
  12              		.eabi_attribute 18, 4
  13              		.thumb
  14              		.syntax unified
  15              		.file	"lcd_bipboy.c"
  16              		.text
  17              	.Ltext0:
  18              		.cfi_sections	.debug_frame
  19              		.section	.text.lcd_init,"ax",%progbits
  20              		.align	2
  21              		.global	lcd_init
  22              		.code	16
  23              		.thumb_func
  24              		.type	lcd_init, %function
  25              	lcd_init:
  26              	.LFB34:
  27              		.file 1 "lcd_bipboy.c"
   1:lcd_bipboy.c  **** #include "bipboy.h"
   2:lcd_bipboy.c  **** 
   3:lcd_bipboy.c  **** void lcd_init(void) {
  28              		.loc 1 3 0
  29              		.cfi_startproc
  30              		@ args = 0, pretend = 0, frame = 0
  31              		@ frame_needed = 0, uses_anonymous_args = 0
  32 0000 10B5     		push	{r4, lr}
  33              		.cfi_def_cfa_offset 8
  34              		.cfi_offset 4, -8
  35              		.cfi_offset 14, -4
   4:lcd_bipboy.c  ****     LCD_Start();
  36              		.loc 1 4 0
  37 0002 FFF7FEFF 		bl	LCD_Start
  38              	.LVL0:
   5:lcd_bipboy.c  ****     LCD_Position(0, 5);
  39              		.loc 1 5 0
  40 0006 0521     		movs	r1, #5
  41 0008 0020     		movs	r0, #0
  42 000a FFF7FEFF 		bl	LCD_Position
  43              	.LVL1:
   6:lcd_bipboy.c  ****     LCD_PrintString("BipBoy");
  44              		.loc 1 6 0
  45 000e 0548     		ldr	r0, .L2
  46 0010 FFF7FEFF 		bl	LCD_PrintString
  47              	.LVL2:
   7:lcd_bipboy.c  ****     CyDelay(5000);
  48              		.loc 1 7 0
  49 0014 0448     		ldr	r0, .L2+4
  50 0016 FFF7FEFF 		bl	CyDelay
ARM GAS  C:\Users\Kozak\AppData\Local\Temp\ccw2QRBU.s 			page 2


  51              	.LVL3:
   8:lcd_bipboy.c  ****     LCD_ClearDisplay();
  52              		.loc 1 8 0
  53 001a 0120     		movs	r0, #1
  54 001c FFF7FEFF 		bl	LCD_WriteControl
  55              	.LVL4:
   9:lcd_bipboy.c  **** }
  56              		.loc 1 9 0
  57              		@ sp needed
  58 0020 10BD     		pop	{r4, pc}
  59              	.L3:
  60 0022 C046     		.align	2
  61              	.L2:
  62 0024 00000000 		.word	.LC0
  63 0028 88130000 		.word	5000
  64              		.cfi_endproc
  65              	.LFE34:
  66              		.size	lcd_init, .-lcd_init
  67              		.section	.text.lcd_main_screen,"ax",%progbits
  68              		.align	2
  69              		.global	lcd_main_screen
  70              		.code	16
  71              		.thumb_func
  72              		.type	lcd_main_screen, %function
  73              	lcd_main_screen:
  74              	.LFB35:
  10:lcd_bipboy.c  **** 
  11:lcd_bipboy.c  **** uint16 counterX = 1600;
  12:lcd_bipboy.c  **** 
  13:lcd_bipboy.c  **** void lcd_main_screen(void) {
  75              		.loc 1 13 0
  76              		.cfi_startproc
  77              		@ args = 0, pretend = 0, frame = 0
  78              		@ frame_needed = 0, uses_anonymous_args = 0
  79 0000 10B5     		push	{r4, lr}
  80              		.cfi_def_cfa_offset 8
  81              		.cfi_offset 4, -8
  82              		.cfi_offset 14, -4
  14:lcd_bipboy.c  ****     LCD_ClearDisplay();
  83              		.loc 1 14 0
  84 0002 0120     		movs	r0, #1
  85 0004 FFF7FEFF 		bl	LCD_WriteControl
  86              	.LVL5:
  15:lcd_bipboy.c  ****     counterX++;
  87              		.loc 1 15 0
  88 0008 054C     		ldr	r4, .L5
  89 000a 2388     		ldrh	r3, [r4]
  90 000c 0133     		adds	r3, r3, #1
  91 000e 2380     		strh	r3, [r4]
  16:lcd_bipboy.c  ****     LCD_Position(0, 0);
  92              		.loc 1 16 0
  93 0010 0021     		movs	r1, #0
  94 0012 0020     		movs	r0, #0
  95 0014 FFF7FEFF 		bl	LCD_Position
  96              	.LVL6:
  17:lcd_bipboy.c  ****     LCD_PrintDecUint16(counterX);
  97              		.loc 1 17 0
ARM GAS  C:\Users\Kozak\AppData\Local\Temp\ccw2QRBU.s 			page 3


  98 0018 2088     		ldrh	r0, [r4]
  99 001a FFF7FEFF 		bl	LCD_PrintU32Number
 100              	.LVL7:
  18:lcd_bipboy.c  ****     //CyDelayUs(1);
  19:lcd_bipboy.c  **** }...
 101              		.loc 1 19 0
 102              		@ sp needed
 103 001e 10BD     		pop	{r4, pc}
 104              	.L6:
 105              		.align	2
 106              	.L5:
 107 0020 00000000 		.word	.LANCHOR0
 108              		.cfi_endproc
 109              	.LFE35:
 110              		.size	lcd_main_screen, .-lcd_main_screen
 111              		.global	counterX
 112              		.data
 113              		.align	1
 114              		.set	.LANCHOR0,. + 0
 115              		.type	counterX, %object
 116              		.size	counterX, 2
 117              	counterX:
 118 0000 4006     		.short	1600
 119              		.section	.rodata.str1.4,"aMS",%progbits,1
 120              		.align	2
 121              	.LC0:
 122 0000 42697042 		.ascii	"BipBoy\000"
 122      6F7900
 123              		.text
 124              	.Letext0:
 125              		.file 2 "Generated_Source\\PSoC4/LCD.h"
 126              		.file 3 "Generated_Source\\PSoC4/CyLib.h"
 127              		.file 4 "Generated_Source\\PSoC4/cytypes.h"