ARM GAS  C:\Users\ADMIN\AppData\Local\Temp\ccekpMqd.s 			page 1


   1              		.syntax unified
   2              		.cpu cortex-m0plus
   3              		.fpu softvfp
   4              		.eabi_attribute 20, 1
   5              		.eabi_attribute 21, 1
   6              		.eabi_attribute 23, 3
   7              		.eabi_attribute 24, 1
   8              		.eabi_attribute 25, 1
   9              		.eabi_attribute 26, 1
  10              		.eabi_attribute 30, 1
  11              		.eabi_attribute 34, 0
  12              		.eabi_attribute 18, 4
  13              		.thumb
  14              		.syntax unified
  15              		.file	"ADC_Adc.c"
  16              		.text
  17              	.Ltext0:
  18              		.cfi_sections	.debug_frame
  19              		.section	.text.ADC_Sleep,"ax",%progbits
  20              		.align	2
  21              		.global	ADC_Sleep
  22              		.code	16
  23              		.thumb_func
  24              		.type	ADC_Sleep, %function
  25              	ADC_Sleep:
  26              	.LFB2:
  27              		.file 1 "Generated_Source\\PSoC4\\ADC_Adc.c"
   1:Generated_Source\PSoC4/ADC_Adc.c **** /***************************************************************************//**
   2:Generated_Source\PSoC4/ADC_Adc.c **** * \file ADC_Adc.c
   3:Generated_Source\PSoC4/ADC_Adc.c **** * \version 6.0
   4:Generated_Source\PSoC4/ADC_Adc.c **** *
   5:Generated_Source\PSoC4/ADC_Adc.c **** * \brief
   6:Generated_Source\PSoC4/ADC_Adc.c **** *   This file provides implementation for the ADC module of the ADC
   7:Generated_Source\PSoC4/ADC_Adc.c **** *   Component.
   8:Generated_Source\PSoC4/ADC_Adc.c **** *
   9:Generated_Source\PSoC4/ADC_Adc.c **** * \see ADC v6.0 Datasheet
  10:Generated_Source\PSoC4/ADC_Adc.c **** *
  11:Generated_Source\PSoC4/ADC_Adc.c **** *//*****************************************************************************
  12:Generated_Source\PSoC4/ADC_Adc.c **** * Copyright (2016-2018), Cypress Semiconductor Corporation.
  13:Generated_Source\PSoC4/ADC_Adc.c **** ********************************************************************************
  14:Generated_Source\PSoC4/ADC_Adc.c **** * This software is owned by Cypress Semiconductor Corporation (Cypress) and is
  15:Generated_Source\PSoC4/ADC_Adc.c **** * protected by and subject to worldwide patent protection (United States and
  16:Generated_Source\PSoC4/ADC_Adc.c **** * foreign), United States copyright laws and international treaty provisions.
  17:Generated_Source\PSoC4/ADC_Adc.c **** * Cypress hereby grants to licensee a personal, non-exclusive, non-transferable
  18:Generated_Source\PSoC4/ADC_Adc.c **** * license to copy, use, modify, create derivative works of, and compile the
  19:Generated_Source\PSoC4/ADC_Adc.c **** * Cypress Source Code and derivative works for the sole purpose of creating
  20:Generated_Source\PSoC4/ADC_Adc.c **** * custom software in support of licensee product to be used only in conjunction
  21:Generated_Source\PSoC4/ADC_Adc.c **** * with a Cypress integrated circuit as specified in the applicable agreement.
  22:Generated_Source\PSoC4/ADC_Adc.c **** * Any reproduction, modification, translation, compilation, or representation of
  23:Generated_Source\PSoC4/ADC_Adc.c **** * this software except as specified above is prohibited without the express
  24:Generated_Source\PSoC4/ADC_Adc.c **** * written permission of Cypress.
  25:Generated_Source\PSoC4/ADC_Adc.c **** *
  26:Generated_Source\PSoC4/ADC_Adc.c **** * Disclaimer: CYPRESS MAKES NO WARRANTY OF ANY KIND, EXPRESS OR IMPLIED, WITH
  27:Generated_Source\PSoC4/ADC_Adc.c **** * REGARD TO THIS MATERIAL, INCLUDING, BUT NOT LIMITED TO, THE IMPLIED
  28:Generated_Source\PSoC4/ADC_Adc.c **** * WARRANTIES OF MERCHANTABILITY AND FITNESS FOR A PARTICULAR PURPOSE.
  29:Generated_Source\PSoC4/ADC_Adc.c **** * Cypress reserves the right to make changes without further notice to the
  30:Generated_Source\PSoC4/ADC_Adc.c **** * materials described herein. Cypress does not assume any liability arising out
ARM GAS  C:\Users\ADMIN\AppData\Local\Temp\ccekpMqd.s 			page 2


  31:Generated_Source\PSoC4/ADC_Adc.c **** * of the application or use of any product or circuit described herein. Cypress
  32:Generated_Source\PSoC4/ADC_Adc.c **** * does not authorize its products for use as critical components in life-support
  33:Generated_Source\PSoC4/ADC_Adc.c **** * systems where a malfunction or failure may reasonably be expected to result in
  34:Generated_Source\PSoC4/ADC_Adc.c **** * significant injury to the user. The inclusion of Cypress' product in a life-
  35:Generated_Source\PSoC4/ADC_Adc.c **** * support systems application implies that the manufacturer assumes all risk of
  36:Generated_Source\PSoC4/ADC_Adc.c **** * such use and in doing so indemnifies Cypress against all charges. Use may be
  37:Generated_Source\PSoC4/ADC_Adc.c **** * limited by and subject to the applicable Cypress software license agreement.
  38:Generated_Source\PSoC4/ADC_Adc.c **** *******************************************************************************/
  39:Generated_Source\PSoC4/ADC_Adc.c **** #include <cytypes.h>
  40:Generated_Source\PSoC4/ADC_Adc.c **** #include "CyLib.h"
  41:Generated_Source\PSoC4/ADC_Adc.c **** #include "ADC_ISR.h"
  42:Generated_Source\PSoC4/ADC_Adc.c **** #include "ADC_Configuration.h"
  43:Generated_Source\PSoC4/ADC_Adc.c **** #include "ADC_Structure.h"
  44:Generated_Source\PSoC4/ADC_Adc.c **** #include "ADC_Adc.h"
  45:Generated_Source\PSoC4/ADC_Adc.c **** #include "ADC_Sensing.h"
  46:Generated_Source\PSoC4/ADC_Adc.c **** #if (ADC_ENABLE == ADC_SELF_TEST_EN)
  47:Generated_Source\PSoC4/ADC_Adc.c ****     #include "ADC_SelfTest.h"
  48:Generated_Source\PSoC4/ADC_Adc.c **** #endif
  49:Generated_Source\PSoC4/ADC_Adc.c **** 
  50:Generated_Source\PSoC4/ADC_Adc.c **** #if (ADC_ADC_EN)
  51:Generated_Source\PSoC4/ADC_Adc.c **** 
  52:Generated_Source\PSoC4/ADC_Adc.c **** static uint8 ADC_initVar;
  53:Generated_Source\PSoC4/ADC_Adc.c **** uint16 ADC_adcVrefMv = ADC_ADC_VREF_MV;
  54:Generated_Source\PSoC4/ADC_Adc.c **** 
  55:Generated_Source\PSoC4/ADC_Adc.c **** 
  56:Generated_Source\PSoC4/ADC_Adc.c **** /*******************************************************************************
  57:Generated_Source\PSoC4/ADC_Adc.c **** * Module local function declarations
  58:Generated_Source\PSoC4/ADC_Adc.c **** *******************************************************************************/
  59:Generated_Source\PSoC4/ADC_Adc.c **** /**
  60:Generated_Source\PSoC4/ADC_Adc.c **** * \cond SECTION_ADC_INTERNAL
  61:Generated_Source\PSoC4/ADC_Adc.c **** * \addtogroup group_adc_internal
  62:Generated_Source\PSoC4/ADC_Adc.c **** * \{
  63:Generated_Source\PSoC4/ADC_Adc.c **** */
  64:Generated_Source\PSoC4/ADC_Adc.c **** 
  65:Generated_Source\PSoC4/ADC_Adc.c **** void ADC_SetModClkClockDivider(uint32 modClk);
  66:Generated_Source\PSoC4/ADC_Adc.c **** 
  67:Generated_Source\PSoC4/ADC_Adc.c **** /** \}
  68:Generated_Source\PSoC4/ADC_Adc.c **** * \endcond */
  69:Generated_Source\PSoC4/ADC_Adc.c **** 
  70:Generated_Source\PSoC4/ADC_Adc.c **** /*******************************************************************************
  71:Generated_Source\PSoC4/ADC_Adc.c **** * Local definition
  72:Generated_Source\PSoC4/ADC_Adc.c **** *******************************************************************************/
  73:Generated_Source\PSoC4/ADC_Adc.c **** #define ADC_INIT_DONE                    (1u)
  74:Generated_Source\PSoC4/ADC_Adc.c **** #define ADC_INIT_NEEDED                  (0u)
  75:Generated_Source\PSoC4/ADC_Adc.c **** #define ADC_CAL_WATCHDOG_CYCLES_NUM      (0x0000FFFFLu)
  76:Generated_Source\PSoC4/ADC_Adc.c **** 
  77:Generated_Source\PSoC4/ADC_Adc.c **** #if (ADC_ENABLE == ADC_ADC_STANDALONE_EN)
  78:Generated_Source\PSoC4/ADC_Adc.c ****     /*******************************************************************************
  79:Generated_Source\PSoC4/ADC_Adc.c ****     * Function Name: ADC_Start
  80:Generated_Source\PSoC4/ADC_Adc.c ****     ****************************************************************************//**
  81:Generated_Source\PSoC4/ADC_Adc.c ****     * \cond SECTION_STANDALONE_ADC
  82:Generated_Source\PSoC4/ADC_Adc.c ****     * \brief
  83:Generated_Source\PSoC4/ADC_Adc.c ****     *   Configures the hardware and performs calibration.
  84:Generated_Source\PSoC4/ADC_Adc.c ****     *
  85:Generated_Source\PSoC4/ADC_Adc.c ****     * \details
  86:Generated_Source\PSoC4/ADC_Adc.c ****     *   Configures the hardware and performs calibration.
  87:Generated_Source\PSoC4/ADC_Adc.c ****     * \endcond
ARM GAS  C:\Users\ADMIN\AppData\Local\Temp\ccekpMqd.s 			page 3


  88:Generated_Source\PSoC4/ADC_Adc.c ****     *
  89:Generated_Source\PSoC4/ADC_Adc.c ****     *******************************************************************************/
  90:Generated_Source\PSoC4/ADC_Adc.c ****     void ADC_Start(void)
  91:Generated_Source\PSoC4/ADC_Adc.c ****     {
  92:Generated_Source\PSoC4/ADC_Adc.c ****         ADC_ClearAdcChannels();
  93:Generated_Source\PSoC4/ADC_Adc.c **** 
  94:Generated_Source\PSoC4/ADC_Adc.c ****         if (ADC_INIT_DONE != ADC_initVar)
  95:Generated_Source\PSoC4/ADC_Adc.c ****         {
  96:Generated_Source\PSoC4/ADC_Adc.c ****             ADC_DsInitialize();
  97:Generated_Source\PSoC4/ADC_Adc.c ****         }
  98:Generated_Source\PSoC4/ADC_Adc.c ****         ADC_ConfigAdcResources();
  99:Generated_Source\PSoC4/ADC_Adc.c ****         (void) ADC_Calibrate();
 100:Generated_Source\PSoC4/ADC_Adc.c ****         while(ADC_IsBusy() != ADC_STATUS_IDLE)
 101:Generated_Source\PSoC4/ADC_Adc.c ****         {
 102:Generated_Source\PSoC4/ADC_Adc.c ****         }
 103:Generated_Source\PSoC4/ADC_Adc.c ****     }
 104:Generated_Source\PSoC4/ADC_Adc.c **** 
 105:Generated_Source\PSoC4/ADC_Adc.c ****     /*******************************************************************************
 106:Generated_Source\PSoC4/ADC_Adc.c ****     * Function Name: ADC_Sleep
 107:Generated_Source\PSoC4/ADC_Adc.c ****     ****************************************************************************//**
 108:Generated_Source\PSoC4/ADC_Adc.c ****     * \cond SECTION_STANDALONE_ADC
 109:Generated_Source\PSoC4/ADC_Adc.c ****     * \brief
 110:Generated_Source\PSoC4/ADC_Adc.c ****     *  Prepares the Component for deep sleep.
 111:Generated_Source\PSoC4/ADC_Adc.c ****     *
 112:Generated_Source\PSoC4/ADC_Adc.c ****     * \details
 113:Generated_Source\PSoC4/ADC_Adc.c ****     *  Currently this function is empty and exists as a place for future updates,
 114:Generated_Source\PSoC4/ADC_Adc.c ****     *  this function will be used to prepare the Component to enter deep sleep.
 115:Generated_Source\PSoC4/ADC_Adc.c ****     * \endcond
 116:Generated_Source\PSoC4/ADC_Adc.c ****     *
 117:Generated_Source\PSoC4/ADC_Adc.c ****     *******************************************************************************/
 118:Generated_Source\PSoC4/ADC_Adc.c ****     void ADC_Sleep(void)
 119:Generated_Source\PSoC4/ADC_Adc.c ****     {
  28              		.loc 1 119 0
  29              		.cfi_startproc
  30              		@ args = 0, pretend = 0, frame = 0
  31              		@ frame_needed = 0, uses_anonymous_args = 0
  32              		@ link register save eliminated.
 120:Generated_Source\PSoC4/ADC_Adc.c ****     }
  33              		.loc 1 120 0
  34              		@ sp needed
  35 0000 7047     		bx	lr
  36              		.cfi_endproc
  37              	.LFE2:
  38              		.size	ADC_Sleep, .-ADC_Sleep
  39 0002 C046     		.section	.text.ADC_Wakeup,"ax",%progbits
  40              		.align	2
  41              		.global	ADC_Wakeup
  42              		.code	16
  43              		.thumb_func
  44              		.type	ADC_Wakeup, %function
  45              	ADC_Wakeup:
  46              	.LFB3:
 121:Generated_Source\PSoC4/ADC_Adc.c **** 
 122:Generated_Source\PSoC4/ADC_Adc.c **** 
 123:Generated_Source\PSoC4/ADC_Adc.c ****     /*******************************************************************************
 124:Generated_Source\PSoC4/ADC_Adc.c ****     * Function Name: ADC_Wakeup
 125:Generated_Source\PSoC4/ADC_Adc.c ****     ****************************************************************************//**
ARM GAS  C:\Users\ADMIN\AppData\Local\Temp\ccekpMqd.s 			page 4


 126:Generated_Source\PSoC4/ADC_Adc.c ****     * \cond SECTION_STANDALONE_ADC
 127:Generated_Source\PSoC4/ADC_Adc.c ****     * \brief
 128:Generated_Source\PSoC4/ADC_Adc.c ****     *  This function resumes the Component after sleep.
 129:Generated_Source\PSoC4/ADC_Adc.c ****     *
 130:Generated_Source\PSoC4/ADC_Adc.c ****     * \details
 131:Generated_Source\PSoC4/ADC_Adc.c ****     *  Currently this function is empty and exists as a place for future updates,
 132:Generated_Source\PSoC4/ADC_Adc.c ****     *  this function will be used to resume the Component after exiting deep sleep.
 133:Generated_Source\PSoC4/ADC_Adc.c ****     * \endcond
 134:Generated_Source\PSoC4/ADC_Adc.c ****     *
 135:Generated_Source\PSoC4/ADC_Adc.c ****     *******************************************************************************/
 136:Generated_Source\PSoC4/ADC_Adc.c ****     void ADC_Wakeup(void)
 137:Generated_Source\PSoC4/ADC_Adc.c ****     {
  47              		.loc 1 137 0
  48              		.cfi_startproc
  49              		@ args = 0, pretend = 0, frame = 0
  50              		@ frame_needed = 0, uses_anonymous_args = 0
  51              		@ link register save eliminated.
 138:Generated_Source\PSoC4/ADC_Adc.c ****     }
  52              		.loc 1 138 0
  53              		@ sp needed
  54 0000 7047     		bx	lr
  55              		.cfi_endproc
  56              	.LFE3:
  57              		.size	ADC_Wakeup, .-ADC_Wakeup
  58 0002 C046     		.section	.text.ADC_SetNonDedicatedAdcChannel,"ax",%progbits
  59              		.align	2
  60              		.global	ADC_SetNonDedicatedAdcChannel
  61              		.code	16
  62              		.thumb_func
  63              		.type	ADC_SetNonDedicatedAdcChannel, %function
  64              	ADC_SetNonDedicatedAdcChannel:
  65              	.LFB4:
 139:Generated_Source\PSoC4/ADC_Adc.c **** #endif  /* (ADC_ENABLE != ADC_ADC_STANDALONE_EN) */
 140:Generated_Source\PSoC4/ADC_Adc.c **** 
 141:Generated_Source\PSoC4/ADC_Adc.c **** /*******************************************************************************
 142:Generated_Source\PSoC4/ADC_Adc.c **** * Function Name: ADC_SetNonDedicatedAdcChannel
 143:Generated_Source\PSoC4/ADC_Adc.c **** ****************************************************************************//**
 144:Generated_Source\PSoC4/ADC_Adc.c **** *
 145:Generated_Source\PSoC4/ADC_Adc.c **** * \brief
 146:Generated_Source\PSoC4/ADC_Adc.c **** *   Sets the non dedicated channel to the given state.
 147:Generated_Source\PSoC4/ADC_Adc.c **** *
 148:Generated_Source\PSoC4/ADC_Adc.c **** * \details
 149:Generated_Source\PSoC4/ADC_Adc.c **** *   Connects/disconnects the pin and the analog muxbus B. Sets the drive mode
 150:Generated_Source\PSoC4/ADC_Adc.c **** *   of the pin as well.
 151:Generated_Source\PSoC4/ADC_Adc.c **** *
 152:Generated_Source\PSoC4/ADC_Adc.c **** * \param chId  The ID of the non dedicated channel to be set.
 153:Generated_Source\PSoC4/ADC_Adc.c **** * \param state The state in which the channel is to be put:
 154:Generated_Source\PSoC4/ADC_Adc.c **** *         - (0) ADC_CHAN_DISCONNECT
 155:Generated_Source\PSoC4/ADC_Adc.c **** *         - (1) ADC_CHAN_CONNECT
 156:Generated_Source\PSoC4/ADC_Adc.c **** *
 157:Generated_Source\PSoC4/ADC_Adc.c **** *******************************************************************************/
 158:Generated_Source\PSoC4/ADC_Adc.c **** void ADC_SetNonDedicatedAdcChannel(uint8 chId, uint32 state)
 159:Generated_Source\PSoC4/ADC_Adc.c **** {
  66              		.loc 1 159 0
  67              		.cfi_startproc
  68              		@ args = 0, pretend = 0, frame = 0
  69              		@ frame_needed = 0, uses_anonymous_args = 0
ARM GAS  C:\Users\ADMIN\AppData\Local\Temp\ccekpMqd.s 			page 5


  70              	.LVL0:
  71 0000 F8B5     		push	{r3, r4, r5, r6, r7, lr}
  72              		.cfi_def_cfa_offset 24
  73              		.cfi_offset 3, -24
  74              		.cfi_offset 4, -20
  75              		.cfi_offset 5, -16
  76              		.cfi_offset 6, -12
  77              		.cfi_offset 7, -8
  78              		.cfi_offset 14, -4
  79 0002 4F46     		mov	r7, r9
  80 0004 4646     		mov	r6, r8
  81 0006 C0B4     		push	{r6, r7}
  82              		.cfi_def_cfa_offset 32
  83              		.cfi_offset 8, -32
  84              		.cfi_offset 9, -28
  85 0008 0400     		movs	r4, r0
  86 000a 8946     		mov	r9, r1
  87              	.LVL1:
 160:Generated_Source\PSoC4/ADC_Adc.c ****     ADC_FLASH_IO_STRUCT const *ptr2adcIO;
 161:Generated_Source\PSoC4/ADC_Adc.c ****     uint32 newRegisterValue;
 162:Generated_Source\PSoC4/ADC_Adc.c ****     uint8  interruptState;
 163:Generated_Source\PSoC4/ADC_Adc.c ****     uint32 pinHSIOMShift;
 164:Generated_Source\PSoC4/ADC_Adc.c ****     uint32 pinModeShift;
 165:Generated_Source\PSoC4/ADC_Adc.c ****     uint32 tmpVal;
 166:Generated_Source\PSoC4/ADC_Adc.c **** 
 167:Generated_Source\PSoC4/ADC_Adc.c ****     ptr2adcIO = &ADC_adcIoList[chId];
 168:Generated_Source\PSoC4/ADC_Adc.c ****     pinHSIOMShift = (uint32)ptr2adcIO->hsiomShift;
  88              		.loc 1 168 0
  89 000c 2F49     		ldr	r1, .L10
  90              	.LVL2:
  91 000e C300     		lsls	r3, r0, #3
  92 0010 181A     		subs	r0, r3, r0
  93              	.LVL3:
  94 0012 8200     		lsls	r2, r0, #2
  95 0014 8A18     		adds	r2, r1, r2
  96 0016 107E     		ldrb	r0, [r2, #24]
  97 0018 8046     		mov	r8, r0
  98              	.LVL4:
 169:Generated_Source\PSoC4/ADC_Adc.c ****     pinModeShift = (uint32)ptr2adcIO->shift;
  99              		.loc 1 169 0
 100 001a 977E     		ldrb	r7, [r2, #26]
 101              	.LVL5:
 170:Generated_Source\PSoC4/ADC_Adc.c ****     
 171:Generated_Source\PSoC4/ADC_Adc.c ****     /* Clear port connections. */
 172:Generated_Source\PSoC4/ADC_Adc.c ****     tmpVal = CY_GET_REG32(ptr2adcIO->hsiomPtr);
 102              		.loc 1 172 0
 103 001c 1B1B     		subs	r3, r3, r4
 104 001e 9A00     		lsls	r2, r3, #2
 105 0020 5558     		ldr	r5, [r2, r1]
 106 0022 2E68     		ldr	r6, [r5]
 107              	.LVL6:
 173:Generated_Source\PSoC4/ADC_Adc.c ****     tmpVal &= ~(ADC_HSIOM_SEL_MASK << pinHSIOMShift);
 108              		.loc 1 173 0
 109 0024 0F23     		movs	r3, #15
 110 0026 8340     		lsls	r3, r3, r0
 111 0028 9E43     		bics	r6, r3
 112              	.LVL7:
ARM GAS  C:\Users\ADMIN\AppData\Local\Temp\ccekpMqd.s 			page 6


 174:Generated_Source\PSoC4/ADC_Adc.c ****     
 175:Generated_Source\PSoC4/ADC_Adc.c ****     interruptState = CyEnterCriticalSection();
 113              		.loc 1 175 0
 114 002a FFF7FEFF 		bl	CyEnterCriticalSection
 115              	.LVL8:
 176:Generated_Source\PSoC4/ADC_Adc.c **** 
 177:Generated_Source\PSoC4/ADC_Adc.c ****     switch (state)
 116              		.loc 1 177 0
 117 002e 4B46     		mov	r3, r9
 118 0030 012B     		cmp	r3, #1
 119 0032 21D1     		bne	.L9
 178:Generated_Source\PSoC4/ADC_Adc.c ****     {
 179:Generated_Source\PSoC4/ADC_Adc.c ****     case ADC_CHAN_CONNECT:
 180:Generated_Source\PSoC4/ADC_Adc.c ****         /* Connect AMuxBusB to the selected port */
 181:Generated_Source\PSoC4/ADC_Adc.c ****         CY_SET_REG32(ptr2adcIO->hsiomPtr, (tmpVal | (ADC_HSIOM_SEL_AMUXB << pinHSIOMShift)));
 120              		.loc 1 181 0
 121 0034 0722     		movs	r2, #7
 122 0036 1300     		movs	r3, r2
 123 0038 4146     		mov	r1, r8
 124 003a 8B40     		lsls	r3, r3, r1
 125 003c 1E43     		orrs	r6, r3
 126              	.LVL9:
 127 003e 2E60     		str	r6, [r5]
 182:Generated_Source\PSoC4/ADC_Adc.c ****         /* Update port configuration register (drive mode) to HiZ Analog */
 183:Generated_Source\PSoC4/ADC_Adc.c ****         newRegisterValue = CY_GET_REG32(ptr2adcIO->pcPtr);
 128              		.loc 1 183 0
 129 0040 E100     		lsls	r1, r4, #3
 130 0042 091B     		subs	r1, r1, r4
 131 0044 8B00     		lsls	r3, r1, #2
 132 0046 2149     		ldr	r1, .L10
 133 0048 CB18     		adds	r3, r1, r3
 134 004a 5968     		ldr	r1, [r3, #4]
 135 004c 0B68     		ldr	r3, [r1]
 136              	.LVL10:
 184:Generated_Source\PSoC4/ADC_Adc.c ****         newRegisterValue &= ~(ADC_GPIO_PC_MASK << pinModeShift);
 137              		.loc 1 184 0
 138 004e BA40     		lsls	r2, r2, r7
 139 0050 9343     		bics	r3, r2
 140              	.LVL11:
 141 0052 1A00     		movs	r2, r3
 142              	.LVL12:
 185:Generated_Source\PSoC4/ADC_Adc.c ****         newRegisterValue |= (ADC_GPIO_PC_INPUT << pinModeShift);
 143              		.loc 1 185 0
 144 0054 0123     		movs	r3, #1
 145 0056 BB40     		lsls	r3, r3, r7
 146 0058 1343     		orrs	r3, r2
 147              	.LVL13:
 186:Generated_Source\PSoC4/ADC_Adc.c ****         CY_SET_REG32(ptr2adcIO->pcPtr, newRegisterValue);
 148              		.loc 1 186 0
 149 005a 0B60     		str	r3, [r1]
 187:Generated_Source\PSoC4/ADC_Adc.c ****     
 188:Generated_Source\PSoC4/ADC_Adc.c ****         /* Cmod and Ctank are not typical GPIO, require CSD setting. */
 189:Generated_Source\PSoC4/ADC_Adc.c ****         if (0u != ((uint32)(ptr2adcIO->hsiomPtr) & ADC_SW_CMOD_PORT_MASK))
 150              		.loc 1 189 0
 151 005c 6B05     		lsls	r3, r5, #21
 152 005e 20D5     		bpl	.L6
 153              	.LVL14:
ARM GAS  C:\Users\ADMIN\AppData\Local\Temp\ccekpMqd.s 			page 7


 190:Generated_Source\PSoC4/ADC_Adc.c ****         {
 191:Generated_Source\PSoC4/ADC_Adc.c ****             if (ADC_SW_CTANK_PINSHIFT == pinModeShift)
 154              		.loc 1 191 0
 155 0060 092F     		cmp	r7, #9
 156 0062 03D1     		bne	.L7
 192:Generated_Source\PSoC4/ADC_Adc.c ****             {
 193:Generated_Source\PSoC4/ADC_Adc.c ****                 CY_SET_REG32(ADC_SW_DSI_SEL_PTR, ADC_SW_DSI_CTANK);
 157              		.loc 1 193 0
 158 0064 0122     		movs	r2, #1
 159 0066 1A4B     		ldr	r3, .L10+4
 160 0068 1A60     		str	r2, [r3]
 161              	.LVL15:
 162 006a 1AE0     		b	.L6
 163              	.LVL16:
 164              	.L7:
 194:Generated_Source\PSoC4/ADC_Adc.c ****             }
 195:Generated_Source\PSoC4/ADC_Adc.c ****             else if (ADC_SW_CMOD_PINSHIFT == pinModeShift)
 165              		.loc 1 195 0
 166 006c 062F     		cmp	r7, #6
 167 006e 18D1     		bne	.L6
 196:Generated_Source\PSoC4/ADC_Adc.c ****             {
 197:Generated_Source\PSoC4/ADC_Adc.c ****                 CY_SET_REG32(ADC_SW_DSI_SEL_PTR, ADC_SW_DSI_CMOD);
 168              		.loc 1 197 0
 169 0070 1022     		movs	r2, #16
 170 0072 174B     		ldr	r3, .L10+4
 171 0074 1A60     		str	r2, [r3]
 172              	.LVL17:
 173 0076 14E0     		b	.L6
 174              	.LVL18:
 175              	.L9:
 198:Generated_Source\PSoC4/ADC_Adc.c ****             }
 199:Generated_Source\PSoC4/ADC_Adc.c ****             else { /* No action */ }
 200:Generated_Source\PSoC4/ADC_Adc.c ****         }
 201:Generated_Source\PSoC4/ADC_Adc.c ****         break;
 202:Generated_Source\PSoC4/ADC_Adc.c ****         
 203:Generated_Source\PSoC4/ADC_Adc.c ****     /* Disconnection is a safe default state. Fall-through is intentional. */
 204:Generated_Source\PSoC4/ADC_Adc.c ****     case ADC_CHAN_DISCONNECT:
 205:Generated_Source\PSoC4/ADC_Adc.c ****     default:
 206:Generated_Source\PSoC4/ADC_Adc.c ****         /* Disconnect AMuxBusB from the selected port */
 207:Generated_Source\PSoC4/ADC_Adc.c ****         CY_SET_REG32(ptr2adcIO->hsiomPtr, tmpVal);
 176              		.loc 1 207 0
 177 0078 2E60     		str	r6, [r5]
 208:Generated_Source\PSoC4/ADC_Adc.c ****     
 209:Generated_Source\PSoC4/ADC_Adc.c ****         /* Update port configuration register (drive mode) to HiZ input/output by clearing PC */
 210:Generated_Source\PSoC4/ADC_Adc.c ****         newRegisterValue = CY_GET_REG32(ptr2adcIO->pcPtr);
 178              		.loc 1 210 0
 179 007a E200     		lsls	r2, r4, #3
 180 007c 121B     		subs	r2, r2, r4
 181 007e 9300     		lsls	r3, r2, #2
 182              	.LVL19:
 183 0080 124A     		ldr	r2, .L10
 184 0082 D318     		adds	r3, r2, r3
 185 0084 5968     		ldr	r1, [r3, #4]
 186 0086 0B68     		ldr	r3, [r1]
 187              	.LVL20:
 211:Generated_Source\PSoC4/ADC_Adc.c ****         newRegisterValue &= ~(ADC_GPIO_PC_MASK << pinModeShift);
 188              		.loc 1 211 0
ARM GAS  C:\Users\ADMIN\AppData\Local\Temp\ccekpMqd.s 			page 8


 189 0088 0722     		movs	r2, #7
 190 008a BA40     		lsls	r2, r2, r7
 191 008c 9343     		bics	r3, r2
 192              	.LVL21:
 212:Generated_Source\PSoC4/ADC_Adc.c ****         CY_SET_REG32(ptr2adcIO->pcPtr, newRegisterValue);
 193              		.loc 1 212 0
 194 008e 0B60     		str	r3, [r1]
 213:Generated_Source\PSoC4/ADC_Adc.c ****         
 214:Generated_Source\PSoC4/ADC_Adc.c ****         /* Cmod and Ctank are not typical GPIO, require CSD setting. */
 215:Generated_Source\PSoC4/ADC_Adc.c ****         if (0u != ((uint32)(ptr2adcIO->hsiomPtr) & ADC_SW_CMOD_PORT_MASK))
 195              		.loc 1 215 0
 196 0090 6B05     		lsls	r3, r5, #21
 197 0092 06D5     		bpl	.L6
 198              	.LVL22:
 216:Generated_Source\PSoC4/ADC_Adc.c ****         {
 217:Generated_Source\PSoC4/ADC_Adc.c ****             if ((ADC_SW_CTANK_PINSHIFT == pinModeShift) ||
 199              		.loc 1 217 0
 200 0094 092F     		cmp	r7, #9
 201 0096 01D0     		beq	.L8
 202              		.loc 1 217 0 is_stmt 0 discriminator 1
 203 0098 062F     		cmp	r7, #6
 204 009a 02D1     		bne	.L6
 205              	.L8:
 218:Generated_Source\PSoC4/ADC_Adc.c ****                 (ADC_SW_CMOD_PINSHIFT == pinModeShift ))
 219:Generated_Source\PSoC4/ADC_Adc.c ****             {
 220:Generated_Source\PSoC4/ADC_Adc.c ****                 CY_SET_REG32(ADC_SW_DSI_SEL_PTR, 0u);  
 206              		.loc 1 220 0 is_stmt 1
 207 009c 0022     		movs	r2, #0
 208 009e 0C4B     		ldr	r3, .L10+4
 209 00a0 1A60     		str	r2, [r3]
 210              	.LVL23:
 211              	.L6:
 221:Generated_Source\PSoC4/ADC_Adc.c ****             }
 222:Generated_Source\PSoC4/ADC_Adc.c ****         }
 223:Generated_Source\PSoC4/ADC_Adc.c ****         break;
 224:Generated_Source\PSoC4/ADC_Adc.c ****     }
 225:Generated_Source\PSoC4/ADC_Adc.c **** 
 226:Generated_Source\PSoC4/ADC_Adc.c ****     CyExitCriticalSection(interruptState);
 212              		.loc 1 226 0
 213 00a2 FFF7FEFF 		bl	CyExitCriticalSection
 214              	.LVL24:
 227:Generated_Source\PSoC4/ADC_Adc.c ****     
 228:Generated_Source\PSoC4/ADC_Adc.c ****     /* Set logic 0 to port data register */
 229:Generated_Source\PSoC4/ADC_Adc.c ****     tmpVal = CY_GET_REG32(ptr2adcIO->drPtr);
 215              		.loc 1 229 0
 216 00a6 0948     		ldr	r0, .L10
 217 00a8 E300     		lsls	r3, r4, #3
 218 00aa 191B     		subs	r1, r3, r4
 219 00ac 8A00     		lsls	r2, r1, #2
 220 00ae 8218     		adds	r2, r0, r2
 221 00b0 9168     		ldr	r1, [r2, #8]
 222 00b2 0A68     		ldr	r2, [r1]
 223              	.LVL25:
 230:Generated_Source\PSoC4/ADC_Adc.c ****     tmpVal &= (uint32)~(uint32)((uint32)1u << ptr2adcIO->drShift);
 224              		.loc 1 230 0
 225 00b4 1C1B     		subs	r4, r3, r4
 226              	.LVL26:
ARM GAS  C:\Users\ADMIN\AppData\Local\Temp\ccekpMqd.s 			page 9


 227 00b6 A300     		lsls	r3, r4, #2
 228 00b8 C318     		adds	r3, r0, r3
 229 00ba 587E     		ldrb	r0, [r3, #25]
 230 00bc 0123     		movs	r3, #1
 231 00be 8340     		lsls	r3, r3, r0
 232 00c0 9A43     		bics	r2, r3
 233              	.LVL27:
 231:Generated_Source\PSoC4/ADC_Adc.c ****     CY_SET_REG32(ptr2adcIO->drPtr, tmpVal);
 234              		.loc 1 231 0
 235 00c2 0A60     		str	r2, [r1]
 232:Generated_Source\PSoC4/ADC_Adc.c **** }
 236              		.loc 1 232 0
 237              		@ sp needed
 238              	.LVL28:
 239              	.LVL29:
 240              	.LVL30:
 241 00c4 0CBC     		pop	{r2, r3}
 242 00c6 9046     		mov	r8, r2
 243 00c8 9946     		mov	r9, r3
 244 00ca F8BD     		pop	{r3, r4, r5, r6, r7, pc}
 245              	.L11:
 246              		.align	2
 247              	.L10:
 248 00cc 00000000 		.word	ADC_adcIoList
 249 00d0 C0020B40 		.word	1074463424
 250              		.cfi_endproc
 251              	.LFE4:
 252              		.size	ADC_SetNonDedicatedAdcChannel, .-ADC_SetNonDedicatedAdcChannel
 253              		.section	.text.ADC_SetAdcChannel,"ax",%progbits
 254              		.align	2
 255              		.global	ADC_SetAdcChannel
 256              		.code	16
 257              		.thumb_func
 258              		.type	ADC_SetAdcChannel, %function
 259              	ADC_SetAdcChannel:
 260              	.LFB5:
 233:Generated_Source\PSoC4/ADC_Adc.c **** 
 234:Generated_Source\PSoC4/ADC_Adc.c **** 
 235:Generated_Source\PSoC4/ADC_Adc.c **** /*******************************************************************************
 236:Generated_Source\PSoC4/ADC_Adc.c **** * Function Name: ADC_SetAdcChannel
 237:Generated_Source\PSoC4/ADC_Adc.c **** ****************************************************************************//**
 238:Generated_Source\PSoC4/ADC_Adc.c **** *
 239:Generated_Source\PSoC4/ADC_Adc.c **** * \brief
 240:Generated_Source\PSoC4/ADC_Adc.c **** *   Sets the given channel to the given state.
 241:Generated_Source\PSoC4/ADC_Adc.c **** *
 242:Generated_Source\PSoC4/ADC_Adc.c **** * \details
 243:Generated_Source\PSoC4/ADC_Adc.c **** *   Connects/disconnects the pin and the analog muxbus B.  Sets the drive mode
 244:Generated_Source\PSoC4/ADC_Adc.c **** *   of the pin as well.
 245:Generated_Source\PSoC4/ADC_Adc.c **** *
 246:Generated_Source\PSoC4/ADC_Adc.c **** * \param chId  The ID of the channel to be set.
 247:Generated_Source\PSoC4/ADC_Adc.c **** * \param state The state in which the channel is to be put:
 248:Generated_Source\PSoC4/ADC_Adc.c **** *         - (0) ADC_CHAN_DISCONNECT
 249:Generated_Source\PSoC4/ADC_Adc.c **** *         - (1) ADC_CHAN_CONNECT
 250:Generated_Source\PSoC4/ADC_Adc.c **** *
 251:Generated_Source\PSoC4/ADC_Adc.c **** *******************************************************************************/
 252:Generated_Source\PSoC4/ADC_Adc.c **** void ADC_SetAdcChannel(uint8 chId, uint32 state)
 253:Generated_Source\PSoC4/ADC_Adc.c **** {
ARM GAS  C:\Users\ADMIN\AppData\Local\Temp\ccekpMqd.s 			page 10


 261              		.loc 1 253 0
 262              		.cfi_startproc
 263              		@ args = 0, pretend = 0, frame = 0
 264              		@ frame_needed = 0, uses_anonymous_args = 0
 265              	.LVL31:
 266 0000 10B5     		push	{r4, lr}
 267              		.cfi_def_cfa_offset 8
 268              		.cfi_offset 4, -8
 269              		.cfi_offset 14, -4
 254:Generated_Source\PSoC4/ADC_Adc.c ****     #if (0u != ADC_ADC_AMUXB_INPUT_EN)
 255:Generated_Source\PSoC4/ADC_Adc.c ****         #if (ADC_ADC_MIN_CHANNELS < ADC_ADC_TOTAL_CHANNELS)
 256:Generated_Source\PSoC4/ADC_Adc.c ****             if(ADC_ADC_SELECT_AMUXB_CH != chId)
 257:Generated_Source\PSoC4/ADC_Adc.c ****             {
 258:Generated_Source\PSoC4/ADC_Adc.c ****                 ADC_SetNonDedicatedAdcChannel(chId, state);
 259:Generated_Source\PSoC4/ADC_Adc.c ****             }
 260:Generated_Source\PSoC4/ADC_Adc.c ****         #endif /* (0u != ADC_ADC_TOTAL_CHANNELS) */
 261:Generated_Source\PSoC4/ADC_Adc.c ****     #else
 262:Generated_Source\PSoC4/ADC_Adc.c ****         ADC_SetNonDedicatedAdcChannel(chId, state);
 270              		.loc 1 262 0
 271 0002 FFF7FEFF 		bl	ADC_SetNonDedicatedAdcChannel
 272              	.LVL32:
 263:Generated_Source\PSoC4/ADC_Adc.c ****     #endif /* (0u != ADC_ADC_AMUXB_INPUT_EN) */
 264:Generated_Source\PSoC4/ADC_Adc.c **** }
 273              		.loc 1 264 0
 274              		@ sp needed
 275 0006 10BD     		pop	{r4, pc}
 276              		.cfi_endproc
 277              	.LFE5:
 278              		.size	ADC_SetAdcChannel, .-ADC_SetAdcChannel
 279              		.section	.text.ADC_StartAdcFSM,"ax",%progbits
 280              		.align	2
 281              		.global	ADC_StartAdcFSM
 282              		.code	16
 283              		.thumb_func
 284              		.type	ADC_StartAdcFSM, %function
 285              	ADC_StartAdcFSM:
 286              	.LFB7:
 265:Generated_Source\PSoC4/ADC_Adc.c **** 
 266:Generated_Source\PSoC4/ADC_Adc.c **** 
 267:Generated_Source\PSoC4/ADC_Adc.c **** /*******************************************************************************
 268:Generated_Source\PSoC4/ADC_Adc.c **** * Function Name: ADC_ConfigAdcResources
 269:Generated_Source\PSoC4/ADC_Adc.c **** ****************************************************************************//**
 270:Generated_Source\PSoC4/ADC_Adc.c **** *
 271:Generated_Source\PSoC4/ADC_Adc.c **** * \brief
 272:Generated_Source\PSoC4/ADC_Adc.c **** *   Configures the CSD block to be used as an ADC.
 273:Generated_Source\PSoC4/ADC_Adc.c **** *
 274:Generated_Source\PSoC4/ADC_Adc.c **** * \details
 275:Generated_Source\PSoC4/ADC_Adc.c **** *   Configures the IDACB, internal switches, REFGEN, HSCOMP, enables CSD
 276:Generated_Source\PSoC4/ADC_Adc.c **** *   block interrupt and set interrupt vector to ADC sensing method.
 277:Generated_Source\PSoC4/ADC_Adc.c **** *
 278:Generated_Source\PSoC4/ADC_Adc.c **** *******************************************************************************/
 279:Generated_Source\PSoC4/ADC_Adc.c **** void ADC_ConfigAdcResources(void)
 280:Generated_Source\PSoC4/ADC_Adc.c **** {
 281:Generated_Source\PSoC4/ADC_Adc.c ****     uint8  interruptState;
 282:Generated_Source\PSoC4/ADC_Adc.c ****     uint32 newRegValue;
 283:Generated_Source\PSoC4/ADC_Adc.c **** 
 284:Generated_Source\PSoC4/ADC_Adc.c ****     /* Configure clocks */
ARM GAS  C:\Users\ADMIN\AppData\Local\Temp\ccekpMqd.s 			page 11


 285:Generated_Source\PSoC4/ADC_Adc.c ****     ADC_SetModClkClockDivider(ADC_ADC_MODCLK_DIV_DEFAULT);
 286:Generated_Source\PSoC4/ADC_Adc.c ****     CY_SET_REG32(ADC_SENSE_PERIOD_PTR, (ADC_SENSE_DIV_DEFAULT - 1uL));
 287:Generated_Source\PSoC4/ADC_Adc.c **** 
 288:Generated_Source\PSoC4/ADC_Adc.c ****     /* Configure the IDAC */
 289:Generated_Source\PSoC4/ADC_Adc.c ****     CY_SET_REG32(ADC_CONFIG_PTR, ADC_CONFIG_DEFAULT);
 290:Generated_Source\PSoC4/ADC_Adc.c ****     CY_SET_REG32(ADC_IDACB_PTR, ADC_IDACB_CONFIG | ADC_dsRam.adcIdac);
 291:Generated_Source\PSoC4/ADC_Adc.c **** 
 292:Generated_Source\PSoC4/ADC_Adc.c ****     /* Configure AZ Time */
 293:Generated_Source\PSoC4/ADC_Adc.c ****     CY_SET_REG32(ADC_SEQ_TIME_PTR, (ADC_SEQ_TIME_DEFAUL - 1uL));
 294:Generated_Source\PSoC4/ADC_Adc.c **** 
 295:Generated_Source\PSoC4/ADC_Adc.c ****     CY_SET_REG32(ADC_CSDCMP_PTR, 0uL);
 296:Generated_Source\PSoC4/ADC_Adc.c ****     CY_SET_REG32(ADC_SW_DSI_SEL_PTR, 0uL);
 297:Generated_Source\PSoC4/ADC_Adc.c **** 
 298:Generated_Source\PSoC4/ADC_Adc.c ****     CY_SET_REG32(ADC_SENSE_DUTY_PTR, 0uL);
 299:Generated_Source\PSoC4/ADC_Adc.c ****     CY_SET_REG32(ADC_SEQ_INIT_CNT_PTR, 1uL);
 300:Generated_Source\PSoC4/ADC_Adc.c ****     CY_SET_REG32(ADC_SEQ_NORM_CNT_PTR, 2uL);
 301:Generated_Source\PSoC4/ADC_Adc.c **** 
 302:Generated_Source\PSoC4/ADC_Adc.c ****     /* Configure the block-level routing */
 303:Generated_Source\PSoC4/ADC_Adc.c ****     CY_SET_REG32(ADC_SW_HS_P_SEL_PTR, ADC_SW_HSP_DEFAULT);
 304:Generated_Source\PSoC4/ADC_Adc.c ****     CY_SET_REG32(ADC_SW_HS_N_SEL_PTR, ADC_SW_HSN_DEFAULT);
 305:Generated_Source\PSoC4/ADC_Adc.c ****     CY_SET_REG32(ADC_SW_SHIELD_SEL_PTR, ADC_SW_SHIELD_DEFAULT);
 306:Generated_Source\PSoC4/ADC_Adc.c ****     CY_SET_REG32(ADC_SW_CMP_P_SEL_PTR, ADC_SW_CMPP_DEFAULT);
 307:Generated_Source\PSoC4/ADC_Adc.c ****     CY_SET_REG32(ADC_SW_CMP_N_SEL_PTR, ADC_SW_CMPN_DEFAULT);
 308:Generated_Source\PSoC4/ADC_Adc.c ****     CY_SET_REG32(ADC_SW_FW_MOD_SEL_PTR, ADC_SW_FWMOD_DEFAULT);
 309:Generated_Source\PSoC4/ADC_Adc.c ****     CY_SET_REG32(ADC_SW_FW_TANK_SEL_PTR, ADC_SW_FWTANK_DEFAULT);
 310:Generated_Source\PSoC4/ADC_Adc.c ****     CY_SET_REG32(ADC_SW_REFGEN_SEL_PTR, ADC_SW_REFGEN_DEFAULT);
 311:Generated_Source\PSoC4/ADC_Adc.c **** 
 312:Generated_Source\PSoC4/ADC_Adc.c ****     interruptState = CyEnterCriticalSection();
 313:Generated_Source\PSoC4/ADC_Adc.c ****     newRegValue = CY_GET_REG32(ADC_SW_BYP_SEL_PTR);
 314:Generated_Source\PSoC4/ADC_Adc.c ****     newRegValue |= ADC_SW_BYP_DEFAULT;
 315:Generated_Source\PSoC4/ADC_Adc.c ****     CY_SET_REG32(ADC_SW_BYP_SEL_PTR, newRegValue);
 316:Generated_Source\PSoC4/ADC_Adc.c ****     CyExitCriticalSection(interruptState);
 317:Generated_Source\PSoC4/ADC_Adc.c **** 
 318:Generated_Source\PSoC4/ADC_Adc.c ****     /* Config RefGen */
 319:Generated_Source\PSoC4/ADC_Adc.c ****     #if (ADC_CYDEV_VDDA_MV < ADC_LVTHRESH)
 320:Generated_Source\PSoC4/ADC_Adc.c ****         /* The routing of the HS_N and AMUXBUF switches depend on RefGen */
 321:Generated_Source\PSoC4/ADC_Adc.c ****         CY_SET_REG32(ADC_REFGEN_PTR, ADC_REFGEN_LV);
 322:Generated_Source\PSoC4/ADC_Adc.c ****         CY_SET_REG32(ADC_SW_AMUXBUF_SEL_PTR, ADC_SW_AMUBUF_LV);
 323:Generated_Source\PSoC4/ADC_Adc.c ****         CY_SET_REG32(ADC_AMBUF_PTR, ADC_AMBUF_LV);
 324:Generated_Source\PSoC4/ADC_Adc.c ****     #else
 325:Generated_Source\PSoC4/ADC_Adc.c ****         CY_SET_REG32(ADC_REFGEN_PTR, ADC_REFGEN_NORM);
 326:Generated_Source\PSoC4/ADC_Adc.c ****         CY_SET_REG32(ADC_SW_AMUXBUF_SEL_PTR, ADC_SW_AMUBUF_NORM);
 327:Generated_Source\PSoC4/ADC_Adc.c ****     #endif /* ADC__CYDEV_VDDA_MV < ADC_LVTHRESH */
 328:Generated_Source\PSoC4/ADC_Adc.c ****     
 329:Generated_Source\PSoC4/ADC_Adc.c ****     /* Configure HSCOMP */
 330:Generated_Source\PSoC4/ADC_Adc.c ****     CY_SET_REG32(ADC_HSCMP_PTR, ADC_HSCMP_AZ_DEFAULT);
 331:Generated_Source\PSoC4/ADC_Adc.c **** 
 332:Generated_Source\PSoC4/ADC_Adc.c ****     /* Clear all pending interrupts of CSD block */
 333:Generated_Source\PSoC4/ADC_Adc.c ****     CY_SET_REG32(ADC_INTR_PTR, ADC_INTR_ALL_MASK);
 334:Generated_Source\PSoC4/ADC_Adc.c ****     
 335:Generated_Source\PSoC4/ADC_Adc.c ****     /* Mask all CSD block interrupts (disable all interrupts) */
 336:Generated_Source\PSoC4/ADC_Adc.c ****     CY_SET_REG32(ADC_INTR_MASK_PTR, ADC_INTR_MASK_CLEAR_MASK);
 337:Generated_Source\PSoC4/ADC_Adc.c **** 
 338:Generated_Source\PSoC4/ADC_Adc.c ****     /* Set the ISR vector */
 339:Generated_Source\PSoC4/ADC_Adc.c ****     ADC_ISR_StartEx(&ADC_IntrHandler);
 340:Generated_Source\PSoC4/ADC_Adc.c **** 
 341:Generated_Source\PSoC4/ADC_Adc.c ****     /* Component is initialized */
ARM GAS  C:\Users\ADMIN\AppData\Local\Temp\ccekpMqd.s 			page 12


 342:Generated_Source\PSoC4/ADC_Adc.c ****     ADC_initVar = ADC_INIT_DONE;
 343:Generated_Source\PSoC4/ADC_Adc.c **** }
 344:Generated_Source\PSoC4/ADC_Adc.c **** 
 345:Generated_Source\PSoC4/ADC_Adc.c **** 
 346:Generated_Source\PSoC4/ADC_Adc.c **** /*******************************************************************************
 347:Generated_Source\PSoC4/ADC_Adc.c **** * Function Name: ADC_StartAdcFSM
 348:Generated_Source\PSoC4/ADC_Adc.c **** ****************************************************************************//**
 349:Generated_Source\PSoC4/ADC_Adc.c **** *
 350:Generated_Source\PSoC4/ADC_Adc.c **** * \brief
 351:Generated_Source\PSoC4/ADC_Adc.c **** *   Starts the CSD state machine with correct parameters to initialize an ADC
 352:Generated_Source\PSoC4/ADC_Adc.c **** *   conversion.
 353:Generated_Source\PSoC4/ADC_Adc.c **** *
 354:Generated_Source\PSoC4/ADC_Adc.c **** * \details
 355:Generated_Source\PSoC4/ADC_Adc.c **** *   Starts the CSD state machine with correct parameters to initialize an ADC
 356:Generated_Source\PSoC4/ADC_Adc.c **** *   conversion.
 357:Generated_Source\PSoC4/ADC_Adc.c **** *
 358:Generated_Source\PSoC4/ADC_Adc.c **** * \param measureMode The FSM mode:
 359:Generated_Source\PSoC4/ADC_Adc.c **** *        - (0) ADC_MEASMODE_OFF
 360:Generated_Source\PSoC4/ADC_Adc.c **** *        - (1) ADC_MEASMODE_VREF
 361:Generated_Source\PSoC4/ADC_Adc.c **** *        - (2) ADC_MEASMODE_VREFBY2
 362:Generated_Source\PSoC4/ADC_Adc.c **** *        - (3) ADC_MEASMODE_VIN
 363:Generated_Source\PSoC4/ADC_Adc.c **** *
 364:Generated_Source\PSoC4/ADC_Adc.c **** *******************************************************************************/
 365:Generated_Source\PSoC4/ADC_Adc.c **** void ADC_StartAdcFSM(uint32 measureMode)
 366:Generated_Source\PSoC4/ADC_Adc.c **** {
 287              		.loc 1 366 0
 288              		.cfi_startproc
 289              		@ args = 0, pretend = 0, frame = 0
 290              		@ frame_needed = 0, uses_anonymous_args = 0
 291              		@ link register save eliminated.
 292              	.LVL33:
 367:Generated_Source\PSoC4/ADC_Adc.c ****     uint32 tmpStartVal;
 368:Generated_Source\PSoC4/ADC_Adc.c **** 
 369:Generated_Source\PSoC4/ADC_Adc.c ****     /* Set the mode and acquisition time */
 370:Generated_Source\PSoC4/ADC_Adc.c ****     CY_SET_REG32(ADC_ADC_CTL_PTR, (measureMode | (ADC_ACQUISITION_BASE - 1u)));
 293              		.loc 1 370 0
 294 0000 3B23     		movs	r3, #59
 295 0002 0343     		orrs	r3, r0
 296 0004 084A     		ldr	r2, .L17
 297 0006 1360     		str	r3, [r2]
 371:Generated_Source\PSoC4/ADC_Adc.c **** 
 372:Generated_Source\PSoC4/ADC_Adc.c ****     if(ADC_MEASMODE_VREF == measureMode)
 298              		.loc 1 372 0
 299 0008 8023     		movs	r3, #128
 300 000a 5B02     		lsls	r3, r3, #9
 301 000c 9842     		cmp	r0, r3
 302 000e 03D0     		beq	.L15
 373:Generated_Source\PSoC4/ADC_Adc.c ****     {
 374:Generated_Source\PSoC4/ADC_Adc.c ****         tmpStartVal =
 375:Generated_Source\PSoC4/ADC_Adc.c ****             ADC_FSMSETTING_AZSKIP_DEFAULT    |
 376:Generated_Source\PSoC4/ADC_Adc.c ****             ADC_FSMSETTING_DSIIGNORE   |
 377:Generated_Source\PSoC4/ADC_Adc.c ****             ADC_FSMSETTING_NOABORT     |
 378:Generated_Source\PSoC4/ADC_Adc.c ****             ADC_FSMSETTING_SEQMODE     |
 379:Generated_Source\PSoC4/ADC_Adc.c ****             ADC_FSMSETTING_START;
 380:Generated_Source\PSoC4/ADC_Adc.c ****     }
 381:Generated_Source\PSoC4/ADC_Adc.c ****     else if (ADC_MEASMODE_OFF == measureMode)
 303              		.loc 1 381 0
ARM GAS  C:\Users\ADMIN\AppData\Local\Temp\ccekpMqd.s 			page 13


 304 0010 0028     		cmp	r0, #0
 305 0012 04D1     		bne	.L16
 382:Generated_Source\PSoC4/ADC_Adc.c ****     {
 383:Generated_Source\PSoC4/ADC_Adc.c ****         tmpStartVal = ADC_FSMSETTING_ABORT;
 306              		.loc 1 383 0
 307 0014 0822     		movs	r2, #8
 308 0016 04E0     		b	.L14
 309              	.L15:
 374:Generated_Source\PSoC4/ADC_Adc.c ****             ADC_FSMSETTING_AZSKIP_DEFAULT    |
 310              		.loc 1 374 0
 311 0018 0222     		movs	r2, #2
 312 001a FF32     		adds	r2, r2, #255
 313 001c 01E0     		b	.L14
 314              	.L16:
 384:Generated_Source\PSoC4/ADC_Adc.c ****     }
 385:Generated_Source\PSoC4/ADC_Adc.c ****     /* This setting is used for both MEASMODE_VREFBY2 and MEASMODE_VIN */
 386:Generated_Source\PSoC4/ADC_Adc.c ****     else
 387:Generated_Source\PSoC4/ADC_Adc.c ****     {
 388:Generated_Source\PSoC4/ADC_Adc.c ****         tmpStartVal =
 315              		.loc 1 388 0
 316 001e 0222     		movs	r2, #2
 317 0020 FF32     		adds	r2, r2, #255
 318              	.L14:
 319              	.LVL34:
 389:Generated_Source\PSoC4/ADC_Adc.c ****             ADC_FSMSETTING_AZSKIP_DEFAULT    |
 390:Generated_Source\PSoC4/ADC_Adc.c ****             ADC_FSMSETTING_DSIIGNORE   |
 391:Generated_Source\PSoC4/ADC_Adc.c ****             ADC_FSMSETTING_NOABORT     |
 392:Generated_Source\PSoC4/ADC_Adc.c ****             ADC_FSMSETTING_SEQMODE     |
 393:Generated_Source\PSoC4/ADC_Adc.c ****             ADC_FSMSETTING_START;
 394:Generated_Source\PSoC4/ADC_Adc.c ****     }
 395:Generated_Source\PSoC4/ADC_Adc.c **** 
 396:Generated_Source\PSoC4/ADC_Adc.c ****     /* Enable HSComp */
 397:Generated_Source\PSoC4/ADC_Adc.c ****     CY_SET_REG32(ADC_SEQ_START_PTR, tmpStartVal);
 320              		.loc 1 397 0
 321 0022 024B     		ldr	r3, .L17+4
 322 0024 1A60     		str	r2, [r3]
 398:Generated_Source\PSoC4/ADC_Adc.c **** }
 323              		.loc 1 398 0
 324              		@ sp needed
 325 0026 7047     		bx	lr
 326              	.L18:
 327              		.align	2
 328              	.L17:
 329 0028 20030B40 		.word	1074463520
 330 002c 40030B40 		.word	1074463552
 331              		.cfi_endproc
 332              	.LFE7:
 333              		.size	ADC_StartAdcFSM, .-ADC_StartAdcFSM
 334              		.section	.text.ADC_IsBusy,"ax",%progbits
 335              		.align	2
 336              		.global	ADC_IsBusy
 337              		.code	16
 338              		.thumb_func
 339              		.type	ADC_IsBusy, %function
 340              	ADC_IsBusy:
 341              	.LFB11:
 399:Generated_Source\PSoC4/ADC_Adc.c **** 
ARM GAS  C:\Users\ADMIN\AppData\Local\Temp\ccekpMqd.s 			page 14


 400:Generated_Source\PSoC4/ADC_Adc.c **** /*******************************************************************************
 401:Generated_Source\PSoC4/ADC_Adc.c **** * Function Name: ADC_AdcCaptureResources
 402:Generated_Source\PSoC4/ADC_Adc.c **** ****************************************************************************//**
 403:Generated_Source\PSoC4/ADC_Adc.c **** *
 404:Generated_Source\PSoC4/ADC_Adc.c **** * \brief
 405:Generated_Source\PSoC4/ADC_Adc.c **** *   Releases CSD resources from sensing mode, and sets it into ADC mode.
 406:Generated_Source\PSoC4/ADC_Adc.c **** *
 407:Generated_Source\PSoC4/ADC_Adc.c **** * \details
 408:Generated_Source\PSoC4/ADC_Adc.c **** *   Releases CSD resources from sensing mode, and sets it into ADC mode.
 409:Generated_Source\PSoC4/ADC_Adc.c **** *
 410:Generated_Source\PSoC4/ADC_Adc.c **** * \return     The function returns cystatus of its operation.
 411:Generated_Source\PSoC4/ADC_Adc.c **** *   - CYRET_LOCKED  - The sensing hardware is in-use and could not be released.
 412:Generated_Source\PSoC4/ADC_Adc.c **** *   - CYRET_SUCCESS - Block is configured for ADC use.
 413:Generated_Source\PSoC4/ADC_Adc.c **** *
 414:Generated_Source\PSoC4/ADC_Adc.c **** *******************************************************************************/
 415:Generated_Source\PSoC4/ADC_Adc.c **** cystatus ADC_AdcCaptureResources(void)
 416:Generated_Source\PSoC4/ADC_Adc.c **** {
 417:Generated_Source\PSoC4/ADC_Adc.c ****     cystatus tmpStatus = CYRET_SUCCESS;
 418:Generated_Source\PSoC4/ADC_Adc.c **** 
 419:Generated_Source\PSoC4/ADC_Adc.c ****     #if !(ADC_ENABLE == ADC_ADC_STANDALONE_EN)
 420:Generated_Source\PSoC4/ADC_Adc.c ****         tmpStatus = ADC_SsReleaseResources();
 421:Generated_Source\PSoC4/ADC_Adc.c **** 
 422:Generated_Source\PSoC4/ADC_Adc.c ****         if (ADC_INIT_NEEDED == ADC_initVar)
 423:Generated_Source\PSoC4/ADC_Adc.c ****         {
 424:Generated_Source\PSoC4/ADC_Adc.c ****             if(CYRET_SUCCESS == tmpStatus)
 425:Generated_Source\PSoC4/ADC_Adc.c ****             {
 426:Generated_Source\PSoC4/ADC_Adc.c ****                 ADC_ConfigAdcResources();
 427:Generated_Source\PSoC4/ADC_Adc.c ****             }
 428:Generated_Source\PSoC4/ADC_Adc.c ****             else
 429:Generated_Source\PSoC4/ADC_Adc.c ****             {
 430:Generated_Source\PSoC4/ADC_Adc.c ****                 tmpStatus = CYRET_LOCKED;
 431:Generated_Source\PSoC4/ADC_Adc.c ****             }
 432:Generated_Source\PSoC4/ADC_Adc.c ****         }
 433:Generated_Source\PSoC4/ADC_Adc.c ****     #else
 434:Generated_Source\PSoC4/ADC_Adc.c ****         if (ADC_INIT_NEEDED == ADC_initVar)
 435:Generated_Source\PSoC4/ADC_Adc.c ****         {
 436:Generated_Source\PSoC4/ADC_Adc.c ****             ADC_ConfigAdcResources();
 437:Generated_Source\PSoC4/ADC_Adc.c ****         }
 438:Generated_Source\PSoC4/ADC_Adc.c ****     #endif /* !(ADC_ENABLE == ADC_ADC_STANDALONE_EN) */
 439:Generated_Source\PSoC4/ADC_Adc.c **** 
 440:Generated_Source\PSoC4/ADC_Adc.c ****     return tmpStatus;
 441:Generated_Source\PSoC4/ADC_Adc.c **** }
 442:Generated_Source\PSoC4/ADC_Adc.c **** 
 443:Generated_Source\PSoC4/ADC_Adc.c **** 
 444:Generated_Source\PSoC4/ADC_Adc.c **** /*******************************************************************************
 445:Generated_Source\PSoC4/ADC_Adc.c **** * Function Name: ADC_AdcReleaseResources
 446:Generated_Source\PSoC4/ADC_Adc.c **** ****************************************************************************//**
 447:Generated_Source\PSoC4/ADC_Adc.c **** *
 448:Generated_Source\PSoC4/ADC_Adc.c **** * \brief
 449:Generated_Source\PSoC4/ADC_Adc.c **** *   Releases CSD resources from ADC mode.
 450:Generated_Source\PSoC4/ADC_Adc.c **** *
 451:Generated_Source\PSoC4/ADC_Adc.c **** * \details
 452:Generated_Source\PSoC4/ADC_Adc.c **** *   Releases CSD resources from ADC mode.
 453:Generated_Source\PSoC4/ADC_Adc.c **** *
 454:Generated_Source\PSoC4/ADC_Adc.c **** * \return     The function returns cystatus of its operation.
 455:Generated_Source\PSoC4/ADC_Adc.c **** *   CYRET_SUCCESS   Block resources no longer in use.
 456:Generated_Source\PSoC4/ADC_Adc.c **** *
ARM GAS  C:\Users\ADMIN\AppData\Local\Temp\ccekpMqd.s 			page 15


 457:Generated_Source\PSoC4/ADC_Adc.c **** *******************************************************************************/
 458:Generated_Source\PSoC4/ADC_Adc.c **** cystatus ADC_AdcReleaseResources(void)
 459:Generated_Source\PSoC4/ADC_Adc.c **** {
 460:Generated_Source\PSoC4/ADC_Adc.c ****     uint8  interruptState;
 461:Generated_Source\PSoC4/ADC_Adc.c ****     uint32 newRegValue;
 462:Generated_Source\PSoC4/ADC_Adc.c **** 
 463:Generated_Source\PSoC4/ADC_Adc.c ****     if (ADC_INIT_DONE == ADC_initVar)
 464:Generated_Source\PSoC4/ADC_Adc.c ****     {
 465:Generated_Source\PSoC4/ADC_Adc.c ****         /* If the FSM is running, shut it down. */
 466:Generated_Source\PSoC4/ADC_Adc.c ****         if(ADC_STATUS_IDLE != (ADC_dsRam.adcStatus
 467:Generated_Source\PSoC4/ADC_Adc.c ****                             & ADC_STATUS_FSM_MASK))
 468:Generated_Source\PSoC4/ADC_Adc.c ****         {
 469:Generated_Source\PSoC4/ADC_Adc.c ****             ADC_StartAdcFSM(ADC_MEASMODE_OFF);
 470:Generated_Source\PSoC4/ADC_Adc.c ****             ADC_SetAdcChannel((ADC_dsRam.adcStatus
 471:Generated_Source\PSoC4/ADC_Adc.c ****                             & (uint8)(ADC_STATUS_LASTCHAN_MASK)),
 472:Generated_Source\PSoC4/ADC_Adc.c ****                             ADC_CHAN_DISCONNECT);
 473:Generated_Source\PSoC4/ADC_Adc.c ****             ADC_dsRam.adcStatus = ADC_STATUS_IDLE;
 474:Generated_Source\PSoC4/ADC_Adc.c ****         }
 475:Generated_Source\PSoC4/ADC_Adc.c **** 
 476:Generated_Source\PSoC4/ADC_Adc.c ****         /* Disable the subblocks. */
 477:Generated_Source\PSoC4/ADC_Adc.c ****         CY_SET_REG32(ADC_IDACB_PTR, 0u);
 478:Generated_Source\PSoC4/ADC_Adc.c ****         CY_SET_REG32(ADC_REFGEN_PTR, 0u);
 479:Generated_Source\PSoC4/ADC_Adc.c ****         CY_SET_REG32(ADC_AMBUF_PTR, 0u);
 480:Generated_Source\PSoC4/ADC_Adc.c ****         CY_SET_REG32(ADC_HSCMP_PTR, 0u);
 481:Generated_Source\PSoC4/ADC_Adc.c **** 
 482:Generated_Source\PSoC4/ADC_Adc.c ****         /* Reset the block-level routing */
 483:Generated_Source\PSoC4/ADC_Adc.c ****         CY_SET_REG32(ADC_SW_HS_P_SEL_PTR, 0u);
 484:Generated_Source\PSoC4/ADC_Adc.c ****         CY_SET_REG32(ADC_SW_HS_N_SEL_PTR, 0u);
 485:Generated_Source\PSoC4/ADC_Adc.c ****         CY_SET_REG32(ADC_SW_SHIELD_SEL_PTR, 0u);
 486:Generated_Source\PSoC4/ADC_Adc.c ****         CY_SET_REG32(ADC_SW_CMP_P_SEL_PTR, 0u);
 487:Generated_Source\PSoC4/ADC_Adc.c ****         CY_SET_REG32(ADC_SW_CMP_N_SEL_PTR, 0u);
 488:Generated_Source\PSoC4/ADC_Adc.c ****         CY_SET_REG32(ADC_SW_FW_MOD_SEL_PTR, 0u);
 489:Generated_Source\PSoC4/ADC_Adc.c ****         CY_SET_REG32(ADC_SW_FW_TANK_SEL_PTR, 0u);
 490:Generated_Source\PSoC4/ADC_Adc.c **** 
 491:Generated_Source\PSoC4/ADC_Adc.c ****         interruptState = CyEnterCriticalSection();
 492:Generated_Source\PSoC4/ADC_Adc.c ****         newRegValue = CY_GET_REG32(ADC_SW_BYP_SEL_PTR);
 493:Generated_Source\PSoC4/ADC_Adc.c ****         newRegValue &= (uint32)(~ADC_SW_BYP_DEFAULT);
 494:Generated_Source\PSoC4/ADC_Adc.c ****         CY_SET_REG32(ADC_SW_BYP_SEL_PTR, newRegValue);
 495:Generated_Source\PSoC4/ADC_Adc.c ****         CyExitCriticalSection(interruptState);
 496:Generated_Source\PSoC4/ADC_Adc.c **** 
 497:Generated_Source\PSoC4/ADC_Adc.c ****          /* Disconnect all ADC channels */
 498:Generated_Source\PSoC4/ADC_Adc.c ****         ADC_ClearAdcChannels();
 499:Generated_Source\PSoC4/ADC_Adc.c **** 
 500:Generated_Source\PSoC4/ADC_Adc.c ****         ADC_initVar = ADC_INIT_NEEDED;
 501:Generated_Source\PSoC4/ADC_Adc.c ****     }
 502:Generated_Source\PSoC4/ADC_Adc.c **** 
 503:Generated_Source\PSoC4/ADC_Adc.c ****     return CYRET_SUCCESS;
 504:Generated_Source\PSoC4/ADC_Adc.c **** }
 505:Generated_Source\PSoC4/ADC_Adc.c **** 
 506:Generated_Source\PSoC4/ADC_Adc.c **** 
 507:Generated_Source\PSoC4/ADC_Adc.c **** /*******************************************************************************
 508:Generated_Source\PSoC4/ADC_Adc.c **** * Function Name: ADC_StartConvert
 509:Generated_Source\PSoC4/ADC_Adc.c **** ****************************************************************************//**
 510:Generated_Source\PSoC4/ADC_Adc.c **** *
 511:Generated_Source\PSoC4/ADC_Adc.c **** * \brief
 512:Generated_Source\PSoC4/ADC_Adc.c **** *  Initializes the hardware and initiates an analog-to-digital conversion on the
 513:Generated_Source\PSoC4/ADC_Adc.c **** *  selected input channel.
ARM GAS  C:\Users\ADMIN\AppData\Local\Temp\ccekpMqd.s 			page 16


 514:Generated_Source\PSoC4/ADC_Adc.c **** *
 515:Generated_Source\PSoC4/ADC_Adc.c **** * \details
 516:Generated_Source\PSoC4/ADC_Adc.c **** *  Initializes the hardware and initiates an analog-to-digital conversion on the
 517:Generated_Source\PSoC4/ADC_Adc.c **** *  selected input channel. This API only initiates a conversion and does not
 518:Generated_Source\PSoC4/ADC_Adc.c **** *  wait for the conversion to be completed, therefore the
 519:Generated_Source\PSoC4/ADC_Adc.c **** *  ADC_IsBusy() API must be used to check the
 520:Generated_Source\PSoC4/ADC_Adc.c **** *  status and ensure that the conversion is complete prior to reading the result,
 521:Generated_Source\PSoC4/ADC_Adc.c **** *  starting a new conversion with the same or a different channel, or reconfiguring
 522:Generated_Source\PSoC4/ADC_Adc.c **** *  the hardware for different functionality.
 523:Generated_Source\PSoC4/ADC_Adc.c **** *
 524:Generated_Source\PSoC4/ADC_Adc.c **** * \param chId
 525:Generated_Source\PSoC4/ADC_Adc.c **** *  The ID of the channel to be converted.
 526:Generated_Source\PSoC4/ADC_Adc.c **** *
 527:Generated_Source\PSoC4/ADC_Adc.c **** * \return 
 528:Generated_Source\PSoC4/ADC_Adc.c **** *  The function returns cystatus of its operation.
 529:Generated_Source\PSoC4/ADC_Adc.c **** *    - CYRET_SUCCESS - A conversion has started.
 530:Generated_Source\PSoC4/ADC_Adc.c **** *    - CYRET_LOCKED - The hardware is already in-use by a previously initialized
 531:Generated_Source\PSoC4/ADC_Adc.c **** *      conversion or other functionality. No new conversion is started by this API.
 532:Generated_Source\PSoC4/ADC_Adc.c **** *    - CYRET_BAD_PARAM - An invalid channel Id. No conversion is started.
 533:Generated_Source\PSoC4/ADC_Adc.c **** *
 534:Generated_Source\PSoC4/ADC_Adc.c **** *******************************************************************************/
 535:Generated_Source\PSoC4/ADC_Adc.c **** cystatus ADC_StartConvert(uint8 chId)
 536:Generated_Source\PSoC4/ADC_Adc.c **** {
 537:Generated_Source\PSoC4/ADC_Adc.c ****     uint32 tmpStatus = CYRET_SUCCESS;
 538:Generated_Source\PSoC4/ADC_Adc.c **** 
 539:Generated_Source\PSoC4/ADC_Adc.c ****     /* If non-standalone ADC, try to Capture resources */
 540:Generated_Source\PSoC4/ADC_Adc.c ****     #if (ADC_ENABLE != ADC_ADC_STANDALONE_EN)
 541:Generated_Source\PSoC4/ADC_Adc.c ****         tmpStatus = ADC_AdcCaptureResources();
 542:Generated_Source\PSoC4/ADC_Adc.c **** 
 543:Generated_Source\PSoC4/ADC_Adc.c ****         if (CYRET_SUCCESS == tmpStatus)
 544:Generated_Source\PSoC4/ADC_Adc.c ****         {
 545:Generated_Source\PSoC4/ADC_Adc.c ****     #else /* Otherwise, configure resources if needed. */
 546:Generated_Source\PSoC4/ADC_Adc.c ****         if (ADC_INIT_NEEDED == ADC_initVar)
 547:Generated_Source\PSoC4/ADC_Adc.c ****         {
 548:Generated_Source\PSoC4/ADC_Adc.c ****             ADC_ConfigAdcResources();
 549:Generated_Source\PSoC4/ADC_Adc.c ****         }
 550:Generated_Source\PSoC4/ADC_Adc.c ****     #endif /* (ADC_ENABLE != ADC_ADC_STANDALONE_EN) */
 551:Generated_Source\PSoC4/ADC_Adc.c **** 
 552:Generated_Source\PSoC4/ADC_Adc.c ****     if(chId >= ADC_ADC_TOTAL_CHANNELS)
 553:Generated_Source\PSoC4/ADC_Adc.c ****     {
 554:Generated_Source\PSoC4/ADC_Adc.c ****         tmpStatus = CYRET_BAD_PARAM;
 555:Generated_Source\PSoC4/ADC_Adc.c ****     }
 556:Generated_Source\PSoC4/ADC_Adc.c ****     
 557:Generated_Source\PSoC4/ADC_Adc.c ****     if (CYRET_SUCCESS == tmpStatus)
 558:Generated_Source\PSoC4/ADC_Adc.c ****     {
 559:Generated_Source\PSoC4/ADC_Adc.c ****         if(ADC_STATUS_IDLE != (ADC_dsRam.adcStatus & ADC_STATUS_FSM_MASK))
 560:Generated_Source\PSoC4/ADC_Adc.c ****         {
 561:Generated_Source\PSoC4/ADC_Adc.c ****             tmpStatus = CYRET_LOCKED;
 562:Generated_Source\PSoC4/ADC_Adc.c ****         }
 563:Generated_Source\PSoC4/ADC_Adc.c **** 
 564:Generated_Source\PSoC4/ADC_Adc.c ****         if(CYRET_SUCCESS == tmpStatus)
 565:Generated_Source\PSoC4/ADC_Adc.c ****         {
 566:Generated_Source\PSoC4/ADC_Adc.c ****             #if(ADC_ADC_ANALOG_STARTUP_DELAY_US > 0uL)
 567:Generated_Source\PSoC4/ADC_Adc.c ****                 CyDelayUs(ADC_ADC_ANALOG_STARTUP_DELAY_US);
 568:Generated_Source\PSoC4/ADC_Adc.c ****             #endif /* (ADC_ADC_ANALOG_STARTUP_DELAY_US > 0uL) */
 569:Generated_Source\PSoC4/ADC_Adc.c **** 
 570:Generated_Source\PSoC4/ADC_Adc.c ****             /* Set Component Status */
ARM GAS  C:\Users\ADMIN\AppData\Local\Temp\ccekpMqd.s 			page 17


 571:Generated_Source\PSoC4/ADC_Adc.c ****             ADC_dsRam.adcStatus = (ADC_STATUS_CONVERTING | chId);
 572:Generated_Source\PSoC4/ADC_Adc.c **** 
 573:Generated_Source\PSoC4/ADC_Adc.c ****             /* Configure a desired channel if needed */
 574:Generated_Source\PSoC4/ADC_Adc.c ****             if (chId != ADC_dsRam.adcActiveCh)
 575:Generated_Source\PSoC4/ADC_Adc.c ****             {
 576:Generated_Source\PSoC4/ADC_Adc.c ****                 if (ADC_NO_CHANNEL != ADC_dsRam.adcActiveCh)
 577:Generated_Source\PSoC4/ADC_Adc.c ****                 {
 578:Generated_Source\PSoC4/ADC_Adc.c ****                     /* Disconnect existing channel */
 579:Generated_Source\PSoC4/ADC_Adc.c ****                     ADC_SetAdcChannel(ADC_dsRam.adcActiveCh, ADC_CHAN_DISCONNECT);
 580:Generated_Source\PSoC4/ADC_Adc.c ****                 }
 581:Generated_Source\PSoC4/ADC_Adc.c ****                 /* Connect desired input */
 582:Generated_Source\PSoC4/ADC_Adc.c ****                 ADC_SetAdcChannel(chId, ADC_CHAN_CONNECT);
 583:Generated_Source\PSoC4/ADC_Adc.c ****                 ADC_dsRam.adcActiveCh = chId;
 584:Generated_Source\PSoC4/ADC_Adc.c ****             }
 585:Generated_Source\PSoC4/ADC_Adc.c **** 
 586:Generated_Source\PSoC4/ADC_Adc.c ****             /* Un-mask ADC_RES interrupt (enable interrupt) */
 587:Generated_Source\PSoC4/ADC_Adc.c ****             CY_SET_REG32(ADC_INTR_MASK_PTR, ADC_INTR_MASK_ADC_RES_MASK);
 588:Generated_Source\PSoC4/ADC_Adc.c ****             ADC_StartAdcFSM(ADC_MEASMODE_VIN);
 589:Generated_Source\PSoC4/ADC_Adc.c ****         }
 590:Generated_Source\PSoC4/ADC_Adc.c ****     }
 591:Generated_Source\PSoC4/ADC_Adc.c ****     
 592:Generated_Source\PSoC4/ADC_Adc.c ****     #if (ADC_ENABLE != ADC_ADC_STANDALONE_EN)
 593:Generated_Source\PSoC4/ADC_Adc.c ****         }
 594:Generated_Source\PSoC4/ADC_Adc.c ****     #endif /* (ADC_ENABLE != ADC_ADC_STANDALONE_EN) */
 595:Generated_Source\PSoC4/ADC_Adc.c ****     
 596:Generated_Source\PSoC4/ADC_Adc.c ****     return tmpStatus;
 597:Generated_Source\PSoC4/ADC_Adc.c **** }
 598:Generated_Source\PSoC4/ADC_Adc.c **** 
 599:Generated_Source\PSoC4/ADC_Adc.c **** 
 600:Generated_Source\PSoC4/ADC_Adc.c **** /*******************************************************************************
 601:Generated_Source\PSoC4/ADC_Adc.c **** * Function Name: ADC_IsBusy
 602:Generated_Source\PSoC4/ADC_Adc.c **** ****************************************************************************//**
 603:Generated_Source\PSoC4/ADC_Adc.c **** *
 604:Generated_Source\PSoC4/ADC_Adc.c **** * \brief
 605:Generated_Source\PSoC4/ADC_Adc.c **** *   The function returns the status of the ADC's operation.
 606:Generated_Source\PSoC4/ADC_Adc.c **** *
 607:Generated_Source\PSoC4/ADC_Adc.c **** * \details
 608:Generated_Source\PSoC4/ADC_Adc.c **** *   The function returns the status of the ADC's operation. A new conversion or
 609:Generated_Source\PSoC4/ADC_Adc.c **** *   calibration must not be started unless the ADC is in the IDLE state.
 610:Generated_Source\PSoC4/ADC_Adc.c **** *
 611:Generated_Source\PSoC4/ADC_Adc.c **** * \return
 612:Generated_Source\PSoC4/ADC_Adc.c **** *  The function returns the status of the ADC's operation.
 613:Generated_Source\PSoC4/ADC_Adc.c **** *    - ADC_STATUS_IDLE - The ADC is not busy,
 614:Generated_Source\PSoC4/ADC_Adc.c **** *       a new conversion can be initiated.
 615:Generated_Source\PSoC4/ADC_Adc.c **** *    - ADC_STATUS_CONVERTING - A previously
 616:Generated_Source\PSoC4/ADC_Adc.c **** *       initiated conversion is in progress.
 617:Generated_Source\PSoC4/ADC_Adc.c **** *    - ADC_STATUS_CALIBPH1 - The ADC is in the
 618:Generated_Source\PSoC4/ADC_Adc.c **** *      first phase (of 3) of calibration.
 619:Generated_Source\PSoC4/ADC_Adc.c **** *    - ADC_STATUS_CALIBPH2 - The ADC is in the
 620:Generated_Source\PSoC4/ADC_Adc.c **** *      second phase (of 3) of calibration.
 621:Generated_Source\PSoC4/ADC_Adc.c **** *    - ADC_STATUS_CALIBPH3 - The ADC is in the
 622:Generated_Source\PSoC4/ADC_Adc.c **** *      third phase (of 3) of calibration.
 623:Generated_Source\PSoC4/ADC_Adc.c **** *    - ADC_STATUS_OVERFLOW - The most recent
 624:Generated_Source\PSoC4/ADC_Adc.c **** *      measurement caused an overflow. The root cause of the overflow may be
 625:Generated_Source\PSoC4/ADC_Adc.c **** *      the previous calibration values being invalid or the VDDA setting in cydwr
 626:Generated_Source\PSoC4/ADC_Adc.c **** *      and hardware do not match. Perform re-calibration or set the
 627:Generated_Source\PSoC4/ADC_Adc.c **** *      appropriate VDDA value in cydwr to avoid this error condition.
ARM GAS  C:\Users\ADMIN\AppData\Local\Temp\ccekpMqd.s 			page 18


 628:Generated_Source\PSoC4/ADC_Adc.c **** *
 629:Generated_Source\PSoC4/ADC_Adc.c **** *******************************************************************************/
 630:Generated_Source\PSoC4/ADC_Adc.c **** uint8 ADC_IsBusy(void)
 631:Generated_Source\PSoC4/ADC_Adc.c **** {
 342              		.loc 1 631 0
 343              		.cfi_startproc
 344              		@ args = 0, pretend = 0, frame = 0
 345              		@ frame_needed = 0, uses_anonymous_args = 0
 346              		@ link register save eliminated.
 632:Generated_Source\PSoC4/ADC_Adc.c ****     uint8 tmpStatus;
 633:Generated_Source\PSoC4/ADC_Adc.c **** 
 634:Generated_Source\PSoC4/ADC_Adc.c ****     if (0u != (ADC_ADC_RES_REG & ADC_ADC_RES_OVERFLOW_MASK))
 347              		.loc 1 634 0
 348 0000 054B     		ldr	r3, .L22
 349 0002 1B68     		ldr	r3, [r3]
 350 0004 5B00     		lsls	r3, r3, #1
 351 0006 04D4     		bmi	.L21
 635:Generated_Source\PSoC4/ADC_Adc.c ****     {
 636:Generated_Source\PSoC4/ADC_Adc.c ****         tmpStatus = ADC_STATUS_OVERFLOW;
 637:Generated_Source\PSoC4/ADC_Adc.c ****     }
 638:Generated_Source\PSoC4/ADC_Adc.c ****     else
 639:Generated_Source\PSoC4/ADC_Adc.c ****     {
 640:Generated_Source\PSoC4/ADC_Adc.c ****         tmpStatus = (uint8)((*(volatile uint8 *)&ADC_dsRam.adcStatus) & ADC_STATUS_FSM_MASK);
 352              		.loc 1 640 0
 353 0008 044B     		ldr	r3, .L22+4
 354 000a 1879     		ldrb	r0, [r3, #4]
 355 000c 0F23     		movs	r3, #15
 356 000e 9843     		bics	r0, r3
 357              	.LVL35:
 358 0010 00E0     		b	.L20
 359              	.LVL36:
 360              	.L21:
 636:Generated_Source\PSoC4/ADC_Adc.c ****     }
 361              		.loc 1 636 0
 362 0012 8020     		movs	r0, #128
 363              	.L20:
 364              	.LVL37:
 641:Generated_Source\PSoC4/ADC_Adc.c ****     }
 642:Generated_Source\PSoC4/ADC_Adc.c **** 
 643:Generated_Source\PSoC4/ADC_Adc.c ****     return tmpStatus;
 644:Generated_Source\PSoC4/ADC_Adc.c **** }
 365              		.loc 1 644 0
 366              		@ sp needed
 367 0014 7047     		bx	lr
 368              	.L23:
 369 0016 C046     		.align	2
 370              	.L22:
 371 0018 E0000B40 		.word	1074462944
 372 001c 00000000 		.word	ADC_dsRam
 373              		.cfi_endproc
 374              	.LFE11:
 375              		.size	ADC_IsBusy, .-ADC_IsBusy
 376              		.section	.text.ADC_GetResult_mVolts,"ax",%progbits
 377              		.align	2
 378              		.global	ADC_GetResult_mVolts
 379              		.code	16
 380              		.thumb_func
ARM GAS  C:\Users\ADMIN\AppData\Local\Temp\ccekpMqd.s 			page 19


 381              		.type	ADC_GetResult_mVolts, %function
 382              	ADC_GetResult_mVolts:
 383              	.LFB13:
 645:Generated_Source\PSoC4/ADC_Adc.c **** 
 646:Generated_Source\PSoC4/ADC_Adc.c **** 
 647:Generated_Source\PSoC4/ADC_Adc.c **** /*******************************************************************************
 648:Generated_Source\PSoC4/ADC_Adc.c **** * Function Name: ADC_ReadResult_mVolts
 649:Generated_Source\PSoC4/ADC_Adc.c **** ****************************************************************************//**
 650:Generated_Source\PSoC4/ADC_Adc.c **** *
 651:Generated_Source\PSoC4/ADC_Adc.c **** * \brief
 652:Generated_Source\PSoC4/ADC_Adc.c **** *  This is a blocking API. It initiates a conversion, waits for completion and
 653:Generated_Source\PSoC4/ADC_Adc.c **** *  returns the result.
 654:Generated_Source\PSoC4/ADC_Adc.c **** *
 655:Generated_Source\PSoC4/ADC_Adc.c **** * \details
 656:Generated_Source\PSoC4/ADC_Adc.c **** *  This is a blocking API. Internally, it starts a conversion using
 657:Generated_Source\PSoC4/ADC_Adc.c **** *  ADC_StartConvert(), checks the status using
 658:Generated_Source\PSoC4/ADC_Adc.c **** *  ADC_IsBusy(), waits until the conversion is
 659:Generated_Source\PSoC4/ADC_Adc.c **** *  completed and returns the result.
 660:Generated_Source\PSoC4/ADC_Adc.c **** *
 661:Generated_Source\PSoC4/ADC_Adc.c **** * \param chId
 662:Generated_Source\PSoC4/ADC_Adc.c **** *  The ID of the channel to be measured
 663:Generated_Source\PSoC4/ADC_Adc.c **** *
 664:Generated_Source\PSoC4/ADC_Adc.c **** * \return
 665:Generated_Source\PSoC4/ADC_Adc.c **** *  The function returns voltage in millivolts or
 666:Generated_Source\PSoC4/ADC_Adc.c **** *  ADC_VALUE_BAD_RESULT if:
 667:Generated_Source\PSoC4/ADC_Adc.c **** *   - chId is invalid
 668:Generated_Source\PSoC4/ADC_Adc.c **** *   - The ADC conversion is not started
 669:Generated_Source\PSoC4/ADC_Adc.c **** *   - The ADC conversion watch-dog triggered.
 670:Generated_Source\PSoC4/ADC_Adc.c **** *
 671:Generated_Source\PSoC4/ADC_Adc.c **** *******************************************************************************/
 672:Generated_Source\PSoC4/ADC_Adc.c **** uint16 ADC_ReadResult_mVolts(uint8 chId)
 673:Generated_Source\PSoC4/ADC_Adc.c **** {
 674:Generated_Source\PSoC4/ADC_Adc.c ****     cystatus convertStatus;
 675:Generated_Source\PSoC4/ADC_Adc.c ****     uint16 tmpValue;
 676:Generated_Source\PSoC4/ADC_Adc.c ****     uint32 watchdogAdcCounter;
 677:Generated_Source\PSoC4/ADC_Adc.c **** 
 678:Generated_Source\PSoC4/ADC_Adc.c ****     convertStatus = ADC_StartConvert(chId);
 679:Generated_Source\PSoC4/ADC_Adc.c ****     if (CYRET_SUCCESS == convertStatus)
 680:Generated_Source\PSoC4/ADC_Adc.c ****     {
 681:Generated_Source\PSoC4/ADC_Adc.c ****         /* Initialize Watchdog Counter with time interval which is enough to ADC conversion is comp
 682:Generated_Source\PSoC4/ADC_Adc.c ****         watchdogAdcCounter = ADC_CAL_WATCHDOG_CYCLES_NUM;
 683:Generated_Source\PSoC4/ADC_Adc.c ****         while ((ADC_IsBusy() != ADC_STATUS_IDLE) &&
 684:Generated_Source\PSoC4/ADC_Adc.c ****                (0u != watchdogAdcCounter))
 685:Generated_Source\PSoC4/ADC_Adc.c ****         {
 686:Generated_Source\PSoC4/ADC_Adc.c ****             /* Wait until conversion complete and decrement Watchdog Counter to prevent unending lo
 687:Generated_Source\PSoC4/ADC_Adc.c ****             watchdogAdcCounter--;
 688:Generated_Source\PSoC4/ADC_Adc.c ****         }
 689:Generated_Source\PSoC4/ADC_Adc.c ****         if (0u != watchdogAdcCounter)
 690:Generated_Source\PSoC4/ADC_Adc.c ****         {
 691:Generated_Source\PSoC4/ADC_Adc.c ****             tmpValue = ADC_GetResult_mVolts(chId);
 692:Generated_Source\PSoC4/ADC_Adc.c ****         }
 693:Generated_Source\PSoC4/ADC_Adc.c ****         else
 694:Generated_Source\PSoC4/ADC_Adc.c ****         {
 695:Generated_Source\PSoC4/ADC_Adc.c ****             tmpValue = (uint16) ADC_VALUE_BAD_RESULT;
 696:Generated_Source\PSoC4/ADC_Adc.c ****         }
 697:Generated_Source\PSoC4/ADC_Adc.c ****     }
 698:Generated_Source\PSoC4/ADC_Adc.c ****     else
ARM GAS  C:\Users\ADMIN\AppData\Local\Temp\ccekpMqd.s 			page 20


 699:Generated_Source\PSoC4/ADC_Adc.c ****     {
 700:Generated_Source\PSoC4/ADC_Adc.c ****         tmpValue = (uint16) ADC_VALUE_BAD_RESULT;
 701:Generated_Source\PSoC4/ADC_Adc.c ****     }
 702:Generated_Source\PSoC4/ADC_Adc.c **** 
 703:Generated_Source\PSoC4/ADC_Adc.c ****     return tmpValue;
 704:Generated_Source\PSoC4/ADC_Adc.c **** }
 705:Generated_Source\PSoC4/ADC_Adc.c **** 
 706:Generated_Source\PSoC4/ADC_Adc.c **** 
 707:Generated_Source\PSoC4/ADC_Adc.c **** /*******************************************************************************
 708:Generated_Source\PSoC4/ADC_Adc.c **** * Function Name: ADC_GetResult_mVolts
 709:Generated_Source\PSoC4/ADC_Adc.c **** ****************************************************************************//**
 710:Generated_Source\PSoC4/ADC_Adc.c **** *
 711:Generated_Source\PSoC4/ADC_Adc.c **** * \brief
 712:Generated_Source\PSoC4/ADC_Adc.c **** *  This API does not perform an ADC conversion and returns the last valid result
 713:Generated_Source\PSoC4/ADC_Adc.c **** *  for the specified channel.
 714:Generated_Source\PSoC4/ADC_Adc.c **** *
 715:Generated_Source\PSoC4/ADC_Adc.c **** * \details
 716:Generated_Source\PSoC4/ADC_Adc.c **** *  Returns the last valid result from the data structure for the specified channel.
 717:Generated_Source\PSoC4/ADC_Adc.c **** *  This function can be used to read a previous result of any channel even if the
 718:Generated_Source\PSoC4/ADC_Adc.c **** *  ADC is busy or a conversion is in progress. However, it is highly recommended
 719:Generated_Source\PSoC4/ADC_Adc.c **** *  not to use this function with a channel that is in an active conversion.
 720:Generated_Source\PSoC4/ADC_Adc.c **** *
 721:Generated_Source\PSoC4/ADC_Adc.c **** * \param chId
 722:Generated_Source\PSoC4/ADC_Adc.c **** *  The ID of the channel to be measured
 723:Generated_Source\PSoC4/ADC_Adc.c **** *
 724:Generated_Source\PSoC4/ADC_Adc.c **** * \return
 725:Generated_Source\PSoC4/ADC_Adc.c **** *  The function returns a voltage in millivolts or
 726:Generated_Source\PSoC4/ADC_Adc.c **** *  ADC_VALUE_BAD_CHAN_ID if chId is invalid.
 727:Generated_Source\PSoC4/ADC_Adc.c **** *
 728:Generated_Source\PSoC4/ADC_Adc.c **** *******************************************************************************/
 729:Generated_Source\PSoC4/ADC_Adc.c **** uint16 ADC_GetResult_mVolts(uint8 chId)
 730:Generated_Source\PSoC4/ADC_Adc.c **** {
 384              		.loc 1 730 0
 385              		.cfi_startproc
 386              		@ args = 0, pretend = 0, frame = 0
 387              		@ frame_needed = 0, uses_anonymous_args = 0
 388              		@ link register save eliminated.
 389              	.LVL38:
 731:Generated_Source\PSoC4/ADC_Adc.c ****     uint32 tmpRetVal = ADC_VALUE_BAD_CHAN_ID;
 732:Generated_Source\PSoC4/ADC_Adc.c **** 
 733:Generated_Source\PSoC4/ADC_Adc.c ****     if(chId < ADC_ADC_TOTAL_CHANNELS)
 390              		.loc 1 733 0
 391 0000 0028     		cmp	r0, #0
 392 0002 03D1     		bne	.L26
 734:Generated_Source\PSoC4/ADC_Adc.c ****     {
 735:Generated_Source\PSoC4/ADC_Adc.c ****         tmpRetVal = ADC_dsRam.adcResult[chId];
 393              		.loc 1 735 0
 394 0004 4000     		lsls	r0, r0, #1
 395              	.LVL39:
 396 0006 034B     		ldr	r3, .L27
 397 0008 C05A     		ldrh	r0, [r0, r3]
 398              	.LVL40:
 399 000a 00E0     		b	.L25
 400              	.LVL41:
 401              	.L26:
 731:Generated_Source\PSoC4/ADC_Adc.c ****     uint32 tmpRetVal = ADC_VALUE_BAD_CHAN_ID;
 402              		.loc 1 731 0
ARM GAS  C:\Users\ADMIN\AppData\Local\Temp\ccekpMqd.s 			page 21


 403 000c 0248     		ldr	r0, .L27+4
 404              	.LVL42:
 405              	.L25:
 736:Generated_Source\PSoC4/ADC_Adc.c ****     }
 737:Generated_Source\PSoC4/ADC_Adc.c ****     return (uint16)tmpRetVal;
 406              		.loc 1 737 0
 407 000e 80B2     		uxth	r0, r0
 408              	.LVL43:
 738:Generated_Source\PSoC4/ADC_Adc.c **** }
 409              		.loc 1 738 0
 410              		@ sp needed
 411 0010 7047     		bx	lr
 412              	.L28:
 413 0012 C046     		.align	2
 414              	.L27:
 415 0014 00000000 		.word	ADC_dsRam
 416 0018 FFFF0000 		.word	65535
 417              		.cfi_endproc
 418              	.LFE13:
 419              		.size	ADC_GetResult_mVolts, .-ADC_GetResult_mVolts
 420              		.section	.text.ADC_Stop,"ax",%progbits
 421              		.align	2
 422              		.global	ADC_Stop
 423              		.code	16
 424              		.thumb_func
 425              		.type	ADC_Stop, %function
 426              	ADC_Stop:
 427              	.LFB16:
 739:Generated_Source\PSoC4/ADC_Adc.c **** 
 740:Generated_Source\PSoC4/ADC_Adc.c **** 
 741:Generated_Source\PSoC4/ADC_Adc.c **** /*******************************************************************************
 742:Generated_Source\PSoC4/ADC_Adc.c **** * Function Name: ADC_Calibrate
 743:Generated_Source\PSoC4/ADC_Adc.c **** ****************************************************************************//**
 744:Generated_Source\PSoC4/ADC_Adc.c **** *
 745:Generated_Source\PSoC4/ADC_Adc.c **** * \brief
 746:Generated_Source\PSoC4/ADC_Adc.c **** *  Performs calibration of the ADC module.
 747:Generated_Source\PSoC4/ADC_Adc.c **** *
 748:Generated_Source\PSoC4/ADC_Adc.c **** * \details
 749:Generated_Source\PSoC4/ADC_Adc.c **** *  Performs calibration for the ADC to identify the appropriate hardware configuration
 750:Generated_Source\PSoC4/ADC_Adc.c **** *  to produce accurate results. It is recommended to run the calibration
 751:Generated_Source\PSoC4/ADC_Adc.c **** *  periodically (for example every 10 seconds) for accuracy and compensations.
 752:Generated_Source\PSoC4/ADC_Adc.c **** *
 753:Generated_Source\PSoC4/ADC_Adc.c **** * \return
 754:Generated_Source\PSoC4/ADC_Adc.c **** *  The function returns cystatus of its operation.
 755:Generated_Source\PSoC4/ADC_Adc.c **** *    - CYRET_SUCCESS - The block is configured for the ADC use.
 756:Generated_Source\PSoC4/ADC_Adc.c **** *    - CYRET_LOCKED - The hardware is already in-use by a previously initialized
 757:Generated_Source\PSoC4/ADC_Adc.c **** *      conversion or other functionality. No new conversion is started by this API.
 758:Generated_Source\PSoC4/ADC_Adc.c **** *
 759:Generated_Source\PSoC4/ADC_Adc.c **** *******************************************************************************/
 760:Generated_Source\PSoC4/ADC_Adc.c **** cystatus ADC_Calibrate(void)
 761:Generated_Source\PSoC4/ADC_Adc.c **** {
 762:Generated_Source\PSoC4/ADC_Adc.c ****     uint32 tmpStatus;
 763:Generated_Source\PSoC4/ADC_Adc.c ****     uint32 watchdogAdcCounter;
 764:Generated_Source\PSoC4/ADC_Adc.c ****     uint32 tmpVrefCal;
 765:Generated_Source\PSoC4/ADC_Adc.c **** 
 766:Generated_Source\PSoC4/ADC_Adc.c ****     tmpStatus = ADC_AdcCaptureResources();
 767:Generated_Source\PSoC4/ADC_Adc.c **** 
ARM GAS  C:\Users\ADMIN\AppData\Local\Temp\ccekpMqd.s 			page 22


 768:Generated_Source\PSoC4/ADC_Adc.c ****     if(ADC_STATUS_IDLE != (ADC_dsRam.adcStatus
 769:Generated_Source\PSoC4/ADC_Adc.c ****         & ADC_STATUS_FSM_MASK))
 770:Generated_Source\PSoC4/ADC_Adc.c ****     {
 771:Generated_Source\PSoC4/ADC_Adc.c ****         tmpStatus = CYRET_LOCKED;
 772:Generated_Source\PSoC4/ADC_Adc.c ****     }
 773:Generated_Source\PSoC4/ADC_Adc.c **** 
 774:Generated_Source\PSoC4/ADC_Adc.c ****     if (CYRET_SUCCESS == tmpStatus)
 775:Generated_Source\PSoC4/ADC_Adc.c ****     {
 776:Generated_Source\PSoC4/ADC_Adc.c ****         #if(ADC_ADC_ANALOG_STARTUP_DELAY_US > 0uL)
 777:Generated_Source\PSoC4/ADC_Adc.c ****             CyDelayUs(ADC_ADC_ANALOG_STARTUP_DELAY_US);
 778:Generated_Source\PSoC4/ADC_Adc.c ****         #endif /* (ADC_ADC_ANALOG_STARTUP_DELAY_US > 0uL) */
 779:Generated_Source\PSoC4/ADC_Adc.c **** 
 780:Generated_Source\PSoC4/ADC_Adc.c ****         /* Disconnect a channel if connected */
 781:Generated_Source\PSoC4/ADC_Adc.c ****         if (ADC_NO_CHANNEL != ADC_dsRam.adcActiveCh)
 782:Generated_Source\PSoC4/ADC_Adc.c ****         {
 783:Generated_Source\PSoC4/ADC_Adc.c ****             ADC_SetAdcChannel(ADC_dsRam.adcActiveCh, ADC_CHAN_DISCONNECT);
 784:Generated_Source\PSoC4/ADC_Adc.c ****             ADC_dsRam.adcActiveCh = ADC_NO_CHANNEL;
 785:Generated_Source\PSoC4/ADC_Adc.c ****         }
 786:Generated_Source\PSoC4/ADC_Adc.c ****         
 787:Generated_Source\PSoC4/ADC_Adc.c ****         /* Get Vref trim-value */
 788:Generated_Source\PSoC4/ADC_Adc.c ****         tmpVrefCal = (uint32)CY_GET_REG8(CYREG_SFLASH_CSDV2_CSD0_ADC_TRIM1) | 
 789:Generated_Source\PSoC4/ADC_Adc.c ****             (((uint32)CY_GET_REG8(CYREG_SFLASH_CSDV2_CSD0_ADC_TRIM2)) << 8u);
 790:Generated_Source\PSoC4/ADC_Adc.c **** 
 791:Generated_Source\PSoC4/ADC_Adc.c ****         /* Update nominal Vref to real Vref */
 792:Generated_Source\PSoC4/ADC_Adc.c ****         tmpVrefCal *= ADC_ADC_VREF_MV;
 793:Generated_Source\PSoC4/ADC_Adc.c ****         tmpVrefCal /= ADC_VREFCALIB_BASE;
 794:Generated_Source\PSoC4/ADC_Adc.c **** 
 795:Generated_Source\PSoC4/ADC_Adc.c ****         ADC_adcVrefMv = (uint16)tmpVrefCal;
 796:Generated_Source\PSoC4/ADC_Adc.c **** 
 797:Generated_Source\PSoC4/ADC_Adc.c ****         ADC_dsRam.adcIdac = (uint8)ADC_ADC_IDAC_DEFAULT;
 798:Generated_Source\PSoC4/ADC_Adc.c ****         CY_SET_REG32(ADC_IDACB_PTR, ADC_IDACB_CONFIG |
 799:Generated_Source\PSoC4/ADC_Adc.c ****                                                      ADC_dsRam.adcIdac);
 800:Generated_Source\PSoC4/ADC_Adc.c **** 
 801:Generated_Source\PSoC4/ADC_Adc.c ****         ADC_dsRam.adcStatus = (ADC_STATUS_CALIBPH1);
 802:Generated_Source\PSoC4/ADC_Adc.c **** 
 803:Generated_Source\PSoC4/ADC_Adc.c ****         /* Un-mask ADC_RES interrupt (enable interrupt) */
 804:Generated_Source\PSoC4/ADC_Adc.c ****         CY_SET_REG32(ADC_INTR_MASK_PTR, ADC_INTR_MASK_ADC_RES_MASK);
 805:Generated_Source\PSoC4/ADC_Adc.c ****         ADC_StartAdcFSM(ADC_MEASMODE_VREF);
 806:Generated_Source\PSoC4/ADC_Adc.c **** 
 807:Generated_Source\PSoC4/ADC_Adc.c ****         /* Global CRC update */
 808:Generated_Source\PSoC4/ADC_Adc.c ****         #if (ADC_ENABLE == ADC_SELF_TEST_EN)
 809:Generated_Source\PSoC4/ADC_Adc.c ****             #if (ADC_ENABLE ==ADC_TST_GLOBAL_CRC_EN)
 810:Generated_Source\PSoC4/ADC_Adc.c ****                 ADC_DsUpdateGlobalCrc();
 811:Generated_Source\PSoC4/ADC_Adc.c ****             #endif /* (ADC_ENABLE == ADC_TST_GLOBAL_CRC_EN) */
 812:Generated_Source\PSoC4/ADC_Adc.c ****         #endif /* (ADC_ENABLE == ADC_SELF_TEST_EN) */
 813:Generated_Source\PSoC4/ADC_Adc.c **** 
 814:Generated_Source\PSoC4/ADC_Adc.c ****         /* Initialize Watchdog Counter with time interval which is enough to ADC calibration is com
 815:Generated_Source\PSoC4/ADC_Adc.c ****         watchdogAdcCounter = ADC_CAL_WATCHDOG_CYCLES_NUM;
 816:Generated_Source\PSoC4/ADC_Adc.c ****         while (((*(volatile uint8 *)&ADC_dsRam.adcStatus & ADC_STATUS_FSM_MASK)
 817:Generated_Source\PSoC4/ADC_Adc.c ****                 != 0u) &&  (0u != watchdogAdcCounter))
 818:Generated_Source\PSoC4/ADC_Adc.c ****         {
 819:Generated_Source\PSoC4/ADC_Adc.c ****             /* Wait until scan complete and decrement Watchdog Counter to prevent unending loop */
 820:Generated_Source\PSoC4/ADC_Adc.c ****             watchdogAdcCounter--;
 821:Generated_Source\PSoC4/ADC_Adc.c ****         }
 822:Generated_Source\PSoC4/ADC_Adc.c ****     }
 823:Generated_Source\PSoC4/ADC_Adc.c **** 
 824:Generated_Source\PSoC4/ADC_Adc.c ****     return tmpStatus;
ARM GAS  C:\Users\ADMIN\AppData\Local\Temp\ccekpMqd.s 			page 23


 825:Generated_Source\PSoC4/ADC_Adc.c **** }
 826:Generated_Source\PSoC4/ADC_Adc.c **** 
 827:Generated_Source\PSoC4/ADC_Adc.c **** 
 828:Generated_Source\PSoC4/ADC_Adc.c **** /*******************************************************************************
 829:Generated_Source\PSoC4/ADC_Adc.c **** * Function Name: ADC_Initialize
 830:Generated_Source\PSoC4/ADC_Adc.c **** ****************************************************************************//**
 831:Generated_Source\PSoC4/ADC_Adc.c **** *
 832:Generated_Source\PSoC4/ADC_Adc.c **** * \brief
 833:Generated_Source\PSoC4/ADC_Adc.c **** *   Configures the hardware to ADC mode and begins a calibration.
 834:Generated_Source\PSoC4/ADC_Adc.c **** *
 835:Generated_Source\PSoC4/ADC_Adc.c **** * \details
 836:Generated_Source\PSoC4/ADC_Adc.c **** *   Configures the hardware to ADC mode and begins a calibration.
 837:Generated_Source\PSoC4/ADC_Adc.c **** *
 838:Generated_Source\PSoC4/ADC_Adc.c **** *******************************************************************************/
 839:Generated_Source\PSoC4/ADC_Adc.c **** void ADC_Initialize(void)
 840:Generated_Source\PSoC4/ADC_Adc.c **** {
 841:Generated_Source\PSoC4/ADC_Adc.c ****     ADC_ConfigAdcResources();
 842:Generated_Source\PSoC4/ADC_Adc.c ****     (void)ADC_Calibrate();
 843:Generated_Source\PSoC4/ADC_Adc.c **** }
 844:Generated_Source\PSoC4/ADC_Adc.c **** 
 845:Generated_Source\PSoC4/ADC_Adc.c **** 
 846:Generated_Source\PSoC4/ADC_Adc.c **** /*******************************************************************************
 847:Generated_Source\PSoC4/ADC_Adc.c **** * Function Name: ADC_Stop
 848:Generated_Source\PSoC4/ADC_Adc.c **** ****************************************************************************//**
 849:Generated_Source\PSoC4/ADC_Adc.c **** *
 850:Generated_Source\PSoC4/ADC_Adc.c **** * \brief
 851:Generated_Source\PSoC4/ADC_Adc.c **** *   Disables the hardware sub-blocks that are in use while in the ADC mode,
 852:Generated_Source\PSoC4/ADC_Adc.c **** *   and frees the routing.
 853:Generated_Source\PSoC4/ADC_Adc.c **** *
 854:Generated_Source\PSoC4/ADC_Adc.c **** * \details
 855:Generated_Source\PSoC4/ADC_Adc.c **** *   This function stops the Component operation. No ADC conversion can be
 856:Generated_Source\PSoC4/ADC_Adc.c **** *   initiated when the Component is stopped. Once stopped, the hardware block
 857:Generated_Source\PSoC4/ADC_Adc.c **** *   may be reconfigured by the application program for any other special usage.
 858:Generated_Source\PSoC4/ADC_Adc.c **** *   The ADC operation can be resumed by calling the
 859:Generated_Source\PSoC4/ADC_Adc.c **** *   ADC_Resume() function or the Component can
 860:Generated_Source\PSoC4/ADC_Adc.c **** *   be reset by calling the ADC_Start() function.
 861:Generated_Source\PSoC4/ADC_Adc.c **** *   This function is called when no ADC conversion is in progress.
 862:Generated_Source\PSoC4/ADC_Adc.c **** *
 863:Generated_Source\PSoC4/ADC_Adc.c **** *******************************************************************************/
 864:Generated_Source\PSoC4/ADC_Adc.c **** void ADC_Stop(void)
 865:Generated_Source\PSoC4/ADC_Adc.c **** {
 428              		.loc 1 865 0
 429              		.cfi_startproc
 430              		@ args = 0, pretend = 0, frame = 0
 431              		@ frame_needed = 0, uses_anonymous_args = 0
 432              		@ link register save eliminated.
 866:Generated_Source\PSoC4/ADC_Adc.c ****     #if (ADC_ENABLE != ADC_ADC_STANDALONE_EN)
 867:Generated_Source\PSoC4/ADC_Adc.c ****         (void)ADC_AdcReleaseResources();
 868:Generated_Source\PSoC4/ADC_Adc.c ****     #endif /* (ADC_ENABLE != ADC_ADC_STANDALONE_EN) */
 869:Generated_Source\PSoC4/ADC_Adc.c ****     ADC_initVar = ADC_INIT_NEEDED;
 433              		.loc 1 869 0
 434 0000 0022     		movs	r2, #0
 435 0002 014B     		ldr	r3, .L30
 436 0004 1A70     		strb	r2, [r3]
 870:Generated_Source\PSoC4/ADC_Adc.c **** }
 437              		.loc 1 870 0
 438              		@ sp needed
ARM GAS  C:\Users\ADMIN\AppData\Local\Temp\ccekpMqd.s 			page 24


 439 0006 7047     		bx	lr
 440              	.L31:
 441              		.align	2
 442              	.L30:
 443 0008 00000000 		.word	.LANCHOR0
 444              		.cfi_endproc
 445              	.LFE16:
 446              		.size	ADC_Stop, .-ADC_Stop
 447              		.section	.text.ADC_ClearAdcChannels,"ax",%progbits
 448              		.align	2
 449              		.global	ADC_ClearAdcChannels
 450              		.code	16
 451              		.thumb_func
 452              		.type	ADC_ClearAdcChannels, %function
 453              	ADC_ClearAdcChannels:
 454              	.LFB18:
 871:Generated_Source\PSoC4/ADC_Adc.c **** 
 872:Generated_Source\PSoC4/ADC_Adc.c **** 
 873:Generated_Source\PSoC4/ADC_Adc.c **** /*******************************************************************************
 874:Generated_Source\PSoC4/ADC_Adc.c **** * Function Name: ADC_Resume
 875:Generated_Source\PSoC4/ADC_Adc.c **** ****************************************************************************//**
 876:Generated_Source\PSoC4/ADC_Adc.c **** *
 877:Generated_Source\PSoC4/ADC_Adc.c **** * \brief
 878:Generated_Source\PSoC4/ADC_Adc.c **** *   Resumes the ADC operation after a stop call.
 879:Generated_Source\PSoC4/ADC_Adc.c **** *
 880:Generated_Source\PSoC4/ADC_Adc.c **** * \details
 881:Generated_Source\PSoC4/ADC_Adc.c **** *   Resumes the ADC operation if the operation is stopped
 882:Generated_Source\PSoC4/ADC_Adc.c **** *   previously by the ADC_Stop() API.
 883:Generated_Source\PSoC4/ADC_Adc.c **** *
 884:Generated_Source\PSoC4/ADC_Adc.c **** *******************************************************************************/
 885:Generated_Source\PSoC4/ADC_Adc.c **** void ADC_Resume(void)
 886:Generated_Source\PSoC4/ADC_Adc.c **** {
 887:Generated_Source\PSoC4/ADC_Adc.c ****     ADC_Initialize();
 888:Generated_Source\PSoC4/ADC_Adc.c **** }
 889:Generated_Source\PSoC4/ADC_Adc.c **** 
 890:Generated_Source\PSoC4/ADC_Adc.c **** 
 891:Generated_Source\PSoC4/ADC_Adc.c **** /*******************************************************************************
 892:Generated_Source\PSoC4/ADC_Adc.c **** * Function Name: ADC_ClearAdcChannels
 893:Generated_Source\PSoC4/ADC_Adc.c **** ****************************************************************************//**
 894:Generated_Source\PSoC4/ADC_Adc.c **** *
 895:Generated_Source\PSoC4/ADC_Adc.c **** * \brief
 896:Generated_Source\PSoC4/ADC_Adc.c **** *  Resets all the ADC channels to disconnected state.
 897:Generated_Source\PSoC4/ADC_Adc.c **** *
 898:Generated_Source\PSoC4/ADC_Adc.c **** * \details
 899:Generated_Source\PSoC4/ADC_Adc.c **** *   The function goes through all the ADC channels and disconnects the pin
 900:Generated_Source\PSoC4/ADC_Adc.c **** *   and the analog muxbus B.  Sets the drive mode of the pin as well.
 901:Generated_Source\PSoC4/ADC_Adc.c **** *
 902:Generated_Source\PSoC4/ADC_Adc.c **** *******************************************************************************/
 903:Generated_Source\PSoC4/ADC_Adc.c **** void ADC_ClearAdcChannels(void)
 904:Generated_Source\PSoC4/ADC_Adc.c **** {
 455              		.loc 1 904 0
 456              		.cfi_startproc
 457              		@ args = 0, pretend = 0, frame = 0
 458              		@ frame_needed = 0, uses_anonymous_args = 0
 459 0000 10B5     		push	{r4, lr}
 460              		.cfi_def_cfa_offset 8
 461              		.cfi_offset 4, -8
ARM GAS  C:\Users\ADMIN\AppData\Local\Temp\ccekpMqd.s 			page 25


 462              		.cfi_offset 14, -4
 463              	.LVL44:
 905:Generated_Source\PSoC4/ADC_Adc.c ****     uint32 chId;
 906:Generated_Source\PSoC4/ADC_Adc.c **** 
 907:Generated_Source\PSoC4/ADC_Adc.c ****     for (chId = 0u; chId < ADC_ADC_TOTAL_CHANNELS; chId++)
 464              		.loc 1 907 0
 465 0002 0024     		movs	r4, #0
 466 0004 04E0     		b	.L33
 467              	.LVL45:
 468              	.L34:
 908:Generated_Source\PSoC4/ADC_Adc.c ****     {
 909:Generated_Source\PSoC4/ADC_Adc.c ****         ADC_SetAdcChannel((uint8)chId, ADC_CHAN_DISCONNECT);
 469              		.loc 1 909 0 discriminator 3
 470 0006 E0B2     		uxtb	r0, r4
 471 0008 0021     		movs	r1, #0
 472 000a FFF7FEFF 		bl	ADC_SetAdcChannel
 473              	.LVL46:
 907:Generated_Source\PSoC4/ADC_Adc.c ****     {
 474              		.loc 1 907 0 discriminator 3
 475 000e 0134     		adds	r4, r4, #1
 476              	.LVL47:
 477              	.L33:
 907:Generated_Source\PSoC4/ADC_Adc.c ****     {
 478              		.loc 1 907 0 is_stmt 0 discriminator 1
 479 0010 002C     		cmp	r4, #0
 480 0012 F8D0     		beq	.L34
 910:Generated_Source\PSoC4/ADC_Adc.c ****     }
 911:Generated_Source\PSoC4/ADC_Adc.c ****     ADC_dsRam.adcActiveCh = ADC_NO_CHANNEL;
 481              		.loc 1 911 0 is_stmt 1
 482 0014 FF22     		movs	r2, #255
 483 0016 014B     		ldr	r3, .L35
 484 0018 9A71     		strb	r2, [r3, #6]
 912:Generated_Source\PSoC4/ADC_Adc.c **** }
 485              		.loc 1 912 0
 486              		@ sp needed
 487              	.LVL48:
 488 001a 10BD     		pop	{r4, pc}
 489              	.L36:
 490              		.align	2
 491              	.L35:
 492 001c 00000000 		.word	ADC_dsRam
 493              		.cfi_endproc
 494              	.LFE18:
 495              		.size	ADC_ClearAdcChannels, .-ADC_ClearAdcChannels
 496              		.section	.text.ADC_AdcReleaseResources,"ax",%progbits
 497              		.align	2
 498              		.global	ADC_AdcReleaseResources
 499              		.code	16
 500              		.thumb_func
 501              		.type	ADC_AdcReleaseResources, %function
 502              	ADC_AdcReleaseResources:
 503              	.LFB9:
 459:Generated_Source\PSoC4/ADC_Adc.c ****     uint8  interruptState;
 504              		.loc 1 459 0
 505              		.cfi_startproc
 506              		@ args = 0, pretend = 0, frame = 0
 507              		@ frame_needed = 0, uses_anonymous_args = 0
ARM GAS  C:\Users\ADMIN\AppData\Local\Temp\ccekpMqd.s 			page 26


 508 0000 10B5     		push	{r4, lr}
 509              		.cfi_def_cfa_offset 8
 510              		.cfi_offset 4, -8
 511              		.cfi_offset 14, -4
 463:Generated_Source\PSoC4/ADC_Adc.c ****     {
 512              		.loc 1 463 0
 513 0002 1D4B     		ldr	r3, .L40
 514 0004 1B78     		ldrb	r3, [r3]
 515 0006 012B     		cmp	r3, #1
 516 0008 34D1     		bne	.L38
 466:Generated_Source\PSoC4/ADC_Adc.c ****                             & ADC_STATUS_FSM_MASK))
 517              		.loc 1 466 0
 518 000a 1C4B     		ldr	r3, .L40+4
 519 000c 1B79     		ldrb	r3, [r3, #4]
 520 000e 0F22     		movs	r2, #15
 521 0010 9343     		bics	r3, r2
 522 0012 0BD0     		beq	.L39
 469:Generated_Source\PSoC4/ADC_Adc.c ****             ADC_SetAdcChannel((ADC_dsRam.adcStatus
 523              		.loc 1 469 0
 524 0014 0020     		movs	r0, #0
 525 0016 FFF7FEFF 		bl	ADC_StartAdcFSM
 526              	.LVL49:
 470:Generated_Source\PSoC4/ADC_Adc.c ****                             & (uint8)(ADC_STATUS_LASTCHAN_MASK)),
 527              		.loc 1 470 0
 528 001a 184C     		ldr	r4, .L40+4
 529 001c 2079     		ldrb	r0, [r4, #4]
 530 001e 0F23     		movs	r3, #15
 531 0020 1840     		ands	r0, r3
 532 0022 0021     		movs	r1, #0
 533 0024 FFF7FEFF 		bl	ADC_SetAdcChannel
 534              	.LVL50:
 473:Generated_Source\PSoC4/ADC_Adc.c ****         }
 535              		.loc 1 473 0
 536 0028 0023     		movs	r3, #0
 537 002a 2371     		strb	r3, [r4, #4]
 538              	.L39:
 477:Generated_Source\PSoC4/ADC_Adc.c ****         CY_SET_REG32(ADC_REFGEN_PTR, 0u);
 539              		.loc 1 477 0
 540 002c 0024     		movs	r4, #0
 541 002e 144B     		ldr	r3, .L40+8
 542 0030 1C60     		str	r4, [r3]
 478:Generated_Source\PSoC4/ADC_Adc.c ****         CY_SET_REG32(ADC_AMBUF_PTR, 0u);
 543              		.loc 1 478 0
 544 0032 144B     		ldr	r3, .L40+12
 545 0034 1C60     		str	r4, [r3]
 479:Generated_Source\PSoC4/ADC_Adc.c ****         CY_SET_REG32(ADC_HSCMP_PTR, 0u);
 546              		.loc 1 479 0
 547 0036 144B     		ldr	r3, .L40+16
 548 0038 1C60     		str	r4, [r3]
 480:Generated_Source\PSoC4/ADC_Adc.c **** 
 549              		.loc 1 480 0
 550 003a 144B     		ldr	r3, .L40+20
 551 003c 1C60     		str	r4, [r3]
 483:Generated_Source\PSoC4/ADC_Adc.c ****         CY_SET_REG32(ADC_SW_HS_N_SEL_PTR, 0u);
 552              		.loc 1 483 0
 553 003e 144B     		ldr	r3, .L40+24
 554 0040 1C60     		str	r4, [r3]
ARM GAS  C:\Users\ADMIN\AppData\Local\Temp\ccekpMqd.s 			page 27


 484:Generated_Source\PSoC4/ADC_Adc.c ****         CY_SET_REG32(ADC_SW_SHIELD_SEL_PTR, 0u);
 555              		.loc 1 484 0
 556 0042 144B     		ldr	r3, .L40+28
 557 0044 1C60     		str	r4, [r3]
 485:Generated_Source\PSoC4/ADC_Adc.c ****         CY_SET_REG32(ADC_SW_CMP_P_SEL_PTR, 0u);
 558              		.loc 1 485 0
 559 0046 144B     		ldr	r3, .L40+32
 560 0048 1C60     		str	r4, [r3]
 486:Generated_Source\PSoC4/ADC_Adc.c ****         CY_SET_REG32(ADC_SW_CMP_N_SEL_PTR, 0u);
 561              		.loc 1 486 0
 562 004a 144B     		ldr	r3, .L40+36
 563 004c 1C60     		str	r4, [r3]
 487:Generated_Source\PSoC4/ADC_Adc.c ****         CY_SET_REG32(ADC_SW_FW_MOD_SEL_PTR, 0u);
 564              		.loc 1 487 0
 565 004e 144B     		ldr	r3, .L40+40
 566 0050 1C60     		str	r4, [r3]
 488:Generated_Source\PSoC4/ADC_Adc.c ****         CY_SET_REG32(ADC_SW_FW_TANK_SEL_PTR, 0u);
 567              		.loc 1 488 0
 568 0052 144B     		ldr	r3, .L40+44
 569 0054 1C60     		str	r4, [r3]
 489:Generated_Source\PSoC4/ADC_Adc.c **** 
 570              		.loc 1 489 0
 571 0056 144B     		ldr	r3, .L40+48
 572 0058 1C60     		str	r4, [r3]
 491:Generated_Source\PSoC4/ADC_Adc.c ****         newRegValue = CY_GET_REG32(ADC_SW_BYP_SEL_PTR);
 573              		.loc 1 491 0
 574 005a FFF7FEFF 		bl	CyEnterCriticalSection
 575              	.LVL51:
 492:Generated_Source\PSoC4/ADC_Adc.c ****         newRegValue &= (uint32)(~ADC_SW_BYP_DEFAULT);
 576              		.loc 1 492 0
 577 005e 134A     		ldr	r2, .L40+52
 578 0060 1168     		ldr	r1, [r2]
 579              	.LVL52:
 493:Generated_Source\PSoC4/ADC_Adc.c ****         CY_SET_REG32(ADC_SW_BYP_SEL_PTR, newRegValue);
 580              		.loc 1 493 0
 581 0062 134B     		ldr	r3, .L40+56
 582 0064 0B40     		ands	r3, r1
 583              	.LVL53:
 494:Generated_Source\PSoC4/ADC_Adc.c ****         CyExitCriticalSection(interruptState);
 584              		.loc 1 494 0
 585 0066 1360     		str	r3, [r2]
 495:Generated_Source\PSoC4/ADC_Adc.c **** 
 586              		.loc 1 495 0
 587 0068 FFF7FEFF 		bl	CyExitCriticalSection
 588              	.LVL54:
 498:Generated_Source\PSoC4/ADC_Adc.c **** 
 589              		.loc 1 498 0
 590 006c FFF7FEFF 		bl	ADC_ClearAdcChannels
 591              	.LVL55:
 500:Generated_Source\PSoC4/ADC_Adc.c ****     }
 592              		.loc 1 500 0
 593 0070 014B     		ldr	r3, .L40
 594 0072 1C70     		strb	r4, [r3]
 595              	.L38:
 504:Generated_Source\PSoC4/ADC_Adc.c **** 
 596              		.loc 1 504 0
 597 0074 0020     		movs	r0, #0
ARM GAS  C:\Users\ADMIN\AppData\Local\Temp\ccekpMqd.s 			page 28


 598              		@ sp needed
 599 0076 10BD     		pop	{r4, pc}
 600              	.L41:
 601              		.align	2
 602              	.L40:
 603 0078 00000000 		.word	.LANCHOR0
 604 007c 00000000 		.word	ADC_dsRam
 605 0080 C4010B40 		.word	1074463172
 606 0084 88010B40 		.word	1074463112
 607 0088 84010B40 		.word	1074463108
 608 008c 80010B40 		.word	1074463104
 609 0090 80020B40 		.word	1074463360
 610 0094 84020B40 		.word	1074463364
 611 0098 88020B40 		.word	1074463368
 612 009c A0020B40 		.word	1074463392
 613 00a0 A4020B40 		.word	1074463396
 614 00a4 B0020B40 		.word	1074463408
 615 00a8 B4020B40 		.word	1074463412
 616 00ac 94020B40 		.word	1074463380
 617 00b0 FFFFEEFF 		.word	-1114113
 618              		.cfi_endproc
 619              	.LFE9:
 620              		.size	ADC_AdcReleaseResources, .-ADC_AdcReleaseResources
 621              		.section	.text.ADC_SetModClkClockDivider,"ax",%progbits
 622              		.align	2
 623              		.global	ADC_SetModClkClockDivider
 624              		.code	16
 625              		.thumb_func
 626              		.type	ADC_SetModClkClockDivider, %function
 627              	ADC_SetModClkClockDivider:
 628              	.LFB19:
 913:Generated_Source\PSoC4/ADC_Adc.c **** 
 914:Generated_Source\PSoC4/ADC_Adc.c **** /*******************************************************************************
 915:Generated_Source\PSoC4/ADC_Adc.c **** * Function Name: ADC_SetModClkClockDivider
 916:Generated_Source\PSoC4/ADC_Adc.c **** ****************************************************************************//**
 917:Generated_Source\PSoC4/ADC_Adc.c **** *
 918:Generated_Source\PSoC4/ADC_Adc.c **** * \brief
 919:Generated_Source\PSoC4/ADC_Adc.c **** *   Sets the divider values for the modulator clock and then starts
 920:Generated_Source\PSoC4/ADC_Adc.c **** *   the modulator clock.
 921:Generated_Source\PSoC4/ADC_Adc.c **** *
 922:Generated_Source\PSoC4/ADC_Adc.c **** * \details
 923:Generated_Source\PSoC4/ADC_Adc.c **** *   It is not recommended to call this function directly by the application layer.
 924:Generated_Source\PSoC4/ADC_Adc.c **** *   It is used by initialization to enable the clocks.
 925:Generated_Source\PSoC4/ADC_Adc.c **** *
 926:Generated_Source\PSoC4/ADC_Adc.c **** * \param
 927:Generated_Source\PSoC4/ADC_Adc.c **** *   modClk The divider value for the modulator clock.
 928:Generated_Source\PSoC4/ADC_Adc.c **** *
 929:Generated_Source\PSoC4/ADC_Adc.c **** *******************************************************************************/
 930:Generated_Source\PSoC4/ADC_Adc.c **** void ADC_SetModClkClockDivider(uint32 modClk)
 931:Generated_Source\PSoC4/ADC_Adc.c **** {
 629              		.loc 1 931 0
 630              		.cfi_startproc
 631              		@ args = 0, pretend = 0, frame = 0
 632              		@ frame_needed = 0, uses_anonymous_args = 0
 633              		@ link register save eliminated.
 634              	.LVL56:
 932:Generated_Source\PSoC4/ADC_Adc.c ****     /* Stop modulator clock   */
ARM GAS  C:\Users\ADMIN\AppData\Local\Temp\ccekpMqd.s 			page 29


 933:Generated_Source\PSoC4/ADC_Adc.c ****     CY_SET_REG32(ADC_MODCLK_CMD_PTR,
 635              		.loc 1 933 0
 636 0000 074A     		ldr	r2, .L44
 637 0002 084B     		ldr	r3, .L44+4
 638 0004 1A60     		str	r2, [r3]
 934:Generated_Source\PSoC4/ADC_Adc.c ****                  ((uint32)ADC_ModClk__DIV_ID <<
 935:Generated_Source\PSoC4/ADC_Adc.c ****                  ADC_MODCLK_CMD_DIV_SHIFT)|
 936:Generated_Source\PSoC4/ADC_Adc.c ****                  ((uint32)ADC_MODCLK_CMD_DISABLE_MASK));
 937:Generated_Source\PSoC4/ADC_Adc.c **** 
 938:Generated_Source\PSoC4/ADC_Adc.c ****     /*
 939:Generated_Source\PSoC4/ADC_Adc.c ****      * Set divider value for modClk.
 940:Generated_Source\PSoC4/ADC_Adc.c ****      * 1u is subtracted from modClk because Divider register value 0 corresponds
 941:Generated_Source\PSoC4/ADC_Adc.c ****      * to dividing by 1.
 942:Generated_Source\PSoC4/ADC_Adc.c ****      */
 943:Generated_Source\PSoC4/ADC_Adc.c ****     CY_SET_REG32(ADC_MODCLK_DIV_PTR, ((modClk - 1u) << 8u));
 639              		.loc 1 943 0
 640 0006 0138     		subs	r0, r0, #1
 641              	.LVL57:
 642 0008 0002     		lsls	r0, r0, #8
 643              	.LVL58:
 644 000a 074B     		ldr	r3, .L44+8
 645 000c 1860     		str	r0, [r3]
 646              	.L43:
 944:Generated_Source\PSoC4/ADC_Adc.c **** 
 945:Generated_Source\PSoC4/ADC_Adc.c ****     /* Check whether previous modulator clock start command has finished. */
 946:Generated_Source\PSoC4/ADC_Adc.c ****     while(0u != (CY_GET_REG32(ADC_MODCLK_CMD_PTR) & ADC_MODCLK_CMD_ENABLE_MASK))
 647              		.loc 1 946 0 discriminator 1
 648 000e 054B     		ldr	r3, .L44+4
 649 0010 1B68     		ldr	r3, [r3]
 650 0012 002B     		cmp	r3, #0
 651 0014 FBDB     		blt	.L43
 947:Generated_Source\PSoC4/ADC_Adc.c ****     {
 948:Generated_Source\PSoC4/ADC_Adc.c ****         /* Wait until previous modulator clock start command has finished. */
 949:Generated_Source\PSoC4/ADC_Adc.c ****     }
 950:Generated_Source\PSoC4/ADC_Adc.c **** 
 951:Generated_Source\PSoC4/ADC_Adc.c ****     /* Start modulator clock, aligned to HFCLK */
 952:Generated_Source\PSoC4/ADC_Adc.c ****     CY_SET_REG32(ADC_MODCLK_CMD_PTR,
 652              		.loc 1 952 0
 653 0016 054A     		ldr	r2, .L44+12
 654 0018 024B     		ldr	r3, .L44+4
 655 001a 1A60     		str	r2, [r3]
 953:Generated_Source\PSoC4/ADC_Adc.c ****                  (uint32)(((uint32)ADC_ModClk__DIV_ID << ADC_MODCLK_CMD_DIV_SHIFT) |
 954:Generated_Source\PSoC4/ADC_Adc.c ****                   ((uint32)ADC_ModClk__PA_DIV_ID << ADC_MODCLK_CMD_PA_DIV_SHIFT) |
 955:Generated_Source\PSoC4/ADC_Adc.c ****                   ADC_MODCLK_CMD_ENABLE_MASK));
 956:Generated_Source\PSoC4/ADC_Adc.c **** }
 656              		.loc 1 956 0
 657              		@ sp needed
 658 001c 7047     		bx	lr
 659              	.L45:
 660 001e C046     		.align	2
 661              	.L44:
 662 0020 40000040 		.word	1073741888
 663 0024 00000140 		.word	1073807360
 664 0028 00030140 		.word	1073808128
 665 002c 40FF0080 		.word	-2147418304
 666              		.cfi_endproc
 667              	.LFE19:
ARM GAS  C:\Users\ADMIN\AppData\Local\Temp\ccekpMqd.s 			page 30


 668              		.size	ADC_SetModClkClockDivider, .-ADC_SetModClkClockDivider
 669              		.section	.text.ADC_ConfigAdcResources,"ax",%progbits
 670              		.align	2
 671              		.global	ADC_ConfigAdcResources
 672              		.code	16
 673              		.thumb_func
 674              		.type	ADC_ConfigAdcResources, %function
 675              	ADC_ConfigAdcResources:
 676              	.LFB6:
 280:Generated_Source\PSoC4/ADC_Adc.c ****     uint8  interruptState;
 677              		.loc 1 280 0
 678              		.cfi_startproc
 679              		@ args = 0, pretend = 0, frame = 0
 680              		@ frame_needed = 0, uses_anonymous_args = 0
 681 0000 70B5     		push	{r4, r5, r6, lr}
 682              		.cfi_def_cfa_offset 16
 683              		.cfi_offset 4, -16
 684              		.cfi_offset 5, -12
 685              		.cfi_offset 6, -8
 686              		.cfi_offset 14, -4
 285:Generated_Source\PSoC4/ADC_Adc.c ****     CY_SET_REG32(ADC_SENSE_PERIOD_PTR, (ADC_SENSE_DIV_DEFAULT - 1uL));
 687              		.loc 1 285 0
 688 0002 0120     		movs	r0, #1
 689 0004 FFF7FEFF 		bl	ADC_SetModClkClockDivider
 690              	.LVL59:
 286:Generated_Source\PSoC4/ADC_Adc.c **** 
 691              		.loc 1 286 0
 692 0008 0322     		movs	r2, #3
 693 000a 274B     		ldr	r3, .L47
 694 000c 1A60     		str	r2, [r3]
 289:Generated_Source\PSoC4/ADC_Adc.c ****     CY_SET_REG32(ADC_IDACB_PTR, ADC_IDACB_CONFIG | ADC_dsRam.adcIdac);
 695              		.loc 1 289 0
 696 000e 274A     		ldr	r2, .L47+4
 697 0010 274B     		ldr	r3, .L47+8
 698 0012 1A60     		str	r2, [r3]
 290:Generated_Source\PSoC4/ADC_Adc.c **** 
 699              		.loc 1 290 0
 700 0014 274B     		ldr	r3, .L47+12
 701 0016 5B79     		ldrb	r3, [r3, #5]
 702 0018 274A     		ldr	r2, .L47+16
 703 001a 1343     		orrs	r3, r2
 704 001c 274A     		ldr	r2, .L47+20
 705 001e 1360     		str	r3, [r2]
 293:Generated_Source\PSoC4/ADC_Adc.c **** 
 706              		.loc 1 293 0
 707 0020 1D22     		movs	r2, #29
 708 0022 274B     		ldr	r3, .L47+24
 709 0024 1A60     		str	r2, [r3]
 295:Generated_Source\PSoC4/ADC_Adc.c ****     CY_SET_REG32(ADC_SW_DSI_SEL_PTR, 0uL);
 710              		.loc 1 295 0
 711 0026 0024     		movs	r4, #0
 712 0028 264B     		ldr	r3, .L47+28
 713 002a 1C60     		str	r4, [r3]
 296:Generated_Source\PSoC4/ADC_Adc.c **** 
 714              		.loc 1 296 0
 715 002c 264B     		ldr	r3, .L47+32
 716 002e 1C60     		str	r4, [r3]
ARM GAS  C:\Users\ADMIN\AppData\Local\Temp\ccekpMqd.s 			page 31


 298:Generated_Source\PSoC4/ADC_Adc.c ****     CY_SET_REG32(ADC_SEQ_INIT_CNT_PTR, 1uL);
 717              		.loc 1 298 0
 718 0030 264B     		ldr	r3, .L47+36
 719 0032 1C60     		str	r4, [r3]
 299:Generated_Source\PSoC4/ADC_Adc.c ****     CY_SET_REG32(ADC_SEQ_NORM_CNT_PTR, 2uL);
 720              		.loc 1 299 0
 721 0034 0125     		movs	r5, #1
 722 0036 264B     		ldr	r3, .L47+40
 723 0038 1D60     		str	r5, [r3]
 300:Generated_Source\PSoC4/ADC_Adc.c **** 
 724              		.loc 1 300 0
 725 003a 1B3A     		subs	r2, r2, #27
 726 003c 254B     		ldr	r3, .L47+44
 727 003e 1A60     		str	r2, [r3]
 303:Generated_Source\PSoC4/ADC_Adc.c ****     CY_SET_REG32(ADC_SW_HS_N_SEL_PTR, ADC_SW_HSN_DEFAULT);
 728              		.loc 1 303 0
 729 0040 8023     		movs	r3, #128
 730 0042 5B05     		lsls	r3, r3, #21
 731 0044 244A     		ldr	r2, .L47+48
 732 0046 1360     		str	r3, [r2]
 304:Generated_Source\PSoC4/ADC_Adc.c ****     CY_SET_REG32(ADC_SW_SHIELD_SEL_PTR, ADC_SW_SHIELD_DEFAULT);
 733              		.loc 1 304 0
 734 0048 8021     		movs	r1, #128
 735 004a 4903     		lsls	r1, r1, #13
 736 004c 234A     		ldr	r2, .L47+52
 737 004e 1160     		str	r1, [r2]
 305:Generated_Source\PSoC4/ADC_Adc.c ****     CY_SET_REG32(ADC_SW_CMP_P_SEL_PTR, ADC_SW_CMPP_DEFAULT);
 738              		.loc 1 305 0
 739 0050 234A     		ldr	r2, .L47+56
 740 0052 1460     		str	r4, [r2]
 306:Generated_Source\PSoC4/ADC_Adc.c ****     CY_SET_REG32(ADC_SW_CMP_N_SEL_PTR, ADC_SW_CMPN_DEFAULT);
 741              		.loc 1 306 0
 742 0054 234A     		ldr	r2, .L47+60
 743 0056 1460     		str	r4, [r2]
 307:Generated_Source\PSoC4/ADC_Adc.c ****     CY_SET_REG32(ADC_SW_FW_MOD_SEL_PTR, ADC_SW_FWMOD_DEFAULT);
 744              		.loc 1 307 0
 745 0058 234A     		ldr	r2, .L47+64
 746 005a 1460     		str	r4, [r2]
 308:Generated_Source\PSoC4/ADC_Adc.c ****     CY_SET_REG32(ADC_SW_FW_TANK_SEL_PTR, ADC_SW_FWTANK_DEFAULT);
 747              		.loc 1 308 0
 748 005c 8822     		movs	r2, #136
 749 005e 5204     		lsls	r2, r2, #17
 750 0060 2249     		ldr	r1, .L47+68
 751 0062 0A60     		str	r2, [r1]
 309:Generated_Source\PSoC4/ADC_Adc.c ****     CY_SET_REG32(ADC_SW_REFGEN_SEL_PTR, ADC_SW_REFGEN_DEFAULT);
 752              		.loc 1 309 0
 753 0064 2249     		ldr	r1, .L47+72
 754 0066 0A60     		str	r2, [r1]
 310:Generated_Source\PSoC4/ADC_Adc.c **** 
 755              		.loc 1 310 0
 756 0068 224A     		ldr	r2, .L47+76
 757 006a 1360     		str	r3, [r2]
 312:Generated_Source\PSoC4/ADC_Adc.c ****     newRegValue = CY_GET_REG32(ADC_SW_BYP_SEL_PTR);
 758              		.loc 1 312 0
 759 006c FFF7FEFF 		bl	CyEnterCriticalSection
 760              	.LVL60:
 313:Generated_Source\PSoC4/ADC_Adc.c ****     newRegValue |= ADC_SW_BYP_DEFAULT;
ARM GAS  C:\Users\ADMIN\AppData\Local\Temp\ccekpMqd.s 			page 32


 761              		.loc 1 313 0
 762 0070 214A     		ldr	r2, .L47+80
 763 0072 1368     		ldr	r3, [r2]
 764              	.LVL61:
 314:Generated_Source\PSoC4/ADC_Adc.c ****     CY_SET_REG32(ADC_SW_BYP_SEL_PTR, newRegValue);
 765              		.loc 1 314 0
 766 0074 8821     		movs	r1, #136
 767 0076 4903     		lsls	r1, r1, #13
 768 0078 0B43     		orrs	r3, r1
 769              	.LVL62:
 315:Generated_Source\PSoC4/ADC_Adc.c ****     CyExitCriticalSection(interruptState);
 770              		.loc 1 315 0
 771 007a 1360     		str	r3, [r2]
 316:Generated_Source\PSoC4/ADC_Adc.c **** 
 772              		.loc 1 316 0
 773 007c FFF7FEFF 		bl	CyExitCriticalSection
 774              	.LVL63:
 325:Generated_Source\PSoC4/ADC_Adc.c ****         CY_SET_REG32(ADC_SW_AMUXBUF_SEL_PTR, ADC_SW_AMUBUF_NORM);
 775              		.loc 1 325 0
 776 0080 1E4A     		ldr	r2, .L47+84
 777 0082 1F4B     		ldr	r3, .L47+88
 778 0084 1A60     		str	r2, [r3]
 326:Generated_Source\PSoC4/ADC_Adc.c ****     #endif /* ADC__CYDEV_VDDA_MV < ADC_LVTHRESH */
 779              		.loc 1 326 0
 780 0086 1F4B     		ldr	r3, .L47+92
 781 0088 1C60     		str	r4, [r3]
 330:Generated_Source\PSoC4/ADC_Adc.c **** 
 782              		.loc 1 330 0
 783 008a 1F4A     		ldr	r2, .L47+96
 784 008c 1F4B     		ldr	r3, .L47+100
 785 008e 1A60     		str	r2, [r3]
 333:Generated_Source\PSoC4/ADC_Adc.c ****     
 786              		.loc 1 333 0
 787 0090 8322     		movs	r2, #131
 788 0092 5200     		lsls	r2, r2, #1
 789 0094 1E4B     		ldr	r3, .L47+104
 790 0096 1A60     		str	r2, [r3]
 336:Generated_Source\PSoC4/ADC_Adc.c **** 
 791              		.loc 1 336 0
 792 0098 1E4B     		ldr	r3, .L47+108
 793 009a 1C60     		str	r4, [r3]
 339:Generated_Source\PSoC4/ADC_Adc.c **** 
 794              		.loc 1 339 0
 795 009c 1E48     		ldr	r0, .L47+112
 796 009e FFF7FEFF 		bl	ADC_ISR_StartEx
 797              	.LVL64:
 342:Generated_Source\PSoC4/ADC_Adc.c **** }
 798              		.loc 1 342 0
 799 00a2 1E4B     		ldr	r3, .L47+116
 800 00a4 1D70     		strb	r5, [r3]
 343:Generated_Source\PSoC4/ADC_Adc.c **** 
 801              		.loc 1 343 0
 802              		@ sp needed
 803 00a6 70BD     		pop	{r4, r5, r6, pc}
 804              	.L48:
 805              		.align	2
 806              	.L47:
ARM GAS  C:\Users\ADMIN\AppData\Local\Temp\ccekpMqd.s 			page 33


 807 00a8 00020B40 		.word	1074463232
 808 00ac 02100085 		.word	-2063593470
 809 00b0 00000B40 		.word	1074462720
 810 00b4 00000000 		.word	ADC_dsRam
 811 00b8 80000004 		.word	67108992
 812 00bc C4010B40 		.word	1074463172
 813 00c0 00030B40 		.word	1074463488
 814 00c4 8C010B40 		.word	1074463116
 815 00c8 C0020B40 		.word	1074463424
 816 00cc 04020B40 		.word	1074463236
 817 00d0 10030B40 		.word	1074463504
 818 00d4 14030B40 		.word	1074463508
 819 00d8 80020B40 		.word	1074463360
 820 00dc 84020B40 		.word	1074463364
 821 00e0 88020B40 		.word	1074463368
 822 00e4 A0020B40 		.word	1074463392
 823 00e8 A4020B40 		.word	1074463396
 824 00ec B0020B40 		.word	1074463408
 825 00f0 B4020B40 		.word	1074463412
 826 00f4 A8020B40 		.word	1074463400
 827 00f8 94020B40 		.word	1074463380
 828 00fc 41110000 		.word	4417
 829 0100 88010B40 		.word	1074463112
 830 0104 90020B40 		.word	1074463376
 831 0108 01000080 		.word	-2147483647
 832 010c 80010B40 		.word	1074463104
 833 0110 F0000B40 		.word	1074462960
 834 0114 F8000B40 		.word	1074462968
 835 0118 00000000 		.word	ADC_IntrHandler
 836 011c 00000000 		.word	.LANCHOR0
 837              		.cfi_endproc
 838              	.LFE6:
 839              		.size	ADC_ConfigAdcResources, .-ADC_ConfigAdcResources
 840              		.section	.text.ADC_AdcCaptureResources,"ax",%progbits
 841              		.align	2
 842              		.global	ADC_AdcCaptureResources
 843              		.code	16
 844              		.thumb_func
 845              		.type	ADC_AdcCaptureResources, %function
 846              	ADC_AdcCaptureResources:
 847              	.LFB8:
 416:Generated_Source\PSoC4/ADC_Adc.c ****     cystatus tmpStatus = CYRET_SUCCESS;
 848              		.loc 1 416 0
 849              		.cfi_startproc
 850              		@ args = 0, pretend = 0, frame = 0
 851              		@ frame_needed = 0, uses_anonymous_args = 0
 852 0000 10B5     		push	{r4, lr}
 853              		.cfi_def_cfa_offset 8
 854              		.cfi_offset 4, -8
 855              		.cfi_offset 14, -4
 856              	.LVL65:
 434:Generated_Source\PSoC4/ADC_Adc.c ****         {
 857              		.loc 1 434 0
 858 0002 044B     		ldr	r3, .L51
 859 0004 1B78     		ldrb	r3, [r3]
 860 0006 002B     		cmp	r3, #0
 861 0008 01D1     		bne	.L50
ARM GAS  C:\Users\ADMIN\AppData\Local\Temp\ccekpMqd.s 			page 34


 436:Generated_Source\PSoC4/ADC_Adc.c ****         }
 862              		.loc 1 436 0
 863 000a FFF7FEFF 		bl	ADC_ConfigAdcResources
 864              	.LVL66:
 865              	.L50:
 441:Generated_Source\PSoC4/ADC_Adc.c **** 
 866              		.loc 1 441 0
 867 000e 0020     		movs	r0, #0
 868              		@ sp needed
 869 0010 10BD     		pop	{r4, pc}
 870              	.L52:
 871 0012 C046     		.align	2
 872              	.L51:
 873 0014 00000000 		.word	.LANCHOR0
 874              		.cfi_endproc
 875              	.LFE8:
 876              		.size	ADC_AdcCaptureResources, .-ADC_AdcCaptureResources
 877              		.global	__aeabi_uidiv
 878              		.section	.text.ADC_Calibrate,"ax",%progbits
 879              		.align	2
 880              		.global	ADC_Calibrate
 881              		.code	16
 882              		.thumb_func
 883              		.type	ADC_Calibrate, %function
 884              	ADC_Calibrate:
 885              	.LFB14:
 761:Generated_Source\PSoC4/ADC_Adc.c ****     uint32 tmpStatus;
 886              		.loc 1 761 0
 887              		.cfi_startproc
 888              		@ args = 0, pretend = 0, frame = 0
 889              		@ frame_needed = 0, uses_anonymous_args = 0
 890 0000 10B5     		push	{r4, lr}
 891              		.cfi_def_cfa_offset 8
 892              		.cfi_offset 4, -8
 893              		.cfi_offset 14, -4
 766:Generated_Source\PSoC4/ADC_Adc.c **** 
 894              		.loc 1 766 0
 895 0002 FFF7FEFF 		bl	ADC_AdcCaptureResources
 896              	.LVL67:
 897 0006 0400     		movs	r4, r0
 898              	.LVL68:
 768:Generated_Source\PSoC4/ADC_Adc.c ****         & ADC_STATUS_FSM_MASK))
 899              		.loc 1 768 0
 900 0008 1E4B     		ldr	r3, .L60
 901 000a 1B79     		ldrb	r3, [r3, #4]
 902 000c 0F22     		movs	r2, #15
 903 000e 9343     		bics	r3, r2
 904 0010 00D0     		beq	.L54
 771:Generated_Source\PSoC4/ADC_Adc.c ****     }
 905              		.loc 1 771 0
 906 0012 0424     		movs	r4, #4
 907              	.L54:
 908              	.LVL69:
 774:Generated_Source\PSoC4/ADC_Adc.c ****     {
 909              		.loc 1 774 0
 910 0014 002C     		cmp	r4, #0
 911 0016 33D1     		bne	.L55
ARM GAS  C:\Users\ADMIN\AppData\Local\Temp\ccekpMqd.s 			page 35


 777:Generated_Source\PSoC4/ADC_Adc.c ****         #endif /* (ADC_ADC_ANALOG_STARTUP_DELAY_US > 0uL) */
 912              		.loc 1 777 0
 913 0018 0520     		movs	r0, #5
 914 001a FFF7FEFF 		bl	CyDelayUs
 915              	.LVL70:
 781:Generated_Source\PSoC4/ADC_Adc.c ****         {
 916              		.loc 1 781 0
 917 001e 194B     		ldr	r3, .L60
 918 0020 9879     		ldrb	r0, [r3, #6]
 919 0022 FF28     		cmp	r0, #255
 920 0024 05D0     		beq	.L56
 783:Generated_Source\PSoC4/ADC_Adc.c ****             ADC_dsRam.adcActiveCh = ADC_NO_CHANNEL;
 921              		.loc 1 783 0
 922 0026 0021     		movs	r1, #0
 923 0028 FFF7FEFF 		bl	ADC_SetAdcChannel
 924              	.LVL71:
 784:Generated_Source\PSoC4/ADC_Adc.c ****         }
 925              		.loc 1 784 0
 926 002c FF22     		movs	r2, #255
 927 002e 154B     		ldr	r3, .L60
 928 0030 9A71     		strb	r2, [r3, #6]
 929              	.L56:
 788:Generated_Source\PSoC4/ADC_Adc.c ****             (((uint32)CY_GET_REG8(CYREG_SFLASH_CSDV2_CSD0_ADC_TRIM2)) << 8u);
 930              		.loc 1 788 0
 931 0032 154B     		ldr	r3, .L60+4
 932 0034 1B78     		ldrb	r3, [r3]
 789:Generated_Source\PSoC4/ADC_Adc.c **** 
 933              		.loc 1 789 0
 934 0036 154A     		ldr	r2, .L60+8
 935 0038 1078     		ldrb	r0, [r2]
 936 003a 0002     		lsls	r0, r0, #8
 788:Generated_Source\PSoC4/ADC_Adc.c ****             (((uint32)CY_GET_REG8(CYREG_SFLASH_CSDV2_CSD0_ADC_TRIM2)) << 8u);
 937              		.loc 1 788 0
 938 003c 1843     		orrs	r0, r3
 939              	.LVL72:
 792:Generated_Source\PSoC4/ADC_Adc.c ****         tmpVrefCal /= ADC_VREFCALIB_BASE;
 940              		.loc 1 792 0
 941 003e 144B     		ldr	r3, .L60+12
 942 0040 5843     		muls	r0, r3
 943              	.LVL73:
 793:Generated_Source\PSoC4/ADC_Adc.c **** 
 944              		.loc 1 793 0
 945 0042 9621     		movs	r1, #150
 946 0044 0901     		lsls	r1, r1, #4
 947 0046 FFF7FEFF 		bl	__aeabi_uidiv
 948              	.LVL74:
 795:Generated_Source\PSoC4/ADC_Adc.c **** 
 949              		.loc 1 795 0
 950 004a 124B     		ldr	r3, .L60+16
 951 004c 1880     		strh	r0, [r3]
 797:Generated_Source\PSoC4/ADC_Adc.c ****         CY_SET_REG32(ADC_IDACB_PTR, ADC_IDACB_CONFIG |
 952              		.loc 1 797 0
 953 004e 0D4B     		ldr	r3, .L60
 954 0050 3B22     		movs	r2, #59
 955 0052 5A71     		strb	r2, [r3, #5]
 798:Generated_Source\PSoC4/ADC_Adc.c ****                                                      ADC_dsRam.adcIdac);
 956              		.loc 1 798 0
ARM GAS  C:\Users\ADMIN\AppData\Local\Temp\ccekpMqd.s 			page 36


 957 0054 1049     		ldr	r1, .L60+20
 958 0056 114A     		ldr	r2, .L60+24
 959 0058 1160     		str	r1, [r2]
 801:Generated_Source\PSoC4/ADC_Adc.c **** 
 960              		.loc 1 801 0
 961 005a 1022     		movs	r2, #16
 962 005c 1A71     		strb	r2, [r3, #4]
 804:Generated_Source\PSoC4/ADC_Adc.c ****         ADC_StartAdcFSM(ADC_MEASMODE_VREF);
 963              		.loc 1 804 0
 964 005e F032     		adds	r2, r2, #240
 965 0060 0F4B     		ldr	r3, .L60+28
 966 0062 1A60     		str	r2, [r3]
 805:Generated_Source\PSoC4/ADC_Adc.c **** 
 967              		.loc 1 805 0
 968 0064 8020     		movs	r0, #128
 969              	.LVL75:
 970 0066 4002     		lsls	r0, r0, #9
 971 0068 FFF7FEFF 		bl	ADC_StartAdcFSM
 972              	.LVL76:
 815:Generated_Source\PSoC4/ADC_Adc.c ****         while (((*(volatile uint8 *)&ADC_dsRam.adcStatus & ADC_STATUS_FSM_MASK)
 973              		.loc 1 815 0
 974 006c 0D4A     		ldr	r2, .L60+32
 816:Generated_Source\PSoC4/ADC_Adc.c ****                 != 0u) &&  (0u != watchdogAdcCounter))
 975              		.loc 1 816 0
 976 006e 00E0     		b	.L57
 977              	.LVL77:
 978              	.L58:
 820:Generated_Source\PSoC4/ADC_Adc.c ****         }
 979              		.loc 1 820 0
 980 0070 013A     		subs	r2, r2, #1
 981              	.LVL78:
 982              	.L57:
 816:Generated_Source\PSoC4/ADC_Adc.c ****                 != 0u) &&  (0u != watchdogAdcCounter))
 983              		.loc 1 816 0
 984 0072 044B     		ldr	r3, .L60
 985 0074 1B79     		ldrb	r3, [r3, #4]
 986 0076 0F21     		movs	r1, #15
 987 0078 8B43     		bics	r3, r1
 988 007a 01D0     		beq	.L55
 817:Generated_Source\PSoC4/ADC_Adc.c ****         {
 989              		.loc 1 817 0
 990 007c 002A     		cmp	r2, #0
 991 007e F7D1     		bne	.L58
 992              	.LVL79:
 993              	.L55:
 825:Generated_Source\PSoC4/ADC_Adc.c **** 
 994              		.loc 1 825 0
 995 0080 2000     		movs	r0, r4
 996              		@ sp needed
 997              	.LVL80:
 998 0082 10BD     		pop	{r4, pc}
 999              	.L61:
 1000              		.align	2
 1001              	.L60:
 1002 0084 00000000 		.word	ADC_dsRam
 1003 0088 60F1FF0F 		.word	268431712
 1004 008c 61F1FF0F 		.word	268431713
ARM GAS  C:\Users\ADMIN\AppData\Local\Temp\ccekpMqd.s 			page 37


 1005 0090 55080000 		.word	2133
 1006 0094 00000000 		.word	.LANCHOR1
 1007 0098 BB000004 		.word	67109051
 1008 009c C4010B40 		.word	1074463172
 1009 00a0 F8000B40 		.word	1074462968
 1010 00a4 FFFF0000 		.word	65535
 1011              		.cfi_endproc
 1012              	.LFE14:
 1013              		.size	ADC_Calibrate, .-ADC_Calibrate
 1014              		.section	.text.ADC_Start,"ax",%progbits
 1015              		.align	2
 1016              		.global	ADC_Start
 1017              		.code	16
 1018              		.thumb_func
 1019              		.type	ADC_Start, %function
 1020              	ADC_Start:
 1021              	.LFB1:
  91:Generated_Source\PSoC4/ADC_Adc.c ****         ADC_ClearAdcChannels();
 1022              		.loc 1 91 0
 1023              		.cfi_startproc
 1024              		@ args = 0, pretend = 0, frame = 0
 1025              		@ frame_needed = 0, uses_anonymous_args = 0
 1026 0000 10B5     		push	{r4, lr}
 1027              		.cfi_def_cfa_offset 8
 1028              		.cfi_offset 4, -8
 1029              		.cfi_offset 14, -4
  92:Generated_Source\PSoC4/ADC_Adc.c **** 
 1030              		.loc 1 92 0
 1031 0002 FFF7FEFF 		bl	ADC_ClearAdcChannels
 1032              	.LVL81:
  94:Generated_Source\PSoC4/ADC_Adc.c ****         {
 1033              		.loc 1 94 0
 1034 0006 074B     		ldr	r3, .L65
 1035 0008 1B78     		ldrb	r3, [r3]
 1036 000a 012B     		cmp	r3, #1
 1037 000c 01D0     		beq	.L63
  96:Generated_Source\PSoC4/ADC_Adc.c ****         }
 1038              		.loc 1 96 0
 1039 000e FFF7FEFF 		bl	ADC_DsInitialize
 1040              	.LVL82:
 1041              	.L63:
  98:Generated_Source\PSoC4/ADC_Adc.c ****         (void) ADC_Calibrate();
 1042              		.loc 1 98 0
 1043 0012 FFF7FEFF 		bl	ADC_ConfigAdcResources
 1044              	.LVL83:
  99:Generated_Source\PSoC4/ADC_Adc.c ****         while(ADC_IsBusy() != ADC_STATUS_IDLE)
 1045              		.loc 1 99 0
 1046 0016 FFF7FEFF 		bl	ADC_Calibrate
 1047              	.LVL84:
 1048              	.L64:
 100:Generated_Source\PSoC4/ADC_Adc.c ****         {
 1049              		.loc 1 100 0 discriminator 1
 1050 001a FFF7FEFF 		bl	ADC_IsBusy
 1051              	.LVL85:
 1052 001e 0028     		cmp	r0, #0
 1053 0020 FBD1     		bne	.L64
 103:Generated_Source\PSoC4/ADC_Adc.c **** 
ARM GAS  C:\Users\ADMIN\AppData\Local\Temp\ccekpMqd.s 			page 38


 1054              		.loc 1 103 0
 1055              		@ sp needed
 1056 0022 10BD     		pop	{r4, pc}
 1057              	.L66:
 1058              		.align	2
 1059              	.L65:
 1060 0024 00000000 		.word	.LANCHOR0
 1061              		.cfi_endproc
 1062              	.LFE1:
 1063              		.size	ADC_Start, .-ADC_Start
 1064              		.section	.text.ADC_StartConvert,"ax",%progbits
 1065              		.align	2
 1066              		.global	ADC_StartConvert
 1067              		.code	16
 1068              		.thumb_func
 1069              		.type	ADC_StartConvert, %function
 1070              	ADC_StartConvert:
 1071              	.LFB10:
 536:Generated_Source\PSoC4/ADC_Adc.c ****     uint32 tmpStatus = CYRET_SUCCESS;
 1072              		.loc 1 536 0
 1073              		.cfi_startproc
 1074              		@ args = 0, pretend = 0, frame = 0
 1075              		@ frame_needed = 0, uses_anonymous_args = 0
 1076              	.LVL86:
 1077 0000 70B5     		push	{r4, r5, r6, lr}
 1078              		.cfi_def_cfa_offset 16
 1079              		.cfi_offset 4, -16
 1080              		.cfi_offset 5, -12
 1081              		.cfi_offset 6, -8
 1082              		.cfi_offset 14, -4
 1083 0002 0500     		movs	r5, r0
 1084              	.LVL87:
 546:Generated_Source\PSoC4/ADC_Adc.c ****         {
 1085              		.loc 1 546 0
 1086 0004 1A4B     		ldr	r3, .L76
 1087 0006 1B78     		ldrb	r3, [r3]
 1088 0008 002B     		cmp	r3, #0
 1089 000a 01D1     		bne	.L68
 548:Generated_Source\PSoC4/ADC_Adc.c ****         }
 1090              		.loc 1 548 0
 1091 000c FFF7FEFF 		bl	ADC_ConfigAdcResources
 1092              	.LVL88:
 1093              	.L68:
 552:Generated_Source\PSoC4/ADC_Adc.c ****     {
 1094              		.loc 1 552 0
 1095 0010 002D     		cmp	r5, #0
 1096 0012 01D1     		bne	.L74
 537:Generated_Source\PSoC4/ADC_Adc.c **** 
 1097              		.loc 1 537 0
 1098 0014 0024     		movs	r4, #0
 1099 0016 00E0     		b	.L69
 1100              	.L74:
 554:Generated_Source\PSoC4/ADC_Adc.c ****     }
 1101              		.loc 1 554 0
 1102 0018 0124     		movs	r4, #1
 1103              	.L69:
 1104              	.LVL89:
ARM GAS  C:\Users\ADMIN\AppData\Local\Temp\ccekpMqd.s 			page 39


 557:Generated_Source\PSoC4/ADC_Adc.c ****     {
 1105              		.loc 1 557 0
 1106 001a 002C     		cmp	r4, #0
 1107 001c 25D1     		bne	.L70
 559:Generated_Source\PSoC4/ADC_Adc.c ****         {
 1108              		.loc 1 559 0
 1109 001e 154B     		ldr	r3, .L76+4
 1110 0020 1B79     		ldrb	r3, [r3, #4]
 1111 0022 0F22     		movs	r2, #15
 1112 0024 9343     		bics	r3, r2
 1113 0026 00D0     		beq	.L71
 561:Generated_Source\PSoC4/ADC_Adc.c ****         }
 1114              		.loc 1 561 0
 1115 0028 0434     		adds	r4, r4, #4
 1116              	.LVL90:
 1117              	.L71:
 564:Generated_Source\PSoC4/ADC_Adc.c ****         {
 1118              		.loc 1 564 0
 1119 002a 002C     		cmp	r4, #0
 1120 002c 1DD1     		bne	.L70
 567:Generated_Source\PSoC4/ADC_Adc.c ****             #endif /* (ADC_ADC_ANALOG_STARTUP_DELAY_US > 0uL) */
 1121              		.loc 1 567 0
 1122 002e 0520     		movs	r0, #5
 1123 0030 FFF7FEFF 		bl	CyDelayUs
 1124              	.LVL91:
 571:Generated_Source\PSoC4/ADC_Adc.c **** 
 1125              		.loc 1 571 0
 1126 0034 4023     		movs	r3, #64
 1127 0036 2B43     		orrs	r3, r5
 1128 0038 DBB2     		uxtb	r3, r3
 1129 003a 0E4A     		ldr	r2, .L76+4
 1130 003c 1371     		strb	r3, [r2, #4]
 574:Generated_Source\PSoC4/ADC_Adc.c ****             {
 1131              		.loc 1 574 0
 1132 003e 9079     		ldrb	r0, [r2, #6]
 1133 0040 8542     		cmp	r5, r0
 1134 0042 0AD0     		beq	.L72
 576:Generated_Source\PSoC4/ADC_Adc.c ****                 {
 1135              		.loc 1 576 0
 1136 0044 FF28     		cmp	r0, #255
 1137 0046 02D0     		beq	.L73
 579:Generated_Source\PSoC4/ADC_Adc.c ****                 }
 1138              		.loc 1 579 0
 1139 0048 0021     		movs	r1, #0
 1140 004a FFF7FEFF 		bl	ADC_SetAdcChannel
 1141              	.LVL92:
 1142              	.L73:
 582:Generated_Source\PSoC4/ADC_Adc.c ****                 ADC_dsRam.adcActiveCh = chId;
 1143              		.loc 1 582 0
 1144 004e 0121     		movs	r1, #1
 1145 0050 2800     		movs	r0, r5
 1146 0052 FFF7FEFF 		bl	ADC_SetAdcChannel
 1147              	.LVL93:
 583:Generated_Source\PSoC4/ADC_Adc.c ****             }
 1148              		.loc 1 583 0
 1149 0056 074B     		ldr	r3, .L76+4
 1150 0058 9D71     		strb	r5, [r3, #6]
ARM GAS  C:\Users\ADMIN\AppData\Local\Temp\ccekpMqd.s 			page 40


 1151              	.L72:
 587:Generated_Source\PSoC4/ADC_Adc.c ****             ADC_StartAdcFSM(ADC_MEASMODE_VIN);
 1152              		.loc 1 587 0
 1153 005a 8022     		movs	r2, #128
 1154 005c 5200     		lsls	r2, r2, #1
 1155 005e 064B     		ldr	r3, .L76+8
 1156 0060 1A60     		str	r2, [r3]
 588:Generated_Source\PSoC4/ADC_Adc.c ****         }
 1157              		.loc 1 588 0
 1158 0062 C020     		movs	r0, #192
 1159 0064 8002     		lsls	r0, r0, #10
 1160 0066 FFF7FEFF 		bl	ADC_StartAdcFSM
 1161              	.LVL94:
 1162              	.L70:
 597:Generated_Source\PSoC4/ADC_Adc.c **** 
 1163              		.loc 1 597 0
 1164 006a 2000     		movs	r0, r4
 1165              		@ sp needed
 1166              	.LVL95:
 1167 006c 70BD     		pop	{r4, r5, r6, pc}
 1168              	.L77:
 1169 006e C046     		.align	2
 1170              	.L76:
 1171 0070 00000000 		.word	.LANCHOR0
 1172 0074 00000000 		.word	ADC_dsRam
 1173 0078 F8000B40 		.word	1074462968
 1174              		.cfi_endproc
 1175              	.LFE10:
 1176              		.size	ADC_StartConvert, .-ADC_StartConvert
 1177              		.section	.text.ADC_ReadResult_mVolts,"ax",%progbits
 1178              		.align	2
 1179              		.global	ADC_ReadResult_mVolts
 1180              		.code	16
 1181              		.thumb_func
 1182              		.type	ADC_ReadResult_mVolts, %function
 1183              	ADC_ReadResult_mVolts:
 1184              	.LFB12:
 673:Generated_Source\PSoC4/ADC_Adc.c ****     cystatus convertStatus;
 1185              		.loc 1 673 0
 1186              		.cfi_startproc
 1187              		@ args = 0, pretend = 0, frame = 0
 1188              		@ frame_needed = 0, uses_anonymous_args = 0
 1189              	.LVL96:
 1190 0000 70B5     		push	{r4, r5, r6, lr}
 1191              		.cfi_def_cfa_offset 16
 1192              		.cfi_offset 4, -16
 1193              		.cfi_offset 5, -12
 1194              		.cfi_offset 6, -8
 1195              		.cfi_offset 14, -4
 1196 0002 0500     		movs	r5, r0
 678:Generated_Source\PSoC4/ADC_Adc.c ****     if (CYRET_SUCCESS == convertStatus)
 1197              		.loc 1 678 0
 1198 0004 FFF7FEFF 		bl	ADC_StartConvert
 1199              	.LVL97:
 679:Generated_Source\PSoC4/ADC_Adc.c ****     {
 1200              		.loc 1 679 0
 1201 0008 0028     		cmp	r0, #0
ARM GAS  C:\Users\ADMIN\AppData\Local\Temp\ccekpMqd.s 			page 41


 1202 000a 03D0     		beq	.L83
 700:Generated_Source\PSoC4/ADC_Adc.c ****     }
 1203              		.loc 1 700 0
 1204 000c 0948     		ldr	r0, .L85
 1205              	.LVL98:
 1206 000e 0FE0     		b	.L80
 1207              	.LVL99:
 1208              	.L82:
 687:Generated_Source\PSoC4/ADC_Adc.c ****         }
 1209              		.loc 1 687 0
 1210 0010 013C     		subs	r4, r4, #1
 1211              	.LVL100:
 1212 0012 00E0     		b	.L79
 1213              	.LVL101:
 1214              	.L83:
 1215 0014 074C     		ldr	r4, .L85
 1216              	.LVL102:
 1217              	.L79:
 683:Generated_Source\PSoC4/ADC_Adc.c ****                (0u != watchdogAdcCounter))
 1218              		.loc 1 683 0
 1219 0016 FFF7FEFF 		bl	ADC_IsBusy
 1220              	.LVL103:
 1221 001a 0028     		cmp	r0, #0
 1222 001c 01D0     		beq	.L81
 683:Generated_Source\PSoC4/ADC_Adc.c ****                (0u != watchdogAdcCounter))
 1223              		.loc 1 683 0 is_stmt 0 discriminator 1
 1224 001e 002C     		cmp	r4, #0
 1225 0020 F6D1     		bne	.L82
 1226              	.L81:
 689:Generated_Source\PSoC4/ADC_Adc.c ****         {
 1227              		.loc 1 689 0 is_stmt 1
 1228 0022 002C     		cmp	r4, #0
 1229 0024 03D0     		beq	.L84
 691:Generated_Source\PSoC4/ADC_Adc.c ****         }
 1230              		.loc 1 691 0
 1231 0026 2800     		movs	r0, r5
 1232 0028 FFF7FEFF 		bl	ADC_GetResult_mVolts
 1233              	.LVL104:
 1234 002c 00E0     		b	.L80
 1235              	.LVL105:
 1236              	.L84:
 695:Generated_Source\PSoC4/ADC_Adc.c ****         }
 1237              		.loc 1 695 0
 1238 002e 0148     		ldr	r0, .L85
 1239              	.LVL106:
 1240              	.L80:
 704:Generated_Source\PSoC4/ADC_Adc.c **** 
 1241              		.loc 1 704 0
 1242              		@ sp needed
 1243 0030 70BD     		pop	{r4, r5, r6, pc}
 1244              	.L86:
 1245 0032 C046     		.align	2
 1246              	.L85:
 1247 0034 FFFF0000 		.word	65535
 1248              		.cfi_endproc
 1249              	.LFE12:
 1250              		.size	ADC_ReadResult_mVolts, .-ADC_ReadResult_mVolts
ARM GAS  C:\Users\ADMIN\AppData\Local\Temp\ccekpMqd.s 			page 42


 1251              		.section	.text.ADC_Initialize,"ax",%progbits
 1252              		.align	2
 1253              		.global	ADC_Initialize
 1254              		.code	16
 1255              		.thumb_func
 1256              		.type	ADC_Initialize, %function
 1257              	ADC_Initialize:
 1258              	.LFB15:
 840:Generated_Source\PSoC4/ADC_Adc.c ****     ADC_ConfigAdcResources();
 1259              		.loc 1 840 0
 1260              		.cfi_startproc
 1261              		@ args = 0, pretend = 0, frame = 0
 1262              		@ frame_needed = 0, uses_anonymous_args = 0
 1263 0000 10B5     		push	{r4, lr}
 1264              		.cfi_def_cfa_offset 8
 1265              		.cfi_offset 4, -8
 1266              		.cfi_offset 14, -4
 841:Generated_Source\PSoC4/ADC_Adc.c ****     (void)ADC_Calibrate();
 1267              		.loc 1 841 0
 1268 0002 FFF7FEFF 		bl	ADC_ConfigAdcResources
 1269              	.LVL107:
 842:Generated_Source\PSoC4/ADC_Adc.c **** }
 1270              		.loc 1 842 0
 1271 0006 FFF7FEFF 		bl	ADC_Calibrate
 1272              	.LVL108:
 843:Generated_Source\PSoC4/ADC_Adc.c **** 
 1273              		.loc 1 843 0
 1274              		@ sp needed
 1275 000a 10BD     		pop	{r4, pc}
 1276              		.cfi_endproc
 1277              	.LFE15:
 1278              		.size	ADC_Initialize, .-ADC_Initialize
 1279              		.section	.text.ADC_Resume,"ax",%progbits
 1280              		.align	2
 1281              		.global	ADC_Resume
 1282              		.code	16
 1283              		.thumb_func
 1284              		.type	ADC_Resume, %function
 1285              	ADC_Resume:
 1286              	.LFB17:
 886:Generated_Source\PSoC4/ADC_Adc.c ****     ADC_Initialize();
 1287              		.loc 1 886 0
 1288              		.cfi_startproc
 1289              		@ args = 0, pretend = 0, frame = 0
 1290              		@ frame_needed = 0, uses_anonymous_args = 0
 1291 0000 10B5     		push	{r4, lr}
 1292              		.cfi_def_cfa_offset 8
 1293              		.cfi_offset 4, -8
 1294              		.cfi_offset 14, -4
 887:Generated_Source\PSoC4/ADC_Adc.c **** }
 1295              		.loc 1 887 0
 1296 0002 FFF7FEFF 		bl	ADC_Initialize
 1297              	.LVL109:
 888:Generated_Source\PSoC4/ADC_Adc.c **** 
 1298              		.loc 1 888 0
 1299              		@ sp needed
 1300 0006 10BD     		pop	{r4, pc}
ARM GAS  C:\Users\ADMIN\AppData\Local\Temp\ccekpMqd.s 			page 43


 1301              		.cfi_endproc
 1302              	.LFE17:
 1303              		.size	ADC_Resume, .-ADC_Resume
 1304              		.global	ADC_adcVrefMv
 1305              		.data
 1306              		.align	1
 1307              		.set	.LANCHOR1,. + 0
 1308              		.type	ADC_adcVrefMv, %object
 1309              		.size	ADC_adcVrefMv, 2
 1310              	ADC_adcVrefMv:
 1311 0000 5508     		.short	2133
 1312              		.bss
 1313              		.set	.LANCHOR0,. + 0
 1314              		.type	ADC_initVar, %object
 1315              		.size	ADC_initVar, 1
 1316              	ADC_initVar:
 1317 0000 00       		.space	1
 1318              		.text
 1319              	.Letext0:
 1320              		.file 2 "Generated_Source\\PSoC4/cytypes.h"
 1321              		.file 3 "Generated_Source\\PSoC4\\ADC_Structure.h"
 1322              		.file 4 "Generated_Source\\PSoC4\\CyLib.h"
 1323              		.file 5 "Generated_Source\\PSoC4\\ADC_ISR.h"