ARM GAS  C:\Users\ADMIN\AppData\Local\Temp\cco5Ld8g.s 			page 1


   1              		.syntax unified
   2              		.cpu cortex-m0plus
   3              		.fpu softvfp
   4              		.eabi_attribute 20, 1
   5              		.eabi_attribute 21, 1
   6              		.eabi_attribute 23, 3
   7              		.eabi_attribute 24, 1
   8              		.eabi_attribute 25, 1
   9              		.eabi_attribute 26, 1
  10              		.eabi_attribute 30, 1
  11              		.eabi_attribute 34, 0
  12              		.eabi_attribute 18, 4
  13              		.thumb
  14              		.syntax unified
  15              		.file	"i2c_goal.c"
  16              		.text
  17              	.Ltext0:
  18              		.cfi_sections	.debug_frame
  19              		.section	.text.i2c_main_loop,"ax",%progbits
  20              		.align	2
  21              		.global	i2c_main_loop
  22              		.code	16
  23              		.thumb_func
  24              		.type	i2c_main_loop, %function
  25              	i2c_main_loop:
  26              	.LFB33:
  27              		.file 1 "i2c_goal.c"
   1:i2c_goal.c    **** #include "goal.h"
   2:i2c_goal.c    **** 
   3:i2c_goal.c    **** uint8 data_from_ble[1];
   4:i2c_goal.c    **** uint8 data_from_mcu[4] = {0, 10, 15, 17};
   5:i2c_goal.c    **** 
   6:i2c_goal.c    **** void i2c_main_loop(void) {
  28              		.loc 1 6 0
  29              		.cfi_startproc
  30              		@ args = 0, pretend = 0, frame = 0
  31              		@ frame_needed = 0, uses_anonymous_args = 0
  32 0000 10B5     		push	{r4, lr}
  33              		.cfi_def_cfa_offset 8
  34              		.cfi_offset 4, -8
  35              		.cfi_offset 14, -4
   7:i2c_goal.c    ****     I2C_Master_I2CMasterClearStatus();
  36              		.loc 1 7 0
  37 0002 FFF7FEFF 		bl	I2C_Master_I2CMasterClearStatus
  38              	.LVL0:
   8:i2c_goal.c    ****     I2C_Master_I2CMasterWriteBuf(0x09, data_from_mcu, 4, I2C_Master_I2C_MODE_COMPLETE_XFER);
  39              		.loc 1 8 0
  40 0006 0023     		movs	r3, #0
  41 0008 0422     		movs	r2, #4
  42 000a 0749     		ldr	r1, .L3
  43 000c 0920     		movs	r0, #9
  44 000e FFF7FEFF 		bl	I2C_Master_I2CMasterWriteBuf
  45              	.LVL1:
  46              	.L2:
   9:i2c_goal.c    ****     while (0u == (I2C_Master_I2CMasterStatus() & I2C_Master_I2C_MSTAT_WR_CMPLT))
  47              		.loc 1 9 0 discriminator 1
  48 0012 FFF7FEFF 		bl	I2C_Master_I2CMasterStatus
ARM GAS  C:\Users\ADMIN\AppData\Local\Temp\cco5Ld8g.s 			page 2


  49              	.LVL2:
  50 0016 8307     		lsls	r3, r0, #30
  51 0018 FBD5     		bpl	.L2
  10:i2c_goal.c    ****     {   
  11:i2c_goal.c    ****     /* Waits until master completes write transfer */
  12:i2c_goal.c    ****     }         
  13:i2c_goal.c    ****     I2C_Master_I2CMasterReadBuf(0x08, data_from_ble, 1, I2C_Master_I2C_MODE_COMPLETE_XFER);
  52              		.loc 1 13 0
  53 001a 0023     		movs	r3, #0
  54 001c 0122     		movs	r2, #1
  55 001e 0349     		ldr	r1, .L3+4
  56 0020 0820     		movs	r0, #8
  57 0022 FFF7FEFF 		bl	I2C_Master_I2CMasterReadBuf
  58              	.LVL3:
  14:i2c_goal.c    **** }
  59              		.loc 1 14 0
  60              		@ sp needed
  61 0026 10BD     		pop	{r4, pc}
  62              	.L4:
  63              		.align	2
  64              	.L3:
  65 0028 00000000 		.word	.LANCHOR0
  66 002c 00000000 		.word	data_from_ble
  67              		.cfi_endproc
  68              	.LFE33:
  69              		.size	i2c_main_loop, .-i2c_main_loop
  70              		.section	.text.get_data_from_ble,"ax",%progbits
  71              		.align	2
  72              		.global	get_data_from_ble
  73              		.code	16
  74              		.thumb_func
  75              		.type	get_data_from_ble, %function
  76              	get_data_from_ble:
  77              	.LFB34:
  15:i2c_goal.c    **** 
  16:i2c_goal.c    **** uint16 get_data_from_ble(uint8 index) {
  78              		.loc 1 16 0
  79              		.cfi_startproc
  80              		@ args = 0, pretend = 0, frame = 0
  81              		@ frame_needed = 0, uses_anonymous_args = 0
  82              		@ link register save eliminated.
  83              	.LVL4:
  17:i2c_goal.c    ****     return data_from_ble[index];
  84              		.loc 1 17 0
  85 0000 014B     		ldr	r3, .L6
  86 0002 185C     		ldrb	r0, [r3, r0]
  87              	.LVL5:
  18:i2c_goal.c    **** }
  88              		.loc 1 18 0
  89              		@ sp needed
  90 0004 7047     		bx	lr
  91              	.L7:
  92 0006 C046     		.align	2
  93              	.L6:
  94 0008 00000000 		.word	data_from_ble
  95              		.cfi_endproc
  96              	.LFE34:
ARM GAS  C:\Users\ADMIN\AppData\Local\Temp\cco5Ld8g.s 			page 3


  97              		.size	get_data_from_ble, .-get_data_from_ble
  98              		.section	.text.set_data_from_mcu,"ax",%progbits
  99              		.align	2
 100              		.global	set_data_from_mcu
 101              		.code	16
 102              		.thumb_func
 103              		.type	set_data_from_mcu, %function
 104              	set_data_from_mcu:
 105              	.LFB35:
  19:i2c_goal.c    **** 
  20:i2c_goal.c    **** void set_data_from_mcu(uint8 index, uint16 value) {
 106              		.loc 1 20 0
 107              		.cfi_startproc
 108              		@ args = 0, pretend = 0, frame = 0
 109              		@ frame_needed = 0, uses_anonymous_args = 0
 110              		@ link register save eliminated.
 111              	.LVL6:
  21:i2c_goal.c    ****     data_from_mcu[index] = value;
 112              		.loc 1 21 0
 113 0000 014B     		ldr	r3, .L9
 114 0002 1954     		strb	r1, [r3, r0]
  22:i2c_goal.c    **** }
 115              		.loc 1 22 0
 116              		@ sp needed
 117 0004 7047     		bx	lr
 118              	.L10:
 119 0006 C046     		.align	2
 120              	.L9:
 121 0008 00000000 		.word	.LANCHOR0
 122              		.cfi_endproc
 123              	.LFE35:
 124              		.size	set_data_from_mcu, .-set_data_from_mcu
 125              		.global	data_from_mcu
 126              		.comm	data_from_ble,1,4
 127              		.data
 128              		.align	2
 129              		.set	.LANCHOR0,. + 0
 130              		.type	data_from_mcu, %object
 131              		.size	data_from_mcu, 4
 132              	data_from_mcu:
 133 0000 00       		.byte	0
 134 0001 0A       		.byte	10
 135 0002 0F       		.byte	15
 136 0003 11       		.byte	17
 137              		.text
 138              	.Letext0:
 139              		.file 2 "Generated_Source\\PSoC4/cytypes.h"
 140              		.file 3 "Generated_Source\\PSoC4/I2C_Master_I2C.h"