ARM GAS  C:\Users\Roi\AppData\Local\Temp\ccCHPjOl.s 			page 1


   1              		.syntax unified
   2              		.cpu cortex-m0
   3              		.fpu softvfp
   4              		.eabi_attribute 20, 1
   5              		.eabi_attribute 21, 1
   6              		.eabi_attribute 23, 3
   7              		.eabi_attribute 24, 1
   8              		.eabi_attribute 25, 1
   9              		.eabi_attribute 26, 1
  10              		.eabi_attribute 30, 1
  11              		.eabi_attribute 34, 0
  12              		.eabi_attribute 18, 4
  13              		.thumb
  14              		.syntax unified
  15              		.file	"adc_smartboy.c"
  16              		.text
  17              	.Ltext0:
  18              		.cfi_sections	.debug_frame
  19              		.section	.text.adc_init,"ax",%progbits
  20              		.align	2
  21              		.global	adc_init
  22              		.code	16
  23              		.thumb_func
  24              		.type	adc_init, %function
  25              	adc_init:
  26              	.LFB63:
  27              		.file 1 "adc_smartboy.c"
   1:adc_smartboy.c **** #include "smartboy.h"
   2:adc_smartboy.c **** 
   3:adc_smartboy.c **** void adc_init(void) {
  28              		.loc 1 3 0
  29              		.cfi_startproc
  30              		@ args = 0, pretend = 0, frame = 0
  31              		@ frame_needed = 0, uses_anonymous_args = 0
  32 0000 10B5     		push	{r4, lr}
  33              		.cfi_def_cfa_offset 8
  34              		.cfi_offset 4, -8
  35              		.cfi_offset 14, -4
   4:adc_smartboy.c ****     ADC_Start();
  36              		.loc 1 4 0
  37 0002 FFF7FEFF 		bl	ADC_Start
  38              	.LVL0:
   5:adc_smartboy.c ****     ADC_StartConvert();
  39              		.loc 1 5 0
  40 0006 FFF7FEFF 		bl	ADC_StartConvert
  41              	.LVL1:
   6:adc_smartboy.c **** }
  42              		.loc 1 6 0
  43              		@ sp needed
  44 000a 10BD     		pop	{r4, pc}
  45              		.cfi_endproc
  46              	.LFE63:
  47              		.size	adc_init, .-adc_init
  48              		.section	.text.read_adc_by_channel,"ax",%progbits
  49              		.align	2
  50              		.global	read_adc_by_channel
  51              		.code	16
ARM GAS  C:\Users\Roi\AppData\Local\Temp\ccCHPjOl.s 			page 2


  52              		.thumb_func
  53              		.type	read_adc_by_channel, %function
  54              	read_adc_by_channel:
  55              	.LFB64:
   7:adc_smartboy.c **** 
   8:adc_smartboy.c **** uint16 read_adc_by_channel(uint8 channel) {
  56              		.loc 1 8 0
  57              		.cfi_startproc
  58              		@ args = 0, pretend = 0, frame = 0
  59              		@ frame_needed = 0, uses_anonymous_args = 0
  60              	.LVL2:
  61 0000 10B5     		push	{r4, lr}
  62              		.cfi_def_cfa_offset 8
  63              		.cfi_offset 4, -8
  64              		.cfi_offset 14, -4
   9:adc_smartboy.c ****     uint16 adc_value = ADC_GetResult16(channel);
  65              		.loc 1 9 0
  66 0002 FFF7FEFF 		bl	ADC_GetResult16
  67              	.LVL3:
  68 0006 80B2     		uxth	r0, r0
  69              	.LVL4:
  10:adc_smartboy.c ****     //uint16 value = ADC_CountsTo_mVolts(channel, result);
  11:adc_smartboy.c ****     return adc_value;
  12:adc_smartboy.c **** }
  70              		.loc 1 12 0
  71              		@ sp needed
  72 0008 10BD     		pop	{r4, pc}
  73              		.cfi_endproc
  74              	.LFE64:
  75              		.size	read_adc_by_channel, .-read_adc_by_channel
  76 000a C046     		.text
  77              	.Letext0:
  78              		.file 2 "Generated_Source\\PSoC4/cytypes.h"
  79              		.file 3 "Generated_Source\\PSoC4/ADC.h"
  80              		.file 4 "Generated_Source\\PSoC4/RTC.h"