ARM GAS  C:\Users\Roi\AppData\Local\Temp\ccrZ2FCb.s 			page 1


   1              		.syntax unified
   2              		.cpu cortex-m0
   3              		.fpu softvfp
   4              		.eabi_attribute 20, 1
   5              		.eabi_attribute 21, 1
   6              		.eabi_attribute 23, 3
   7              		.eabi_attribute 24, 1
   8              		.eabi_attribute 25, 1
   9              		.eabi_attribute 26, 1
  10              		.eabi_attribute 30, 1
  11              		.eabi_attribute 34, 0
  12              		.eabi_attribute 18, 4
  13              		.thumb
  14              		.syntax unified
  15              		.file	"adc_read.c"
  16              		.text
  17              	.Ltext0:
  18              		.cfi_sections	.debug_frame
  19              		.section	.text.adc_init,"ax",%progbits
  20              		.align	2
  21              		.global	adc_init
  22              		.code	16
  23              		.thumb_func
  24              		.type	adc_init, %function
  25              	adc_init:
  26              	.LFB36:
  27              		.file 1 "adc_read.c"
   1:adc_read.c    **** #include "smartboy.h"
   2:adc_read.c    **** 
   3:adc_read.c    **** void adc_init(void) {
  28              		.loc 1 3 0
  29              		.cfi_startproc
  30              		@ args = 0, pretend = 0, frame = 0
  31              		@ frame_needed = 0, uses_anonymous_args = 0
  32 0000 10B5     		push	{r4, lr}
  33              		.cfi_def_cfa_offset 8
  34              		.cfi_offset 4, -8
  35              		.cfi_offset 14, -4
   4:adc_read.c    ****     ADC_Start();
  36              		.loc 1 4 0
  37 0002 FFF7FEFF 		bl	ADC_Start
  38              	.LVL0:
   5:adc_read.c    ****     ADC_StartConvert();
  39              		.loc 1 5 0
  40 0006 FFF7FEFF 		bl	ADC_StartConvert
  41              	.LVL1:
   6:adc_read.c    **** }
  42              		.loc 1 6 0
  43              		@ sp needed
  44 000a 10BD     		pop	{r4, pc}
  45              		.cfi_endproc
  46              	.LFE36:
  47              		.size	adc_init, .-adc_init
  48              		.section	.text.get_adc_by_channel,"ax",%progbits
  49              		.align	2
  50              		.global	get_adc_by_channel
  51              		.code	16
ARM GAS  C:\Users\Roi\AppData\Local\Temp\ccrZ2FCb.s 			page 2


  52              		.thumb_func
  53              		.type	get_adc_by_channel, %function
  54              	get_adc_by_channel:
  55              	.LFB37:
   7:adc_read.c    **** 
   8:adc_read.c    **** uint16 get_adc_by_channel(uint8 channel) {
  56              		.loc 1 8 0
  57              		.cfi_startproc
  58              		@ args = 0, pretend = 0, frame = 0
  59              		@ frame_needed = 0, uses_anonymous_args = 0
  60              	.LVL2:
  61 0000 10B5     		push	{r4, lr}
  62              		.cfi_def_cfa_offset 8
  63              		.cfi_offset 4, -8
  64              		.cfi_offset 14, -4
   9:adc_read.c    ****     uint16 adc_value = ADC_GetResult16(channel);
  65              		.loc 1 9 0
  66 0002 FFF7FEFF 		bl	ADC_GetResult16
  67              	.LVL3:
  68 0006 80B2     		uxth	r0, r0
  69              	.LVL4:
  10:adc_read.c    ****     return adc_value;
  11:adc_read.c    **** }
  70              		.loc 1 11 0
  71              		@ sp needed
  72 0008 10BD     		pop	{r4, pc}
  73              		.cfi_endproc
  74              	.LFE37:
  75              		.size	get_adc_by_channel, .-get_adc_by_channel
  76 000a C046     		.section	.text.get_adc_list,"ax",%progbits
  77              		.align	2
  78              		.global	get_adc_list
  79              		.code	16
  80              		.thumb_func
  81              		.type	get_adc_list, %function
  82              	get_adc_list:
  83              	.LFB38:
  12:adc_read.c    **** 
  13:adc_read.c    **** uint16 * get_adc_list(void) {
  84              		.loc 1 13 0
  85              		.cfi_startproc
  86              		@ args = 0, pretend = 0, frame = 0
  87              		@ frame_needed = 0, uses_anonymous_args = 0
  88 0000 70B5     		push	{r4, r5, r6, lr}
  89              		.cfi_def_cfa_offset 16
  90              		.cfi_offset 4, -16
  91              		.cfi_offset 5, -12
  92              		.cfi_offset 6, -8
  93              		.cfi_offset 14, -4
  14:adc_read.c    ****     uint16 *adc_values = (uint16 *)malloc(NUMBERS_OF_SENSORS*sizeof(uint16));
  94              		.loc 1 14 0
  95 0002 0420     		movs	r0, #4
  96 0004 FFF7FEFF 		bl	malloc
  97              	.LVL5:
  98 0008 0600     		movs	r6, r0
  99              	.LVL6:
 100              	.LBB2:
ARM GAS  C:\Users\Roi\AppData\Local\Temp\ccrZ2FCb.s 			page 3


  15:adc_read.c    ****     for(int channel = 0; channel < NUMBERS_OF_SENSORS; channel++){
 101              		.loc 1 15 0
 102 000a 0024     		movs	r4, #0
 103 000c 06E0     		b	.L4
 104              	.LVL7:
 105              	.L5:
  16:adc_read.c    ****         adc_values[channel] = get_adc_by_channel(channel);
 106              		.loc 1 16 0 discriminator 3
 107 000e 6500     		lsls	r5, r4, #1
 108 0010 7519     		adds	r5, r6, r5
 109 0012 E0B2     		uxtb	r0, r4
 110 0014 FFF7FEFF 		bl	get_adc_by_channel
 111              	.LVL8:
 112 0018 2880     		strh	r0, [r5]
  15:adc_read.c    ****     for(int channel = 0; channel < NUMBERS_OF_SENSORS; channel++){
 113              		.loc 1 15 0 discriminator 3
 114 001a 0134     		adds	r4, r4, #1
 115              	.LVL9:
 116              	.L4:
  15:adc_read.c    ****     for(int channel = 0; channel < NUMBERS_OF_SENSORS; channel++){
 117              		.loc 1 15 0 is_stmt 0 discriminator 1
 118 001c 012C     		cmp	r4, #1
 119 001e F6DD     		ble	.L5
 120              	.LBE2:
  17:adc_read.c    ****     }
  18:adc_read.c    ****     return adc_values;
  19:adc_read.c    **** }
 121              		.loc 1 19 0 is_stmt 1
 122 0020 3000     		movs	r0, r6
 123              		@ sp needed
 124              	.LVL10:
 125              	.LVL11:
 126 0022 70BD     		pop	{r4, r5, r6, pc}
 127              		.cfi_endproc
 128              	.LFE38:
 129              		.size	get_adc_list, .-get_adc_list
 130              		.text
 131              	.Letext0:
 132              		.file 2 "Generated_Source\\PSoC4/cytypes.h"
 133              		.file 3 "Generated_Source\\PSoC4/ADC.h"
 134              		.file 4 "c:\\program files (x86)\\cypress\\psoc creator\\4.2\\psoc creator\\import\\gnu\\arm\\5.4.