ARM GAS  C:\Users\Roi\AppData\Local\Temp\cc0h5MCy.s 			page 1


   1              		.syntax unified
   2              		.cpu cortex-m0
   3              		.fpu softvfp
   4              		.eabi_attribute 20, 1
   5              		.eabi_attribute 21, 1
   6              		.eabi_attribute 23, 3
   7              		.eabi_attribute 24, 1
   8              		.eabi_attribute 25, 1
   9              		.eabi_attribute 26, 1
  10              		.eabi_attribute 30, 1
  11              		.eabi_attribute 34, 0
  12              		.eabi_attribute 18, 4
  13              		.thumb
  14              		.syntax unified
  15              		.file	"ble_client.c"
  16              		.text
  17              	.Ltext0:
  18              		.cfi_sections	.debug_frame
  19              		.section	.text.HandleScanDevices,"ax",%progbits
  20              		.align	2
  21              		.global	HandleScanDevices
  22              		.code	16
  23              		.thumb_func
  24              		.type	HandleScanDevices, %function
  25              	HandleScanDevices:
  26              	.LFB38:
  27              		.file 1 "ble_client.c"
   1:ble_client.c  **** #include "smartboy.h"
   2:ble_client.c  **** 
   3:ble_client.c  **** /* 'list_of_devices' is an array of type 'CYBLE_GAPC_ADV_REPORT_T' (defined in 
   4:ble_client.c  ****  * BLE_StackGap.h) that is used to store the reports of the peripheral devices
   5:ble_client.c  **** * being scanned by this Central device*/
   6:ble_client.c  **** CYBLE_GAPC_ADV_REPORT_T 	list_of_devices[CYBLE_MAX_ADV_DEVICES];
   7:ble_client.c  **** 
   8:ble_client.c  **** /* 'connectPeriphDevice' is a variable of type 'CYBLE_GAP_BD_ADDR_T' (defined in 
   9:ble_client.c  **** * BLE_StackGap.h) and is used to store address of the connected device. */
  10:ble_client.c  **** CYBLE_GAP_BD_ADDR_T 		connectPeriphDevice;
  11:ble_client.c  **** 
  12:ble_client.c  **** /* 'connHandle' is a variable of type 'CYBLE_CONN_HANDLE_T' (defined in 
  13:ble_client.c  **** * BLE_StackGatt.h) and is used to store the connection handle parameters after
  14:ble_client.c  **** * connecting with the peripheral device. */
  15:ble_client.c  **** extern CYBLE_CONN_HANDLE_T connHandle;
  16:ble_client.c  **** 
  17:ble_client.c  **** 
  18:ble_client.c  **** /* 'ble_state' stores the state of connection which is used for updating LEDs */
  19:ble_client.c  **** uint8 ble_state = BLE_DISCONNECTED;
  20:ble_client.c  **** 
  21:ble_client.c  **** /* 'address_store' stores the addresses returned by Scanning results */
  22:ble_client.c  **** uint8 address_store[10][6];
  23:ble_client.c  **** 
  24:ble_client.c  **** /* 'peripheralAddress' stores the addresses of device presently connected to */
  25:ble_client.c  **** uint8 peripheralAddress[6];
  26:ble_client.c  **** 
  27:ble_client.c  **** /* Goal primary adress (from 2nd to 6th byte) for compare 
  28:ble_client.c  **** to determine is it goal device or no, first byte don't compare*/
  29:ble_client.c  **** uint8 goalCompareAddress[6] = {
  30:ble_client.c  ****     0x00, 0x34, 0x12, 0x50, 0xA0, 0x00
ARM GAS  C:\Users\Roi\AppData\Local\Temp\cc0h5MCy.s 			page 2


  31:ble_client.c  **** };
  32:ble_client.c  **** 
  33:ble_client.c  **** /* 'peripheralFound' flag tells whether the peripheral device with the required Address
  34:ble_client.c  ****  * has been found during scanning or not. */
  35:ble_client.c  **** uint8 peripheralFound = FALSE;
  36:ble_client.c  **** 
  37:ble_client.c  **** /* 'addedDevices' tells the number of devices that has been added to the list till now. */
  38:ble_client.c  **** uint8 addedDevices = FALSE;
  39:ble_client.c  **** 
  40:ble_client.c  **** uint8 savedData;
  41:ble_client.c  **** 
  42:ble_client.c  **** bool isDataRead = false;
  43:ble_client.c  **** 
  44:ble_client.c  **** bool isConnecting;
  45:ble_client.c  **** CY_ISR(Timer_Int_Handler) {
  46:ble_client.c  ****     Timer_Stop();
  47:ble_client.c  ****     stop_scan();
  48:ble_client.c  ****     handle_scan_results();
  49:ble_client.c  **** }
  50:ble_client.c  **** 
  51:ble_client.c  **** // Call back event function to handle various events from BLE stack 
  52:ble_client.c  **** void BleCallBack(uint32 event, void *eventparam) {
  53:ble_client.c  **** 	/* 'apiResult' is a variable of type 'CYBLE_API_RESULT_T' (defined in 
  54:ble_client.c  **** 	* BLE_StackTypes.h) and is used to store the return value from BLE APIs. */
  55:ble_client.c  **** 	CYBLE_API_RESULT_T 			apiResult;
  56:ble_client.c  **** 	
  57:ble_client.c  **** 	/* 'scan_report' is a variable of type 'CYBLE_GAPC_ADV_REPORT_T' (defined in 
  58:ble_client.c  **** 	* BLE_StackGap.h) and is used to store report retuned from Scan results. */
  59:ble_client.c  **** 	CYBLE_GAPC_ADV_REPORT_T		scan_report;
  60:ble_client.c  ****     
  61:ble_client.c  ****     //CYBLE_GATTC_READ_BY_TYPE_REQ_T readByTypeReqParam;
  62:ble_client.c  **** 	//CYBLE_GATT_ATTR_HANDLE_RANGE_T range;
  63:ble_client.c  ****     //CYBLE_UUID_T uuid;
  64:ble_client.c  ****     CYBLE_GATTC_READ_BY_GRP_RSP_PARAM_T readResponse;
  65:ble_client.c  **** 	CYBLE_GATTS_WRITE_CMD_REQ_PARAM_T *wrReqParam;
  66:ble_client.c  ****     
  67:ble_client.c  ****     bool ble_mode = get_ble_mode();
  68:ble_client.c  ****     
  69:ble_client.c  **** 	switch(event) {
  70:ble_client.c  **** 		case CYBLE_EVT_STACK_ON:
  71:ble_client.c  **** 			/* Set start scanning flag to allow calling the API in main loop */
  72:ble_client.c  ****             if(!ble_mode){
  73:ble_client.c  ****                 start_advertisement();
  74:ble_client.c  ****                 //break;
  75:ble_client.c  ****             }
  76:ble_client.c  **** 		    break;
  77:ble_client.c  **** 
  78:ble_client.c  **** 		case CYBLE_EVT_GAPC_SCAN_START_STOP:
  79:ble_client.c  **** 			/* Add relevant code here pertaining to Starting/Stopping of Scan*/
  80:ble_client.c  **** 			if(CyBle_GetState() == CYBLE_STATE_DISCONNECTED) {
  81:ble_client.c  **** 				ble_state = BLE_DISCONNECTED;
  82:ble_client.c  **** 				
  83:ble_client.c  **** 				if(!peripheralFound) {
  84:ble_client.c  **** 					/* Restart Scanning */
  85:ble_client.c  **** 					Status_LED_Red_Write(1);
  86:ble_client.c  **** 				}
  87:ble_client.c  **** 			} else {
ARM GAS  C:\Users\Roi\AppData\Local\Temp\cc0h5MCy.s 			page 3


  88:ble_client.c  **** 				ble_state = BLE_SCANNING;
  89:ble_client.c  **** 			}
  90:ble_client.c  **** 		break;
  91:ble_client.c  **** 			
  92:ble_client.c  **** 		case CYBLE_EVT_GAPC_SCAN_PROGRESS_RESULT:
  93:ble_client.c  **** 			/* This event is generated whenever there is a device found*/
  94:ble_client.c  **** 			if(CYBLE_STATE_CONNECTED != CyBle_GetState())	 {
  95:ble_client.c  **** 				/* If we are not connected to any peripheral device, then save the new device  
  96:ble_client.c  **** 					information so to add it to our list */
  97:ble_client.c  **** 				scan_report = *(CYBLE_GAPC_ADV_REPORT_T*) eventparam;
  98:ble_client.c  **** 				
  99:ble_client.c  **** 				/* Add the new device to existing list if not done yet, and compare the address with our
 100:ble_client.c  **** 					required address.*/
 101:ble_client.c  **** 				HandleScanDevices(&scan_report);
 102:ble_client.c  **** 			}
 103:ble_client.c  **** 			/* Update the LED status for BLE scanning mode*/
 104:ble_client.c  **** 			ble_state = BLE_SCANNING;
 105:ble_client.c  **** 		break;
 106:ble_client.c  **** 			
 107:ble_client.c  ****  		case CYBLE_EVT_GATT_CONNECT_IND:
 108:ble_client.c  **** 
 109:ble_client.c  **** 			/* When the peripheral device is connected, store the connection handle.*/
 110:ble_client.c  ****             connHandle = *(CYBLE_CONN_HANDLE_T *)eventparam;
 111:ble_client.c  ****             break;
 112:ble_client.c  **** 			
 113:ble_client.c  **** 		case CYBLE_EVT_GATT_DISCONNECT_IND:
 114:ble_client.c  **** 			/* When the peripheral device is disconnected, reset variables*/
 115:ble_client.c  **** 			
 116:ble_client.c  **** 			break;
 117:ble_client.c  **** 			
 118:ble_client.c  **** 		case CYBLE_EVT_GAP_DEVICE_CONNECTED:
 119:ble_client.c  **** 			
 120:ble_client.c  **** 			/* The Device is connected now. Start Attributes discovery process.*/
 121:ble_client.c  **** 			apiResult = CyBle_GattcStartDiscovery(connHandle);
 122:ble_client.c  **** 			
 123:ble_client.c  **** 			if(apiResult != CYBLE_ERROR_OK) {
 124:ble_client.c  **** 
 125:ble_client.c  **** 			}
 126:ble_client.c  **** 			
 127:ble_client.c  **** 			/* Update the LED status for BLE discovery mode*/
 128:ble_client.c  **** 			ble_state = BLE_SERVICE_DISCOVERY;
 129:ble_client.c  ****             break;
 130:ble_client.c  **** 			
 131:ble_client.c  **** 		case CYBLE_EVT_GAP_DEVICE_DISCONNECTED:
 132:ble_client.c  ****             //
 133:ble_client.c  ****             //
 134:ble_client.c  ****             if(ble_mode){
 135:ble_client.c  ****     			/* Reset all saved peripheral Addresses */
 136:ble_client.c  ****     			for(int i = 0; i < addedDevices; i++) {
 137:ble_client.c  ****     				list_of_devices[i].peerBdAddr[0] = FALSE;
 138:ble_client.c  ****     				list_of_devices[i].peerBdAddr[1] = FALSE;
 139:ble_client.c  ****     				list_of_devices[i].peerBdAddr[2] = FALSE;
 140:ble_client.c  ****     				list_of_devices[i].peerBdAddr[3] = FALSE;
 141:ble_client.c  ****     				list_of_devices[i].peerBdAddr[4] = FALSE;
 142:ble_client.c  ****     				list_of_devices[i].peerBdAddr[5] = FALSE;
 143:ble_client.c  ****     			}
 144:ble_client.c  ****     			
ARM GAS  C:\Users\Roi\AppData\Local\Temp\cc0h5MCy.s 			page 4


 145:ble_client.c  ****     			/* Reset application Flags on BLE Disconnect */
 146:ble_client.c  ****     			addedDevices = FALSE;
 147:ble_client.c  ****     			peripheralFound = FALSE;
 148:ble_client.c  ****     			ble_state = BLE_DISCONNECTED;
 149:ble_client.c  ****     			
 150:ble_client.c  ****     			
 151:ble_client.c  ****     			/* Update LED Status for Disconnection */
 152:ble_client.c  ****     			HandleLEDs(ble_state);
 153:ble_client.c  ****     			if(apiResult != CYBLE_ERROR_OK)
 154:ble_client.c  ****     			{
 155:ble_client.c  ****     			}
 156:ble_client.c  ****                 //break;
 157:ble_client.c  ****             }else{
 158:ble_client.c  ****                 start_advertisement();
 159:ble_client.c  ****                 break;
 160:ble_client.c  ****             }
 161:ble_client.c  ****         break;
 162:ble_client.c  **** 			
 163:ble_client.c  **** 	
 164:ble_client.c  **** 		case CYBLE_EVT_GATTC_DISCOVERY_COMPLETE:
 165:ble_client.c  **** 			/* This event is generated whenever the discovery procedure is complete*/
 166:ble_client.c  ****             /*range.startHandle   = 0x0001;
 167:ble_client.c  ****             range.endHandle     = 0xFFFF;
 168:ble_client.c  ****             uuid.uuid16         = 0xb1b1;       //uuid of the characteristic to be read.
 169:ble_client.c  **** 
 170:ble_client.c  ****             readByTypeReqParam.range = range;
 171:ble_client.c  ****             readByTypeReqParam.uuid = uuid;
 172:ble_client.c  ****             readByTypeReqParam.uuidFormat = 0x01;
 173:ble_client.c  **** 
 174:ble_client.c  ****             apiResult = CyBle_GattcReadUsingCharacteristicUuid(connHandle, &readByTypeReqParam);
 175:ble_client.c  **** 
 176:ble_client.c  ****             if ( apiResult != CYBLE_ERROR_OK ) {
 177:ble_client.c  ****             }*/
 178:ble_client.c  **** 
 179:ble_client.c  **** 			
 180:ble_client.c  **** 			/* Update the LED status for BLE discovery mode*/
 181:ble_client.c  **** 			ble_state = BLE_CONNECTED;
 182:ble_client.c  **** 		    break;
 183:ble_client.c  ****         
 184:ble_client.c  ****         case CYBLE_EVT_GATTC_READ_BY_TYPE_RSP:
 185:ble_client.c  ****             readResponse = *(CYBLE_GATTC_READ_BY_TYPE_RSP_PARAM_T *) eventparam;
 186:ble_client.c  ****             save_data(readResponse.attrData.attrValue[2]);
 187:ble_client.c  **** 
 188:ble_client.c  ****             isDataRead = true;
 189:ble_client.c  ****             /*uint8 result[3];
 190:ble_client.c  ****             result[2] = readResponse.attrData.attrValue[2];
 191:ble_client.c  ****             LCD_Position(1, 11);
 192:ble_client.c  ****             char8 buffer[3];
 193:ble_client.c  ****             sprintf(buffer, "%u", result[2]);
 194:ble_client.c  ****             LCD_PrintString(buffer);*/
 195:ble_client.c  ****             break;
 196:ble_client.c  ****            
 197:ble_client.c  ****         case CYBLE_EVT_GATTS_WRITE_REQ:
 198:ble_client.c  ****             wrReqParam =(CYBLE_GATTS_WRITE_REQ_PARAM_T*) eventparam;
 199:ble_client.c  ****                                       
 200:ble_client.c  ****             /*write request is for custom characteristic*/
 201:ble_client.c  ****                 
ARM GAS  C:\Users\Roi\AppData\Local\Temp\cc0h5MCy.s 			page 5


 202:ble_client.c  ****             
 203:ble_client.c  ****             //ClientCommand= wrReqParam->handleValPair.value.val[0];
 204:ble_client.c  ****             //ExecuteClientCommand(ClientCommand);
 205:ble_client.c  ****         
 206:ble_client.c  ****                 
 207:ble_client.c  ****             /*Write request is for CCCD*/
 208:ble_client.c  ****             Status_LED_Red_Write(wrReqParam->handleValPair.value.val[0]);
 209:ble_client.c  ****      
 210:ble_client.c  ****             CyBle_GattsWriteRsp(wrReqParam->connHandle);/* response to write characterisitc from cl
 211:ble_client.c  ****                
 212:ble_client.c  ****             break;
 213:ble_client.c  **** 			
 214:ble_client.c  **** 		default:
 215:ble_client.c  **** 		    break;
 216:ble_client.c  **** 	}
 217:ble_client.c  **** }
 218:ble_client.c  **** 
 219:ble_client.c  **** /*  This function checks for new devices that have been scanned and ads them
 220:ble_client.c  **** to its internal list. Also, if one of the scanned peripherals is Goal,
 221:ble_client.c  **** then it sets flag to allow connection with it. */
 222:ble_client.c  **** void HandleScanDevices(CYBLE_GAPC_ADV_REPORT_T* scanReport) {
  28              		.loc 1 222 0
  29              		.cfi_startproc
  30              		@ args = 0, pretend = 0, frame = 0
  31              		@ frame_needed = 0, uses_anonymous_args = 0
  32              	.LVL0:
  33 0000 70B5     		push	{r4, r5, r6, lr}
  34              		.cfi_def_cfa_offset 16
  35              		.cfi_offset 4, -16
  36              		.cfi_offset 5, -12
  37              		.cfi_offset 6, -8
  38              		.cfi_offset 14, -4
  39 0002 0600     		movs	r6, r0
  40              	.LVL1:
 223:ble_client.c  **** 	uint16 i;
 224:ble_client.c  **** 	uint8 newDevice = TRUE;
 225:ble_client.c  **** 	
 226:ble_client.c  **** 	if((addedDevices < CYBLE_MAX_ADV_DEVICES)) {
  41              		.loc 1 226 0
  42 0004 454B     		ldr	r3, .L16
  43 0006 1D78     		ldrb	r5, [r3]
  44 0008 092D     		cmp	r5, #9
  45 000a 14D9     		bls	.L13
  46 000c 85E0     		b	.L1
  47              	.LVL2:
  48              	.L5:
 227:ble_client.c  **** 		for(i = 0; i < addedDevices; i++) {
 228:ble_client.c  **** 			/* Initialize the peerBdAddr element of our list.*/
 229:ble_client.c  **** 			list_of_devices[i].peerBdAddr = &address_store[i][0];
  49              		.loc 1 229 0
  50 000e 6300     		lsls	r3, r4, #1
  51 0010 1B19     		adds	r3, r3, r4
  52 0012 5800     		lsls	r0, r3, #1
  53 0014 424B     		ldr	r3, .L16+4
  54 0016 C018     		adds	r0, r0, r3
  55 0018 A200     		lsls	r2, r4, #2
  56 001a 1219     		adds	r2, r2, r4
ARM GAS  C:\Users\Roi\AppData\Local\Temp\cc0h5MCy.s 			page 6


  57 001c 9300     		lsls	r3, r2, #2
  58 001e 414A     		ldr	r2, .L16+8
  59 0020 D318     		adds	r3, r2, r3
  60 0022 5860     		str	r0, [r3, #4]
 230:ble_client.c  **** 			
 231:ble_client.c  **** 			/* In this for loop, compare the new device address with the existing addresses in the list to 
 232:ble_client.c  **** 				determine if the address is new or not. If the address exists in the list, then the device 
 233:ble_client.c  **** 				is not new.*/
 234:ble_client.c  **** 			if(FALSE == memcmp(list_of_devices[i].peerBdAddr, scanReport->peerBdAddr, ADV_ADDR_LEN)) {
  61              		.loc 1 234 0
  62 0024 0622     		movs	r2, #6
  63 0026 7168     		ldr	r1, [r6, #4]
  64 0028 FFF7FEFF 		bl	memcmp
  65              	.LVL3:
  66 002c 0028     		cmp	r0, #0
  67 002e 08D0     		beq	.L14
 227:ble_client.c  **** 		for(i = 0; i < addedDevices; i++) {
  68              		.loc 1 227 0 discriminator 2
  69 0030 0134     		adds	r4, r4, #1
  70              	.LVL4:
  71 0032 A4B2     		uxth	r4, r4
  72              	.LVL5:
  73 0034 00E0     		b	.L2
  74              	.LVL6:
  75              	.L13:
  76 0036 0024     		movs	r4, #0
  77              	.LVL7:
  78              	.L2:
 227:ble_client.c  **** 		for(i = 0; i < addedDevices; i++) {
  79              		.loc 1 227 0 is_stmt 0 discriminator 1
  80 0038 ABB2     		uxth	r3, r5
  81 003a 9C42     		cmp	r4, r3
  82 003c E7D3     		bcc	.L5
 224:ble_client.c  **** 	
  83              		.loc 1 224 0 is_stmt 1
  84 003e 0123     		movs	r3, #1
  85 0040 00E0     		b	.L4
  86              	.L14:
 235:ble_client.c  **** 				newDevice = FALSE;
  87              		.loc 1 235 0
  88 0042 0023     		movs	r3, #0
  89              	.L4:
  90              	.LVL8:
 236:ble_client.c  **** 				break;
 237:ble_client.c  **** 			}
 238:ble_client.c  **** 		}
 239:ble_client.c  **** 		
 240:ble_client.c  **** 		if(newDevice) {
  91              		.loc 1 240 0
  92 0044 002B     		cmp	r3, #0
  93 0046 68D0     		beq	.L1
 241:ble_client.c  **** 			/* If the device address is new, then add the device to our existing list and compare the addres
 242:ble_client.c  **** 				with our expected address to see if the desired peripheral is advertising or not.*/
 243:ble_client.c  **** 			
 244:ble_client.c  **** 			list_of_devices[addedDevices].peerBdAddr = &address_store[addedDevices][0];
  94              		.loc 1 244 0
  95 0048 6B00     		lsls	r3, r5, #1
ARM GAS  C:\Users\Roi\AppData\Local\Temp\cc0h5MCy.s 			page 7


  96              	.LVL9:
  97 004a 5B19     		adds	r3, r3, r5
  98 004c 5800     		lsls	r0, r3, #1
  99 004e 344B     		ldr	r3, .L16+4
 100 0050 C018     		adds	r0, r0, r3
 101 0052 344A     		ldr	r2, .L16+8
 102 0054 A900     		lsls	r1, r5, #2
 103 0056 4C19     		adds	r4, r1, r5
 104              	.LVL10:
 105 0058 A300     		lsls	r3, r4, #2
 106 005a D318     		adds	r3, r2, r3
 107 005c 5860     		str	r0, [r3, #4]
 245:ble_client.c  **** 			
 246:ble_client.c  **** 			/* Store the data*/
 247:ble_client.c  **** 			list_of_devices[addedDevices].dataLen = scanReport->dataLen;
 108              		.loc 1 247 0
 109 005e 307A     		ldrb	r0, [r6, #8]
 110 0060 1872     		strb	r0, [r3, #8]
 248:ble_client.c  **** 			
 249:ble_client.c  **** 			list_of_devices[addedDevices].data = scanReport->data;
 111              		.loc 1 249 0
 112 0062 F068     		ldr	r0, [r6, #12]
 113 0064 D860     		str	r0, [r3, #12]
 250:ble_client.c  **** 			
 251:ble_client.c  **** 			list_of_devices[addedDevices].eventType = scanReport->eventType;
 114              		.loc 1 251 0
 115 0066 3478     		ldrb	r4, [r6]
 116 0068 4819     		adds	r0, r1, r5
 117 006a 8300     		lsls	r3, r0, #2
 118 006c 9C54     		strb	r4, [r3, r2]
 252:ble_client.c  **** 			/* Record the address type, Public or Random, of the advertising peripheral.*/
 253:ble_client.c  **** 			list_of_devices[addedDevices].peerAddrType = scanReport->peerAddrType;
 119              		.loc 1 253 0
 120 006e 7078     		ldrb	r0, [r6, #1]
 121 0070 D318     		adds	r3, r2, r3
 122 0072 5870     		strb	r0, [r3, #1]
 123              	.LVL11:
 124              	.LBB2:
 254:ble_client.c  **** 			
 255:ble_client.c  **** 			/* Save the BD addresses */
 256:ble_client.c  ****             for(uint8 i = 0; i < 6; i++) {
 125              		.loc 1 256 0
 126 0074 0023     		movs	r3, #0
 127 0076 0CE0     		b	.L6
 128              	.LVL12:
 129              	.L7:
 257:ble_client.c  **** 			    list_of_devices[addedDevices].peerBdAddr[i] = scanReport->peerBdAddr[i];
 130              		.loc 1 257 0 discriminator 3
 131 0078 284A     		ldr	r2, .L16
 132 007a 1278     		ldrb	r2, [r2]
 133 007c 9100     		lsls	r1, r2, #2
 134 007e 8A18     		adds	r2, r1, r2
 135 0080 9100     		lsls	r1, r2, #2
 136 0082 284A     		ldr	r2, .L16+8
 137 0084 5118     		adds	r1, r2, r1
 138 0086 4A68     		ldr	r2, [r1, #4]
 139 0088 7168     		ldr	r1, [r6, #4]
ARM GAS  C:\Users\Roi\AppData\Local\Temp\cc0h5MCy.s 			page 8


 140 008a C95C     		ldrb	r1, [r1, r3]
 141 008c D154     		strb	r1, [r2, r3]
 256:ble_client.c  **** 			    list_of_devices[addedDevices].peerBdAddr[i] = scanReport->peerBdAddr[i];
 142              		.loc 1 256 0 discriminator 3
 143 008e 0133     		adds	r3, r3, #1
 144              	.LVL13:
 145 0090 DBB2     		uxtb	r3, r3
 146              	.LVL14:
 147              	.L6:
 256:ble_client.c  **** 			    list_of_devices[addedDevices].peerBdAddr[i] = scanReport->peerBdAddr[i];
 148              		.loc 1 256 0 is_stmt 0 discriminator 1
 149 0092 052B     		cmp	r3, #5
 150 0094 F0D9     		bls	.L7
 151 0096 0023     		movs	r3, #0
 152              	.LVL15:
 153 0098 0BE0     		b	.L8
 154              	.LVL16:
 155              	.L9:
 156              	.LBE2:
 157              	.LBB3:
 258:ble_client.c  ****             }
 259:ble_client.c  ****             
 260:ble_client.c  ****             /* Save address for compare */
 261:ble_client.c  ****             for(uint8 i = 0; i < 6; i++) {
 262:ble_client.c  ****                 address_store[addedDevices][i] = scanReport->peerBdAddr[i];
 158              		.loc 1 262 0 is_stmt 1 discriminator 3
 159 009a 204A     		ldr	r2, .L16
 160 009c 1278     		ldrb	r2, [r2]
 161 009e 7168     		ldr	r1, [r6, #4]
 162 00a0 C85C     		ldrb	r0, [r1, r3]
 163 00a2 5100     		lsls	r1, r2, #1
 164 00a4 8A18     		adds	r2, r1, r2
 165 00a6 5100     		lsls	r1, r2, #1
 166 00a8 1D4A     		ldr	r2, .L16+4
 167 00aa 5118     		adds	r1, r2, r1
 168 00ac C854     		strb	r0, [r1, r3]
 261:ble_client.c  ****                 address_store[addedDevices][i] = scanReport->peerBdAddr[i];
 169              		.loc 1 261 0 discriminator 3
 170 00ae 0133     		adds	r3, r3, #1
 171              	.LVL17:
 172 00b0 DBB2     		uxtb	r3, r3
 173              	.LVL18:
 174              	.L8:
 261:ble_client.c  ****                 address_store[addedDevices][i] = scanReport->peerBdAddr[i];
 175              		.loc 1 261 0 is_stmt 0 discriminator 1
 176 00b2 052B     		cmp	r3, #5
 177 00b4 F1D9     		bls	.L9
 178              	.LBE3:
 263:ble_client.c  ****             }
 264:ble_client.c  **** 			
 265:ble_client.c  **** 			list_of_devices[addedDevices].rssi = scanReport->rssi;
 179              		.loc 1 265 0 is_stmt 1
 180 00b6 194B     		ldr	r3, .L16
 181              	.LVL19:
 182 00b8 1C78     		ldrb	r4, [r3]
 183 00ba 1021     		movs	r1, #16
 184 00bc 7156     		ldrsb	r1, [r6, r1]
ARM GAS  C:\Users\Roi\AppData\Local\Temp\cc0h5MCy.s 			page 9


 185 00be A200     		lsls	r2, r4, #2
 186 00c0 1219     		adds	r2, r2, r4
 187 00c2 9300     		lsls	r3, r2, #2
 188 00c4 174A     		ldr	r2, .L16+8
 189 00c6 D318     		adds	r3, r2, r3
 190 00c8 1974     		strb	r1, [r3, #16]
 266:ble_client.c  **** 			
 267:ble_client.c  **** 			/* If the new BD address found matches the desired BD address, the Peripheral has been found*/
 268:ble_client.c  **** 			if(FALSE == memcmp(peripheralAddress, scanReport->peerBdAddr, ADV_ADDR_LEN)) {
 191              		.loc 1 268 0
 192 00ca 0622     		movs	r2, #6
 193 00cc 7168     		ldr	r1, [r6, #4]
 194 00ce 1648     		ldr	r0, .L16+12
 195 00d0 FFF7FEFF 		bl	memcmp
 196              	.LVL20:
 197 00d4 0028     		cmp	r0, #0
 198 00d6 07D0     		beq	.L15
 199 00d8 1BE0     		b	.L11
 200              	.LVL21:
 201              	.L12:
 202              	.LBB4:
 269:ble_client.c  **** 				/* Save the connected device BD Address and Type*/
 270:ble_client.c  ****                 for(uint8 i = 0; i < 6; i++) {
 271:ble_client.c  **** 				    connectPeriphDevice.bdAddr[i] = scanReport->peerBdAddr[i];
 203              		.loc 1 271 0 discriminator 3
 204 00da 7268     		ldr	r2, [r6, #4]
 205 00dc D15C     		ldrb	r1, [r2, r3]
 206 00de 134A     		ldr	r2, .L16+16
 207 00e0 D154     		strb	r1, [r2, r3]
 270:ble_client.c  **** 				    connectPeriphDevice.bdAddr[i] = scanReport->peerBdAddr[i];
 208              		.loc 1 270 0 discriminator 3
 209 00e2 0133     		adds	r3, r3, #1
 210              	.LVL22:
 211 00e4 DBB2     		uxtb	r3, r3
 212              	.LVL23:
 213 00e6 00E0     		b	.L10
 214              	.LVL24:
 215              	.L15:
 216              	.LBE4:
 217 00e8 0023     		movs	r3, #0
 218              	.L10:
 219              	.LVL25:
 220              	.LBB5:
 270:ble_client.c  **** 				    connectPeriphDevice.bdAddr[i] = scanReport->peerBdAddr[i];
 221              		.loc 1 270 0 is_stmt 0 discriminator 1
 222 00ea 052B     		cmp	r3, #5
 223 00ec F5D9     		bls	.L12
 224              	.LBE5:
 272:ble_client.c  ****                 }
 273:ble_client.c  **** 				
 274:ble_client.c  **** 				connectPeriphDevice.type = list_of_devices[addedDevices].peerAddrType;
 225              		.loc 1 274 0 is_stmt 1
 226 00ee A300     		lsls	r3, r4, #2
 227              	.LVL26:
 228 00f0 1C19     		adds	r4, r3, r4
 229 00f2 A300     		lsls	r3, r4, #2
 230 00f4 0B4A     		ldr	r2, .L16+8
ARM GAS  C:\Users\Roi\AppData\Local\Temp\cc0h5MCy.s 			page 10


 231 00f6 D318     		adds	r3, r2, r3
 232 00f8 5A78     		ldrb	r2, [r3, #1]
 233 00fa 0C4B     		ldr	r3, .L16+16
 234 00fc 9A71     		strb	r2, [r3, #6]
 275:ble_client.c  **** 					
 276:ble_client.c  **** 				/* Set the flag to notify application of a connected peripheral device */
 277:ble_client.c  **** 				peripheralFound = TRUE;	
 235              		.loc 1 277 0
 236 00fe 0122     		movs	r2, #1
 237 0100 064B     		ldr	r3, .L16
 238 0102 5A70     		strb	r2, [r3, #1]
 278:ble_client.c  **** 				
 279:ble_client.c  **** 				/* Stop existing BLE Scan */
 280:ble_client.c  **** 				CyBle_GapcStopScan();
 239              		.loc 1 280 0
 240 0104 FFF7FEFF 		bl	CyBle_GapcStopScan
 241              	.LVL27:
 281:ble_client.c  ****                 Timer_WriteCounter(0);
 242              		.loc 1 281 0
 243 0108 0020     		movs	r0, #0
 244 010a FFF7FEFF 		bl	Timer_WriteCounter
 245              	.LVL28:
 282:ble_client.c  ****                 Timer_Stop();
 246              		.loc 1 282 0
 247 010e FFF7FEFF 		bl	Timer_Stop
 248              	.LVL29:
 249              	.L11:
 283:ble_client.c  **** 			}
 284:ble_client.c  **** 			
 285:ble_client.c  **** 			addedDevices++;
 250              		.loc 1 285 0
 251 0112 024A     		ldr	r2, .L16
 252 0114 1378     		ldrb	r3, [r2]
 253 0116 0133     		adds	r3, r3, #1
 254 0118 1370     		strb	r3, [r2]
 255              	.L1:
 286:ble_client.c  **** 		}
 287:ble_client.c  **** 		
 288:ble_client.c  **** 		newDevice = TRUE;
 289:ble_client.c  **** 	}
 290:ble_client.c  **** }
 256              		.loc 1 290 0
 257              		@ sp needed
 258              	.LVL30:
 259 011a 70BD     		pop	{r4, r5, r6, pc}
 260              	.L17:
 261              		.align	2
 262              	.L16:
 263 011c 00000000 		.word	.LANCHOR0
 264 0120 00000000 		.word	address_store
 265 0124 00000000 		.word	list_of_devices
 266 0128 00000000 		.word	peripheralAddress
 267 012c 00000000 		.word	connectPeriphDevice
 268              		.cfi_endproc
 269              	.LFE38:
 270              		.size	HandleScanDevices, .-HandleScanDevices
 271              		.section	.text.set_initial_peripheral_address,"ax",%progbits
ARM GAS  C:\Users\Roi\AppData\Local\Temp\cc0h5MCy.s 			page 11


 272              		.align	2
 273              		.global	set_initial_peripheral_address
 274              		.code	16
 275              		.thumb_func
 276              		.type	set_initial_peripheral_address, %function
 277              	set_initial_peripheral_address:
 278              	.LFB39:
 291:ble_client.c  **** 
 292:ble_client.c  **** void set_initial_peripheral_address(void) {
 279              		.loc 1 292 0
 280              		.cfi_startproc
 281              		@ args = 0, pretend = 0, frame = 0
 282              		@ frame_needed = 0, uses_anonymous_args = 0
 283              		@ link register save eliminated.
 293:ble_client.c  **** 	/* This stores the 6-byte BD address of peripheral device to which we have to connect.
 294:ble_client.c  **** 	   This array is then used to compare the addresses of the advertising peripherals. 
 295:ble_client.c  ****        If one of the advertising peripherals has the same address, then we know it is 
 296:ble_client.c  ****        the device which we want to connect and initiate a connection request to it.*/
 297:ble_client.c  **** 		peripheralAddress[5] = 0x00;
 284              		.loc 1 297 0
 285 0000 064B     		ldr	r3, .L19
 286 0002 0022     		movs	r2, #0
 287 0004 5A71     		strb	r2, [r3, #5]
 298:ble_client.c  **** 		peripheralAddress[4] = 0xA0;
 288              		.loc 1 298 0
 289 0006 A021     		movs	r1, #160
 290 0008 1971     		strb	r1, [r3, #4]
 299:ble_client.c  **** 		peripheralAddress[3] = 0x50;
 291              		.loc 1 299 0
 292 000a 5039     		subs	r1, r1, #80
 293 000c D970     		strb	r1, [r3, #3]
 300:ble_client.c  **** 		peripheralAddress[2] = 0x12;
 294              		.loc 1 300 0
 295 000e 3E39     		subs	r1, r1, #62
 296 0010 9970     		strb	r1, [r3, #2]
 301:ble_client.c  **** 		peripheralAddress[1] = 0x34;
 297              		.loc 1 301 0
 298 0012 2231     		adds	r1, r1, #34
 299 0014 5970     		strb	r1, [r3, #1]
 302:ble_client.c  **** 		peripheralAddress[0] = 0x00;
 300              		.loc 1 302 0
 301 0016 1A70     		strb	r2, [r3]
 303:ble_client.c  **** }
 302              		.loc 1 303 0
 303              		@ sp needed
 304 0018 7047     		bx	lr
 305              	.L20:
 306 001a C046     		.align	2
 307              	.L19:
 308 001c 00000000 		.word	peripheralAddress
 309              		.cfi_endproc
 310              	.LFE39:
 311              		.size	set_initial_peripheral_address, .-set_initial_peripheral_address
 312              		.section	.text.start_scan,"ax",%progbits
 313              		.align	2
 314              		.global	start_scan
 315              		.code	16
ARM GAS  C:\Users\Roi\AppData\Local\Temp\cc0h5MCy.s 			page 12


 316              		.thumb_func
 317              		.type	start_scan, %function
 318              	start_scan:
 319              	.LFB41:
 304:ble_client.c  **** 
 305:ble_client.c  **** void handle_scan(void) {
 306:ble_client.c  ****     /* If rescanning flag is TRUE, the restart the scan */
 307:ble_client.c  ****     if(ble_state == BLE_DISCONNECTED)
 308:ble_client.c  **** 	{
 309:ble_client.c  ****         /* Reset flag to prevent calling multiple Start Scan commands */
 310:ble_client.c  **** 		Timer_Start();
 311:ble_client.c  ****     	start_scan();
 312:ble_client.c  ****     } 
 313:ble_client.c  **** }
 314:ble_client.c  **** 
 315:ble_client.c  **** void start_scan(void){
 320              		.loc 1 315 0
 321              		.cfi_startproc
 322              		@ args = 0, pretend = 0, frame = 0
 323              		@ frame_needed = 0, uses_anonymous_args = 0
 324 0000 10B5     		push	{r4, lr}
 325              		.cfi_def_cfa_offset 8
 326              		.cfi_offset 4, -8
 327              		.cfi_offset 14, -4
 316:ble_client.c  ****     Status_LED_Red_Write(0);
 328              		.loc 1 316 0
 329 0002 0020     		movs	r0, #0
 330 0004 FFF7FEFF 		bl	Status_LED_Red_Write
 331              	.LVL31:
 317:ble_client.c  ****     CyDelay(1);
 332              		.loc 1 317 0
 333 0008 0120     		movs	r0, #1
 334 000a FFF7FEFF 		bl	CyDelay
 335              	.LVL32:
 318:ble_client.c  ****     CyBle_GapcStartScan(CYBLE_SCANNING_FAST);
 336              		.loc 1 318 0
 337 000e 0020     		movs	r0, #0
 338 0010 FFF7FEFF 		bl	CyBle_GapcStartScan
 339              	.LVL33:
 319:ble_client.c  **** }
 340              		.loc 1 319 0
 341              		@ sp needed
 342 0014 10BD     		pop	{r4, pc}
 343              		.cfi_endproc
 344              	.LFE41:
 345              		.size	start_scan, .-start_scan
 346 0016 C046     		.section	.text.handle_scan,"ax",%progbits
 347              		.align	2
 348              		.global	handle_scan
 349              		.code	16
 350              		.thumb_func
 351              		.type	handle_scan, %function
 352              	handle_scan:
 353              	.LFB40:
 305:ble_client.c  ****     /* If rescanning flag is TRUE, the restart the scan */
 354              		.loc 1 305 0
 355              		.cfi_startproc
ARM GAS  C:\Users\Roi\AppData\Local\Temp\cc0h5MCy.s 			page 13


 356              		@ args = 0, pretend = 0, frame = 0
 357              		@ frame_needed = 0, uses_anonymous_args = 0
 358 0000 10B5     		push	{r4, lr}
 359              		.cfi_def_cfa_offset 8
 360              		.cfi_offset 4, -8
 361              		.cfi_offset 14, -4
 307:ble_client.c  **** 	{
 362              		.loc 1 307 0
 363 0002 044B     		ldr	r3, .L24
 364 0004 1B78     		ldrb	r3, [r3]
 365 0006 012B     		cmp	r3, #1
 366 0008 03D1     		bne	.L22
 310:ble_client.c  ****     	start_scan();
 367              		.loc 1 310 0
 368 000a FFF7FEFF 		bl	Timer_Start
 369              	.LVL34:
 311:ble_client.c  ****     } 
 370              		.loc 1 311 0
 371 000e FFF7FEFF 		bl	start_scan
 372              	.LVL35:
 373              	.L22:
 313:ble_client.c  **** 
 374              		.loc 1 313 0
 375              		@ sp needed
 376 0012 10BD     		pop	{r4, pc}
 377              	.L25:
 378              		.align	2
 379              	.L24:
 380 0014 00000000 		.word	.LANCHOR1
 381              		.cfi_endproc
 382              	.LFE40:
 383              		.size	handle_scan, .-handle_scan
 384              		.section	.text.stop_scan,"ax",%progbits
 385              		.align	2
 386              		.global	stop_scan
 387              		.code	16
 388              		.thumb_func
 389              		.type	stop_scan, %function
 390              	stop_scan:
 391              	.LFB42:
 320:ble_client.c  **** 
 321:ble_client.c  **** void stop_scan(void){
 392              		.loc 1 321 0
 393              		.cfi_startproc
 394              		@ args = 0, pretend = 0, frame = 0
 395              		@ frame_needed = 0, uses_anonymous_args = 0
 396 0000 10B5     		push	{r4, lr}
 397              		.cfi_def_cfa_offset 8
 398              		.cfi_offset 4, -8
 399              		.cfi_offset 14, -4
 322:ble_client.c  ****     Status_LED_Red_Write(1);
 400              		.loc 1 322 0
 401 0002 0120     		movs	r0, #1
 402 0004 FFF7FEFF 		bl	Status_LED_Red_Write
 403              	.LVL36:
 323:ble_client.c  ****     CyDelay(1);
 404              		.loc 1 323 0
ARM GAS  C:\Users\Roi\AppData\Local\Temp\cc0h5MCy.s 			page 14


 405 0008 0120     		movs	r0, #1
 406 000a FFF7FEFF 		bl	CyDelay
 407              	.LVL37:
 324:ble_client.c  ****     CyBle_GapcStopScan();
 408              		.loc 1 324 0
 409 000e FFF7FEFF 		bl	CyBle_GapcStopScan
 410              	.LVL38:
 325:ble_client.c  **** }
 411              		.loc 1 325 0
 412              		@ sp needed
 413 0012 10BD     		pop	{r4, pc}
 414              		.cfi_endproc
 415              	.LFE42:
 416              		.size	stop_scan, .-stop_scan
 417              		.section	.text.connect,"ax",%progbits
 418              		.align	2
 419              		.global	connect
 420              		.code	16
 421              		.thumb_func
 422              		.type	connect, %function
 423              	connect:
 424              	.LFB43:
 326:ble_client.c  **** 
 327:ble_client.c  **** void connect(void) {
 425              		.loc 1 327 0
 426              		.cfi_startproc
 427              		@ args = 0, pretend = 0, frame = 0
 428              		@ frame_needed = 0, uses_anonymous_args = 0
 429 0000 10B5     		push	{r4, lr}
 430              		.cfi_def_cfa_offset 8
 431              		.cfi_offset 4, -8
 432              		.cfi_offset 14, -4
 328:ble_client.c  ****     Status_LED_Green_Write(0);
 433              		.loc 1 328 0
 434 0002 0020     		movs	r0, #0
 435 0004 FFF7FEFF 		bl	Status_LED_Green_Write
 436              	.LVL39:
 329:ble_client.c  ****     if(peripheralFound) {
 437              		.loc 1 329 0
 438 0008 064B     		ldr	r3, .L29
 439 000a 5B78     		ldrb	r3, [r3, #1]
 440 000c 002B     		cmp	r3, #0
 441 000e 08D0     		beq	.L27
 330:ble_client.c  ****         //stop_scan();
 331:ble_client.c  ****         /* If the desired peripheral is found, then connect to that peripheral */
 332:ble_client.c  ****         CyDelay(1);
 442              		.loc 1 332 0
 443 0010 0120     		movs	r0, #1
 444 0012 FFF7FEFF 		bl	CyDelay
 445              	.LVL40:
 333:ble_client.c  **** 		CyBle_GapcConnectDevice(&connectPeriphDevice);
 446              		.loc 1 333 0
 447 0016 0448     		ldr	r0, .L29+4
 448 0018 FFF7FEFF 		bl	CyBle_GapcConnectDevice
 449              	.LVL41:
 334:ble_client.c  **** 			
 335:ble_client.c  **** 		//CyBle_ProcessEvents();
ARM GAS  C:\Users\Roi\AppData\Local\Temp\cc0h5MCy.s 			page 15


 336:ble_client.c  **** 		
 337:ble_client.c  **** 		/* Reset flag to prevent resending the Connect command */
 338:ble_client.c  **** 		peripheralFound = FALSE;
 450              		.loc 1 338 0
 451 001c 0022     		movs	r2, #0
 452 001e 014B     		ldr	r3, .L29
 453 0020 5A70     		strb	r2, [r3, #1]
 454              	.L27:
 339:ble_client.c  **** 	}
 340:ble_client.c  **** }
 455              		.loc 1 340 0
 456              		@ sp needed
 457 0022 10BD     		pop	{r4, pc}
 458              	.L30:
 459              		.align	2
 460              	.L29:
 461 0024 00000000 		.word	.LANCHOR0
 462 0028 00000000 		.word	connectPeriphDevice
 463              		.cfi_endproc
 464              	.LFE43:
 465              		.size	connect, .-connect
 466              		.section	.text.disconnect,"ax",%progbits
 467              		.align	2
 468              		.global	disconnect
 469              		.code	16
 470              		.thumb_func
 471              		.type	disconnect, %function
 472              	disconnect:
 473              	.LFB44:
 341:ble_client.c  **** 
 342:ble_client.c  **** void disconnect(void){
 474              		.loc 1 342 0
 475              		.cfi_startproc
 476              		@ args = 0, pretend = 0, frame = 0
 477              		@ frame_needed = 0, uses_anonymous_args = 0
 478 0000 10B5     		push	{r4, lr}
 479              		.cfi_def_cfa_offset 8
 480              		.cfi_offset 4, -8
 481              		.cfi_offset 14, -4
 343:ble_client.c  ****     Status_LED_Green_Write(1);
 482              		.loc 1 343 0
 483 0002 0120     		movs	r0, #1
 484 0004 FFF7FEFF 		bl	Status_LED_Green_Write
 485              	.LVL42:
 344:ble_client.c  ****     CyDelay(1);
 486              		.loc 1 344 0
 487 0008 0120     		movs	r0, #1
 488 000a FFF7FEFF 		bl	CyDelay
 489              	.LVL43:
 345:ble_client.c  ****     CyBle_GapDisconnect(connHandle.bdHandle);
 490              		.loc 1 345 0
 491 000e 024B     		ldr	r3, .L32
 492 0010 1878     		ldrb	r0, [r3]
 493 0012 FFF7FEFF 		bl	CyBle_GapDisconnect
 494              	.LVL44:
 346:ble_client.c  **** }
 495              		.loc 1 346 0
ARM GAS  C:\Users\Roi\AppData\Local\Temp\cc0h5MCy.s 			page 16


 496              		@ sp needed
 497 0016 10BD     		pop	{r4, pc}
 498              	.L33:
 499              		.align	2
 500              	.L32:
 501 0018 00000000 		.word	connHandle
 502              		.cfi_endproc
 503              	.LFE44:
 504              		.size	disconnect, .-disconnect
 505              		.section	.text.start_advertisement,"ax",%progbits
 506              		.align	2
 507              		.global	start_advertisement
 508              		.code	16
 509              		.thumb_func
 510              		.type	start_advertisement, %function
 511              	start_advertisement:
 512              	.LFB45:
 347:ble_client.c  **** 
 348:ble_client.c  **** void start_advertisement(void){
 513              		.loc 1 348 0
 514              		.cfi_startproc
 515              		@ args = 0, pretend = 0, frame = 0
 516              		@ frame_needed = 0, uses_anonymous_args = 0
 517 0000 10B5     		push	{r4, lr}
 518              		.cfi_def_cfa_offset 8
 519              		.cfi_offset 4, -8
 520              		.cfi_offset 14, -4
 349:ble_client.c  ****     Status_LED_Blue_Write(0);
 521              		.loc 1 349 0
 522 0002 0020     		movs	r0, #0
 523 0004 FFF7FEFF 		bl	Status_LED_Blue_Write
 524              	.LVL45:
 350:ble_client.c  ****     CyDelay(1);
 525              		.loc 1 350 0
 526 0008 0120     		movs	r0, #1
 527 000a FFF7FEFF 		bl	CyDelay
 528              	.LVL46:
 351:ble_client.c  ****     CyBle_GappStartAdvertisement(CYBLE_ADVERTISING_FAST);
 529              		.loc 1 351 0
 530 000e 0020     		movs	r0, #0
 531 0010 FFF7FEFF 		bl	CyBle_GappStartAdvertisement
 532              	.LVL47:
 352:ble_client.c  **** }
 533              		.loc 1 352 0
 534              		@ sp needed
 535 0014 10BD     		pop	{r4, pc}
 536              		.cfi_endproc
 537              	.LFE45:
 538              		.size	start_advertisement, .-start_advertisement
 539 0016 C046     		.section	.text.stop_advertisement,"ax",%progbits
 540              		.align	2
 541              		.global	stop_advertisement
 542              		.code	16
 543              		.thumb_func
 544              		.type	stop_advertisement, %function
 545              	stop_advertisement:
 546              	.LFB46:
ARM GAS  C:\Users\Roi\AppData\Local\Temp\cc0h5MCy.s 			page 17


 353:ble_client.c  **** 
 354:ble_client.c  **** void stop_advertisement(void){
 547              		.loc 1 354 0
 548              		.cfi_startproc
 549              		@ args = 0, pretend = 0, frame = 0
 550              		@ frame_needed = 0, uses_anonymous_args = 0
 551 0000 10B5     		push	{r4, lr}
 552              		.cfi_def_cfa_offset 8
 553              		.cfi_offset 4, -8
 554              		.cfi_offset 14, -4
 355:ble_client.c  ****     Status_LED_Blue_Write(1);
 555              		.loc 1 355 0
 556 0002 0120     		movs	r0, #1
 557 0004 FFF7FEFF 		bl	Status_LED_Blue_Write
 558              	.LVL48:
 356:ble_client.c  ****     CyDelay(1);
 559              		.loc 1 356 0
 560 0008 0120     		movs	r0, #1
 561 000a FFF7FEFF 		bl	CyDelay
 562              	.LVL49:
 357:ble_client.c  ****     CyBle_GappStopAdvertisement();
 563              		.loc 1 357 0
 564 000e FFF7FEFF 		bl	CyBle_GappStopAdvertisement
 565              	.LVL50:
 358:ble_client.c  **** }
 566              		.loc 1 358 0
 567              		@ sp needed
 568 0012 10BD     		pop	{r4, pc}
 569              		.cfi_endproc
 570              	.LFE46:
 571              		.size	stop_advertisement, .-stop_advertisement
 572              		.section	.text.change_mode,"ax",%progbits
 573              		.align	2
 574              		.global	change_mode
 575              		.code	16
 576              		.thumb_func
 577              		.type	change_mode, %function
 578              	change_mode:
 579              	.LFB47:
 359:ble_client.c  **** 
 360:ble_client.c  **** void change_mode(void){
 580              		.loc 1 360 0
 581              		.cfi_startproc
 582              		@ args = 0, pretend = 0, frame = 0
 583              		@ frame_needed = 0, uses_anonymous_args = 0
 584 0000 10B5     		push	{r4, lr}
 585              		.cfi_def_cfa_offset 8
 586              		.cfi_offset 4, -8
 587              		.cfi_offset 14, -4
 361:ble_client.c  ****     bool status = get_ble_mode();
 588              		.loc 1 361 0
 589 0002 FFF7FEFF 		bl	get_ble_mode
 590              	.LVL51:
 362:ble_client.c  ****     if(status){
 591              		.loc 1 362 0
 592 0006 0028     		cmp	r0, #0
 593 0008 06D0     		beq	.L37
ARM GAS  C:\Users\Roi\AppData\Local\Temp\cc0h5MCy.s 			page 18


 363:ble_client.c  ****         disconnect();
 594              		.loc 1 363 0
 595 000a FFF7FEFF 		bl	disconnect
 596              	.LVL52:
 364:ble_client.c  ****         stop_advertisement();
 597              		.loc 1 364 0
 598 000e FFF7FEFF 		bl	stop_advertisement
 599              	.LVL53:
 365:ble_client.c  ****         //sensor_signalization();
 366:ble_client.c  ****         start_scan();
 600              		.loc 1 366 0
 601 0012 FFF7FEFF 		bl	start_scan
 602              	.LVL54:
 603 0016 05E0     		b	.L36
 604              	.LVL55:
 605              	.L37:
 367:ble_client.c  ****     }else{
 368:ble_client.c  ****         stop_scan();
 606              		.loc 1 368 0
 607 0018 FFF7FEFF 		bl	stop_scan
 608              	.LVL56:
 369:ble_client.c  ****         disconnect();
 609              		.loc 1 369 0
 610 001c FFF7FEFF 		bl	disconnect
 611              	.LVL57:
 370:ble_client.c  ****         start_advertisement();
 612              		.loc 1 370 0
 613 0020 FFF7FEFF 		bl	start_advertisement
 614              	.LVL58:
 615              	.L36:
 371:ble_client.c  ****     }
 372:ble_client.c  **** }
 616              		.loc 1 372 0
 617              		@ sp needed
 618 0024 10BD     		pop	{r4, pc}
 619              		.cfi_endproc
 620              	.LFE47:
 621              		.size	change_mode, .-change_mode
 622 0026 C046     		.section	.text.handle_scan_results,"ax",%progbits
 623              		.align	2
 624              		.global	handle_scan_results
 625              		.code	16
 626              		.thumb_func
 627              		.type	handle_scan_results, %function
 628              	handle_scan_results:
 629              	.LFB48:
 373:ble_client.c  **** 
 374:ble_client.c  **** void handle_scan_results(void) {
 630              		.loc 1 374 0
 631              		.cfi_startproc
 632              		@ args = 0, pretend = 0, frame = 72
 633              		@ frame_needed = 0, uses_anonymous_args = 0
 634 0000 F0B5     		push	{r4, r5, r6, r7, lr}
 635              		.cfi_def_cfa_offset 20
 636              		.cfi_offset 4, -20
 637              		.cfi_offset 5, -16
 638              		.cfi_offset 6, -12
ARM GAS  C:\Users\Roi\AppData\Local\Temp\cc0h5MCy.s 			page 19


 639              		.cfi_offset 7, -8
 640              		.cfi_offset 14, -4
 641 0002 93B0     		sub	sp, sp, #76
 642              		.cfi_def_cfa_offset 96
 643              	.LVL59:
 644              	.LBB6:
 645 0004 0025     		movs	r5, #0
 646 0006 0027     		movs	r7, #0
 647 0008 2FE0     		b	.L43
 648              	.LVL60:
 649              	.L49:
 650              	.LBE6:
 651              	.LBB7:
 652              	.LBB8:
 375:ble_client.c  ****     // stores the addresses returned by Scannig results 
 376:ble_client.c  ****     uint8 scannedGoalAddresses[10][6];
 377:ble_client.c  ****     
 378:ble_client.c  ****     // Stores amount of goal devices about  
 379:ble_client.c  ****     uint8 goalDevices;
 380:ble_client.c  ****     
 381:ble_client.c  ****     uint8 emptyAddress[6];
 382:ble_client.c  ****     // Clear previous scanned goal addresses
 383:ble_client.c  ****     for(uint8 i = 0; i < goalDevices; i++) {
 384:ble_client.c  ****         for(uint8 j = 0; j < 6; j++) {
 385:ble_client.c  ****             scannedGoalAddresses[i][j] = 0;     
 386:ble_client.c  ****         }
 387:ble_client.c  ****     }
 388:ble_client.c  ****     goalDevices = 0;
 389:ble_client.c  ****     
 390:ble_client.c  ****     for(uint8 i = 0; i < CYBLE_MAX_ADV_DEVICES; i++) {
 391:ble_client.c  ****         // If compared address is empty, then next others will be empty too, so break
 392:ble_client.c  ****         if(0 == memcmp(emptyAddress, address_store[i], ADV_ADDR_LEN)) {
 653              		.loc 1 392 0
 654 000a 2C00     		movs	r4, r5
 655 000c 6E00     		lsls	r6, r5, #1
 656 000e 7619     		adds	r6, r6, r5
 657 0010 7600     		lsls	r6, r6, #1
 658 0012 224B     		ldr	r3, .L56
 659 0014 F618     		adds	r6, r6, r3
 660 0016 0622     		movs	r2, #6
 661 0018 3100     		movs	r1, r6
 662 001a 01A8     		add	r0, sp, #4
 663 001c FFF7FEFF 		bl	memcmp
 664              	.LVL61:
 665 0020 0028     		cmp	r0, #0
 666 0022 36D0     		beq	.L53
 667 0024 0522     		movs	r2, #5
 668 0026 0121     		movs	r1, #1
 669 0028 0DE0     		b	.L45
 670              	.LVL62:
 671              	.L47:
 672              	.LBB9:
 393:ble_client.c  ****             break;
 394:ble_client.c  ****         }
 395:ble_client.c  ****         
 396:ble_client.c  ****         bool isGoalAddress = true;
 397:ble_client.c  ****         
ARM GAS  C:\Users\Roi\AppData\Local\Temp\cc0h5MCy.s 			page 20


 398:ble_client.c  ****         // Compare this address with primary goal address (first five bytes)
 399:ble_client.c  ****         for(uint8 j = 5; j > 0; j--) {
 400:ble_client.c  ****             if(address_store[i][j] != goalCompareAddress[j]) {
 673              		.loc 1 400 0
 674 002a 6300     		lsls	r3, r4, #1
 675 002c 1B19     		adds	r3, r3, r4
 676 002e 5B00     		lsls	r3, r3, #1
 677 0030 1A48     		ldr	r0, .L56
 678 0032 C318     		adds	r3, r0, r3
 679 0034 985C     		ldrb	r0, [r3, r2]
 680 0036 1A4B     		ldr	r3, .L56+4
 681 0038 9B18     		adds	r3, r3, r2
 682 003a 1B79     		ldrb	r3, [r3, #4]
 683 003c 9842     		cmp	r0, r3
 684 003e 00D0     		beq	.L46
 401:ble_client.c  ****                 isGoalAddress = false;
 685              		.loc 1 401 0
 686 0040 0021     		movs	r1, #0
 687              	.LVL63:
 688              	.L46:
 399:ble_client.c  ****             if(address_store[i][j] != goalCompareAddress[j]) {
 689              		.loc 1 399 0 discriminator 2
 690 0042 013A     		subs	r2, r2, #1
 691              	.LVL64:
 692 0044 D2B2     		uxtb	r2, r2
 693              	.LVL65:
 694              	.L45:
 399:ble_client.c  ****             if(address_store[i][j] != goalCompareAddress[j]) {
 695              		.loc 1 399 0 is_stmt 0 discriminator 1
 696 0046 002A     		cmp	r2, #0
 697 0048 EFD1     		bne	.L47
 698              	.LBE9:
 402:ble_client.c  ****             }
 403:ble_client.c  ****         }
 404:ble_client.c  ****         
 405:ble_client.c  ****         if(isGoalAddress) {
 699              		.loc 1 405 0 is_stmt 1
 700 004a 0029     		cmp	r1, #0
 701 004c 0BD0     		beq	.L48
 406:ble_client.c  ****             memcpy(&scannedGoalAddresses[goalDevices], &address_store[i], 6);
 702              		.loc 1 406 0
 703 004e 7800     		lsls	r0, r7, #1
 704 0050 C019     		adds	r0, r0, r7
 705 0052 4000     		lsls	r0, r0, #1
 706 0054 03AB     		add	r3, sp, #12
 707 0056 9C46     		mov	ip, r3
 708 0058 6044     		add	r0, r0, ip
 709 005a 0632     		adds	r2, r2, #6
 710              	.LVL66:
 711 005c 3100     		movs	r1, r6
 712              	.LVL67:
 713 005e FFF7FEFF 		bl	memcpy
 714              	.LVL68:
 407:ble_client.c  ****             goalDevices++;
 715              		.loc 1 407 0
 716 0062 0137     		adds	r7, r7, #1
 717              	.LVL69:
ARM GAS  C:\Users\Roi\AppData\Local\Temp\cc0h5MCy.s 			page 21


 718 0064 FFB2     		uxtb	r7, r7
 719              	.LVL70:
 720              	.L48:
 721              	.LBE8:
 390:ble_client.c  ****         // If compared address is empty, then next others will be empty too, so break
 722              		.loc 1 390 0 discriminator 2
 723 0066 0135     		adds	r5, r5, #1
 724              	.LVL71:
 725 0068 EDB2     		uxtb	r5, r5
 726              	.LVL72:
 727              	.L43:
 390:ble_client.c  ****         // If compared address is empty, then next others will be empty too, so break
 728              		.loc 1 390 0 is_stmt 0 discriminator 1
 729 006a 092D     		cmp	r5, #9
 730 006c CDD9     		bls	.L49
 731 006e 0021     		movs	r1, #0
 732 0070 10E0     		b	.L44
 733              	.LVL73:
 734              	.L50:
 735              	.LBE7:
 736              	.LBB10:
 737              	.LBB11:
 408:ble_client.c  ****         }
 409:ble_client.c  ****     }
 410:ble_client.c  ****     
 411:ble_client.c  ****     // Clear previous scanned address_store
 412:ble_client.c  ****     for(uint8 i = 0; i < 10; i++) {
 413:ble_client.c  ****         for(uint8 j = 0; j < 6; j++) {
 414:ble_client.c  ****             address_store[i][j] = 0;     
 738              		.loc 1 414 0 is_stmt 1 discriminator 3
 739 0072 4B00     		lsls	r3, r1, #1
 740 0074 5B18     		adds	r3, r3, r1
 741 0076 5B00     		lsls	r3, r3, #1
 742 0078 0848     		ldr	r0, .L56
 743 007a C318     		adds	r3, r0, r3
 744 007c 0020     		movs	r0, #0
 745 007e 9854     		strb	r0, [r3, r2]
 413:ble_client.c  ****             address_store[i][j] = 0;     
 746              		.loc 1 413 0 discriminator 3
 747 0080 0132     		adds	r2, r2, #1
 748              	.LVL74:
 749 0082 D2B2     		uxtb	r2, r2
 750              	.LVL75:
 751 0084 00E0     		b	.L51
 752              	.LVL76:
 753              	.L55:
 754              	.LBE11:
 755 0086 0022     		movs	r2, #0
 756              	.L51:
 757              	.LVL77:
 758              	.LBB12:
 413:ble_client.c  ****             address_store[i][j] = 0;     
 759              		.loc 1 413 0 is_stmt 0 discriminator 1
 760 0088 052A     		cmp	r2, #5
 761 008a F2D9     		bls	.L50
 762              	.LBE12:
 412:ble_client.c  ****         for(uint8 j = 0; j < 6; j++) {
ARM GAS  C:\Users\Roi\AppData\Local\Temp\cc0h5MCy.s 			page 22


 763              		.loc 1 412 0 is_stmt 1 discriminator 2
 764 008c 0131     		adds	r1, r1, #1
 765              	.LVL78:
 766 008e C9B2     		uxtb	r1, r1
 767              	.LVL79:
 768 0090 00E0     		b	.L44
 769              	.LVL80:
 770              	.L53:
 771              	.LBE10:
 772              	.LBB13:
 773 0092 0021     		movs	r1, #0
 774              	.L44:
 775              	.LVL81:
 776              	.LBE13:
 777              	.LBB14:
 412:ble_client.c  ****         for(uint8 j = 0; j < 6; j++) {
 778              		.loc 1 412 0 is_stmt 0 discriminator 1
 779 0094 0929     		cmp	r1, #9
 780 0096 F6D9     		bls	.L55
 781              	.LBE14:
 415:ble_client.c  ****         }
 416:ble_client.c  ****     }
 417:ble_client.c  **** }
 782              		.loc 1 417 0 is_stmt 1
 783 0098 13B0     		add	sp, sp, #76
 784              		@ sp needed
 785              	.LVL82:
 786              	.LVL83:
 787 009a F0BD     		pop	{r4, r5, r6, r7, pc}
 788              	.L57:
 789              		.align	2
 790              	.L56:
 791 009c 00000000 		.word	address_store
 792 00a0 00000000 		.word	.LANCHOR1
 793              		.cfi_endproc
 794              	.LFE48:
 795              		.size	handle_scan_results, .-handle_scan_results
 796              		.section	.text.Timer_Int_Handler,"ax",%progbits
 797              		.align	2
 798              		.global	Timer_Int_Handler
 799              		.code	16
 800              		.thumb_func
 801              		.type	Timer_Int_Handler, %function
 802              	Timer_Int_Handler:
 803              	.LFB36:
  45:ble_client.c  ****     Timer_Stop();
 804              		.loc 1 45 0
 805              		.cfi_startproc
 806              		@ args = 0, pretend = 0, frame = 0
 807              		@ frame_needed = 0, uses_anonymous_args = 0
 808 0000 10B5     		push	{r4, lr}
 809              		.cfi_def_cfa_offset 8
 810              		.cfi_offset 4, -8
 811              		.cfi_offset 14, -4
  46:ble_client.c  ****     stop_scan();
 812              		.loc 1 46 0
 813 0002 FFF7FEFF 		bl	Timer_Stop
ARM GAS  C:\Users\Roi\AppData\Local\Temp\cc0h5MCy.s 			page 23


 814              	.LVL84:
  47:ble_client.c  ****     handle_scan_results();
 815              		.loc 1 47 0
 816 0006 FFF7FEFF 		bl	stop_scan
 817              	.LVL85:
  48:ble_client.c  **** }
 818              		.loc 1 48 0
 819 000a FFF7FEFF 		bl	handle_scan_results
 820              	.LVL86:
  49:ble_client.c  **** 
 821              		.loc 1 49 0
 822              		@ sp needed
 823 000e 10BD     		pop	{r4, pc}
 824              		.cfi_endproc
 825              	.LFE36:
 826              		.size	Timer_Int_Handler, .-Timer_Int_Handler
 827              		.section	.text.save_data,"ax",%progbits
 828              		.align	2
 829              		.global	save_data
 830              		.code	16
 831              		.thumb_func
 832              		.type	save_data, %function
 833              	save_data:
 834              	.LFB49:
 418:ble_client.c  **** 
 419:ble_client.c  **** void save_data(uint8 data) {
 835              		.loc 1 419 0
 836              		.cfi_startproc
 837              		@ args = 0, pretend = 0, frame = 0
 838              		@ frame_needed = 0, uses_anonymous_args = 0
 839              		@ link register save eliminated.
 840              	.LVL87:
 420:ble_client.c  ****     savedData = data;
 841              		.loc 1 420 0
 842 0000 014B     		ldr	r3, .L60
 843 0002 1870     		strb	r0, [r3]
 421:ble_client.c  **** }
 844              		.loc 1 421 0
 845              		@ sp needed
 846 0004 7047     		bx	lr
 847              	.L61:
 848 0006 C046     		.align	2
 849              	.L60:
 850 0008 00000000 		.word	savedData
 851              		.cfi_endproc
 852              	.LFE49:
 853              		.size	save_data, .-save_data
 854              		.section	.text.BleCallBack,"ax",%progbits
 855              		.align	2
 856              		.global	BleCallBack
 857              		.code	16
 858              		.thumb_func
 859              		.type	BleCallBack, %function
 860              	BleCallBack:
 861              	.LFB37:
  52:ble_client.c  **** 	/* 'apiResult' is a variable of type 'CYBLE_API_RESULT_T' (defined in 
 862              		.loc 1 52 0
ARM GAS  C:\Users\Roi\AppData\Local\Temp\cc0h5MCy.s 			page 24


 863              		.cfi_startproc
 864              		@ args = 0, pretend = 0, frame = 32
 865              		@ frame_needed = 0, uses_anonymous_args = 0
 866              	.LVL88:
 867 0000 30B5     		push	{r4, r5, lr}
 868              		.cfi_def_cfa_offset 12
 869              		.cfi_offset 4, -12
 870              		.cfi_offset 5, -8
 871              		.cfi_offset 14, -4
 872 0002 89B0     		sub	sp, sp, #36
 873              		.cfi_def_cfa_offset 48
 874 0004 0400     		movs	r4, r0
 875 0006 0D00     		movs	r5, r1
  67:ble_client.c  ****     
 876              		.loc 1 67 0
 877 0008 FFF7FEFF 		bl	get_ble_mode
 878              	.LVL89:
  69:ble_client.c  **** 		case CYBLE_EVT_STACK_ON:
 879              		.loc 1 69 0
 880 000c 2B2C     		cmp	r4, #43
 881 000e 1DD0     		beq	.L64
 882 0010 0AD8     		bhi	.L65
 883 0012 202C     		cmp	r4, #32
 884 0014 2DD0     		beq	.L66
 885 0016 02D8     		bhi	.L67
 886 0018 012C     		cmp	r4, #1
 887 001a 12D0     		beq	.L68
 888 001c 8CE0     		b	.L62
 889              	.L67:
 890 001e 272C     		cmp	r4, #39
 891 0020 3ED0     		beq	.L69
 892 0022 282C     		cmp	r4, #40
 893 0024 47D0     		beq	.L70
 894 0026 87E0     		b	.L62
 895              	.L65:
 896 0028 462C     		cmp	r4, #70
 897 002a 72D0     		beq	.L71
 898 002c 02D8     		bhi	.L72
 899 002e 412C     		cmp	r4, #65
 900 0030 30D0     		beq	.L73
 901 0032 81E0     		b	.L62
 902              	.L72:
 903 0034 4C2C     		cmp	r4, #76
 904 0036 78D0     		beq	.L74
 905 0038 8923     		movs	r3, #137
 906 003a 5B00     		lsls	r3, r3, #1
 907 003c 9C42     		cmp	r4, r3
 908 003e 64D0     		beq	.L75
 909 0040 7AE0     		b	.L62
 910              	.L68:
  72:ble_client.c  ****                 start_advertisement();
 911              		.loc 1 72 0
 912 0042 0028     		cmp	r0, #0
 913 0044 78D1     		bne	.L62
  73:ble_client.c  ****                 //break;
 914              		.loc 1 73 0
 915 0046 FFF7FEFF 		bl	start_advertisement
ARM GAS  C:\Users\Roi\AppData\Local\Temp\cc0h5MCy.s 			page 25


 916              	.LVL90:
 917 004a 75E0     		b	.L62
 918              	.LVL91:
 919              	.L64:
  80:ble_client.c  **** 				ble_state = BLE_DISCONNECTED;
 920              		.loc 1 80 0
 921 004c 3B4B     		ldr	r3, .L83
 922 004e 1B78     		ldrb	r3, [r3]
 923 0050 062B     		cmp	r3, #6
 924 0052 0AD1     		bne	.L76
  81:ble_client.c  **** 				
 925              		.loc 1 81 0
 926 0054 0122     		movs	r2, #1
 927 0056 3A4B     		ldr	r3, .L83+4
 928 0058 1A70     		strb	r2, [r3]
  83:ble_client.c  **** 					/* Restart Scanning */
 929              		.loc 1 83 0
 930 005a 3A4B     		ldr	r3, .L83+8
 931 005c 5B78     		ldrb	r3, [r3, #1]
 932 005e 002B     		cmp	r3, #0
 933 0060 6AD1     		bne	.L62
  85:ble_client.c  **** 				}
 934              		.loc 1 85 0
 935 0062 0120     		movs	r0, #1
 936              	.LVL92:
 937 0064 FFF7FEFF 		bl	Status_LED_Red_Write
 938              	.LVL93:
 939 0068 66E0     		b	.L62
 940              	.LVL94:
 941              	.L76:
  88:ble_client.c  **** 			}
 942              		.loc 1 88 0
 943 006a 0222     		movs	r2, #2
 944 006c 344B     		ldr	r3, .L83+4
 945 006e 1A70     		strb	r2, [r3]
 946 0070 62E0     		b	.L62
 947              	.L66:
  94:ble_client.c  **** 				/* If we are not connected to any peripheral device, then save the new device  
 948              		.loc 1 94 0
 949 0072 324B     		ldr	r3, .L83
 950 0074 1B78     		ldrb	r3, [r3]
 951 0076 022B     		cmp	r3, #2
 952 0078 08D0     		beq	.L77
  97:ble_client.c  **** 				
 953              		.loc 1 97 0
 954 007a 03A8     		add	r0, sp, #12
 955              	.LVL95:
 956 007c 0300     		movs	r3, r0
 957 007e 2A00     		movs	r2, r5
 958 0080 32CA     		ldmia	r2!, {r1, r4, r5}
 959 0082 32C3     		stmia	r3!, {r1, r4, r5}
 960              	.LVL96:
 961 0084 12CA     		ldmia	r2!, {r1, r4}
 962 0086 12C3     		stmia	r3!, {r1, r4}
 963              	.LVL97:
 101:ble_client.c  **** 			}
 964              		.loc 1 101 0
ARM GAS  C:\Users\Roi\AppData\Local\Temp\cc0h5MCy.s 			page 26


 965 0088 FFF7FEFF 		bl	HandleScanDevices
 966              	.LVL98:
 967              	.L77:
 104:ble_client.c  **** 		break;
 968              		.loc 1 104 0
 969 008c 0222     		movs	r2, #2
 970 008e 2C4B     		ldr	r3, .L83+4
 971 0090 1A70     		strb	r2, [r3]
 105:ble_client.c  **** 			
 972              		.loc 1 105 0
 973 0092 51E0     		b	.L62
 974              	.LVL99:
 975              	.L73:
 110:ble_client.c  ****             break;
 976              		.loc 1 110 0
 977 0094 0222     		movs	r2, #2
 978 0096 2900     		movs	r1, r5
 979 0098 2B48     		ldr	r0, .L83+12
 980              	.LVL100:
 981 009a FFF7FEFF 		bl	memcpy
 982              	.LVL101:
 111:ble_client.c  **** 			
 983              		.loc 1 111 0
 984 009e 4BE0     		b	.L62
 985              	.LVL102:
 986              	.L69:
 121:ble_client.c  **** 			
 987              		.loc 1 121 0
 988 00a0 294A     		ldr	r2, .L83+12
 989 00a2 1378     		ldrb	r3, [r2]
 990 00a4 5078     		ldrb	r0, [r2, #1]
 991              	.LVL103:
 992 00a6 0002     		lsls	r0, r0, #8
 993 00a8 1843     		orrs	r0, r3
 994 00aa FFF7FEFF 		bl	CyBle_GattcStartDiscovery
 995              	.LVL104:
 128:ble_client.c  ****             break;
 996              		.loc 1 128 0
 997 00ae 0322     		movs	r2, #3
 998 00b0 234B     		ldr	r3, .L83+4
 999 00b2 1A70     		strb	r2, [r3]
 129:ble_client.c  **** 			
 1000              		.loc 1 129 0
 1001 00b4 40E0     		b	.L62
 1002              	.LVL105:
 1003              	.L70:
 134:ble_client.c  ****     			/* Reset all saved peripheral Addresses */
 1004              		.loc 1 134 0
 1005 00b6 0028     		cmp	r0, #0
 1006 00b8 14D1     		bne	.L81
 1007 00ba 23E0     		b	.L82
 1008              	.LVL106:
 1009              	.L80:
 1010              	.LBB15:
 137:ble_client.c  ****     				list_of_devices[i].peerBdAddr[1] = FALSE;
 1011              		.loc 1 137 0 discriminator 3
 1012 00bc 8A00     		lsls	r2, r1, #2
ARM GAS  C:\Users\Roi\AppData\Local\Temp\cc0h5MCy.s 			page 27


 1013 00be 5218     		adds	r2, r2, r1
 1014 00c0 9300     		lsls	r3, r2, #2
 1015 00c2 224A     		ldr	r2, .L83+16
 1016 00c4 D318     		adds	r3, r2, r3
 1017 00c6 0022     		movs	r2, #0
 1018 00c8 5868     		ldr	r0, [r3, #4]
 1019 00ca 0270     		strb	r2, [r0]
 138:ble_client.c  ****     				list_of_devices[i].peerBdAddr[2] = FALSE;
 1020              		.loc 1 138 0 discriminator 3
 1021 00cc 5868     		ldr	r0, [r3, #4]
 1022 00ce 4270     		strb	r2, [r0, #1]
 139:ble_client.c  ****     				list_of_devices[i].peerBdAddr[3] = FALSE;
 1023              		.loc 1 139 0 discriminator 3
 1024 00d0 5868     		ldr	r0, [r3, #4]
 1025 00d2 8270     		strb	r2, [r0, #2]
 140:ble_client.c  ****     				list_of_devices[i].peerBdAddr[4] = FALSE;
 1026              		.loc 1 140 0 discriminator 3
 1027 00d4 5868     		ldr	r0, [r3, #4]
 1028 00d6 C270     		strb	r2, [r0, #3]
 141:ble_client.c  ****     				list_of_devices[i].peerBdAddr[5] = FALSE;
 1029              		.loc 1 141 0 discriminator 3
 1030 00d8 5868     		ldr	r0, [r3, #4]
 1031 00da 0271     		strb	r2, [r0, #4]
 142:ble_client.c  ****     			}
 1032              		.loc 1 142 0 discriminator 3
 1033 00dc 5B68     		ldr	r3, [r3, #4]
 1034 00de 5A71     		strb	r2, [r3, #5]
 136:ble_client.c  ****     				list_of_devices[i].peerBdAddr[0] = FALSE;
 1035              		.loc 1 136 0 discriminator 3
 1036 00e0 0131     		adds	r1, r1, #1
 1037              	.LVL107:
 1038 00e2 00E0     		b	.L78
 1039              	.LVL108:
 1040              	.L81:
 1041              	.LBE15:
 1042 00e4 0021     		movs	r1, #0
 1043              	.LVL109:
 1044              	.L78:
 1045              	.LBB16:
 136:ble_client.c  ****     				list_of_devices[i].peerBdAddr[0] = FALSE;
 1046              		.loc 1 136 0 is_stmt 0 discriminator 1
 1047 00e6 174B     		ldr	r3, .L83+8
 1048 00e8 1B78     		ldrb	r3, [r3]
 1049 00ea 9942     		cmp	r1, r3
 1050 00ec E6DB     		blt	.L80
 1051              	.LBE16:
 146:ble_client.c  ****     			peripheralFound = FALSE;
 1052              		.loc 1 146 0 is_stmt 1
 1053 00ee 154B     		ldr	r3, .L83+8
 1054 00f0 0022     		movs	r2, #0
 1055 00f2 1A70     		strb	r2, [r3]
 147:ble_client.c  ****     			ble_state = BLE_DISCONNECTED;
 1056              		.loc 1 147 0
 1057 00f4 5A70     		strb	r2, [r3, #1]
 148:ble_client.c  ****     			
 1058              		.loc 1 148 0
 1059 00f6 0132     		adds	r2, r2, #1
ARM GAS  C:\Users\Roi\AppData\Local\Temp\cc0h5MCy.s 			page 28


 1060 00f8 114B     		ldr	r3, .L83+4
 1061 00fa 1A70     		strb	r2, [r3]
 152:ble_client.c  ****     			if(apiResult != CYBLE_ERROR_OK)
 1062              		.loc 1 152 0
 1063 00fc 0120     		movs	r0, #1
 1064 00fe FFF7FEFF 		bl	HandleLEDs
 1065              	.LVL110:
 1066 0102 19E0     		b	.L62
 1067              	.LVL111:
 1068              	.L82:
 158:ble_client.c  ****                 break;
 1069              		.loc 1 158 0
 1070 0104 FFF7FEFF 		bl	start_advertisement
 1071              	.LVL112:
 159:ble_client.c  ****             }
 1072              		.loc 1 159 0
 1073 0108 16E0     		b	.L62
 1074              	.LVL113:
 1075              	.L75:
 181:ble_client.c  **** 		    break;
 1076              		.loc 1 181 0
 1077 010a 0422     		movs	r2, #4
 1078 010c 0C4B     		ldr	r3, .L83+4
 1079 010e 1A70     		strb	r2, [r3]
 182:ble_client.c  ****         
 1080              		.loc 1 182 0
 1081 0110 12E0     		b	.L62
 1082              	.L71:
 185:ble_client.c  ****             save_data(readResponse.attrData.attrValue[2]);
 1083              		.loc 1 185 0
 1084 0112 6B46     		mov	r3, sp
 1085 0114 2A00     		movs	r2, r5
 1086 0116 13CA     		ldmia	r2!, {r0, r1, r4}
 1087 0118 13C3     		stmia	r3!, {r0, r1, r4}
 1088              	.LVL114:
 186:ble_client.c  **** 
 1089              		.loc 1 186 0
 1090 011a 6B68     		ldr	r3, [r5, #4]
 1091 011c 9878     		ldrb	r0, [r3, #2]
 1092 011e FFF7FEFF 		bl	save_data
 1093              	.LVL115:
 188:ble_client.c  ****             /*uint8 result[3];
 1094              		.loc 1 188 0
 1095 0122 0122     		movs	r2, #1
 1096 0124 074B     		ldr	r3, .L83+8
 1097 0126 9A70     		strb	r2, [r3, #2]
 195:ble_client.c  ****            
 1098              		.loc 1 195 0
 1099 0128 06E0     		b	.L62
 1100              	.LVL116:
 1101              	.L74:
 208:ble_client.c  ****      
 1102              		.loc 1 208 0
 1103 012a 6B68     		ldr	r3, [r5, #4]
 1104 012c 1878     		ldrb	r0, [r3]
 1105              	.LVL117:
 1106 012e FFF7FEFF 		bl	Status_LED_Red_Write
ARM GAS  C:\Users\Roi\AppData\Local\Temp\cc0h5MCy.s 			page 29


 1107              	.LVL118:
 210:ble_client.c  ****                
 1108              		.loc 1 210 0
 1109 0132 2868     		ldr	r0, [r5]
 1110 0134 FFF7FEFF 		bl	CyBle_GattsWriteRsp
 1111              	.LVL119:
 1112              	.L62:
 217:ble_client.c  **** 
 1113              		.loc 1 217 0
 1114 0138 09B0     		add	sp, sp, #36
 1115              		@ sp needed
 1116 013a 30BD     		pop	{r4, r5, pc}
 1117              	.L84:
 1118              		.align	2
 1119              	.L83:
 1120 013c 00000000 		.word	cyBle_state
 1121 0140 00000000 		.word	.LANCHOR1
 1122 0144 00000000 		.word	.LANCHOR0
 1123 0148 00000000 		.word	connHandle
 1124 014c 00000000 		.word	list_of_devices
 1125              		.cfi_endproc
 1126              	.LFE37:
 1127              		.size	BleCallBack, .-BleCallBack
 1128              		.section	.text.get_data,"ax",%progbits
 1129              		.align	2
 1130              		.global	get_data
 1131              		.code	16
 1132              		.thumb_func
 1133              		.type	get_data, %function
 1134              	get_data:
 1135              	.LFB50:
 422:ble_client.c  **** 
 423:ble_client.c  **** uint8 get_data(void) {
 1136              		.loc 1 423 0
 1137              		.cfi_startproc
 1138              		@ args = 0, pretend = 0, frame = 0
 1139              		@ frame_needed = 0, uses_anonymous_args = 0
 1140              		@ link register save eliminated.
 424:ble_client.c  ****     return savedData;
 1141              		.loc 1 424 0
 1142 0000 014B     		ldr	r3, .L86
 1143 0002 1878     		ldrb	r0, [r3]
 425:ble_client.c  **** }
 1144              		.loc 1 425 0
 1145              		@ sp needed
 1146 0004 7047     		bx	lr
 1147              	.L87:
 1148 0006 C046     		.align	2
 1149              	.L86:
 1150 0008 00000000 		.word	savedData
 1151              		.cfi_endproc
 1152              	.LFE50:
 1153              		.size	get_data, .-get_data
 1154              		.comm	isConnecting,1,1
 1155              		.global	isDataRead
 1156              		.comm	savedData,1,1
 1157              		.global	addedDevices
ARM GAS  C:\Users\Roi\AppData\Local\Temp\cc0h5MCy.s 			page 30


 1158              		.global	peripheralFound
 1159              		.global	goalCompareAddress
 1160              		.comm	peripheralAddress,6,4
 1161              		.comm	address_store,60,4
 1162              		.global	ble_state
 1163              		.comm	connectPeriphDevice,7,4
 1164              		.comm	list_of_devices,200,4
 1165              		.data
 1166              		.align	2
 1167              		.set	.LANCHOR1,. + 0
 1168              		.type	ble_state, %object
 1169              		.size	ble_state, 1
 1170              	ble_state:
 1171 0000 01       		.byte	1
 1172 0001 000000   		.space	3
 1173              		.type	goalCompareAddress, %object
 1174              		.size	goalCompareAddress, 6
 1175              	goalCompareAddress:
 1176 0004 00       		.byte	0
 1177 0005 34       		.byte	52
 1178 0006 12       		.byte	18
 1179 0007 50       		.byte	80
 1180 0008 A0       		.byte	-96
 1181 0009 00       		.byte	0
 1182              		.bss
 1183              		.set	.LANCHOR0,. + 0
 1184              		.type	addedDevices, %object
 1185              		.size	addedDevices, 1
 1186              	addedDevices:
 1187 0000 00       		.space	1
 1188              		.type	peripheralFound, %object
 1189              		.size	peripheralFound, 1
 1190              	peripheralFound:
 1191 0001 00       		.space	1
 1192              		.type	isDataRead, %object
 1193              		.size	isDataRead, 1
 1194              	isDataRead:
 1195 0002 00       		.space	1
 1196              		.text
 1197              	.Letext0:
 1198              		.file 2 "Generated_Source\\PSoC4/cytypes.h"
 1199              		.file 3 "Generated_Source\\PSoC4/BLE_Stack.h"
 1200              		.file 4 "Generated_Source\\PSoC4/BLE_StackGap.h"
 1201              		.file 5 "Generated_Source\\PSoC4/BLE_StackGatt.h"
 1202              		.file 6 "Generated_Source\\PSoC4/BLE_StackGattServer.h"
 1203              		.file 7 "Generated_Source\\PSoC4/BLE_StackGattClient.h"
 1204              		.file 8 "Generated_Source\\PSoC4/BLE_eventHandler.h"
 1205              		.file 9 "c:\\program files (x86)\\cypress\\psoc creator\\4.2\\psoc creator\\import\\gnu\\arm\\5.4.
 1206              		.file 10 "Generated_Source\\PSoC4/BLE.h"
 1207              		.file 11 "Generated_Source\\PSoC4/Timer.h"
 1208              		.file 12 "Generated_Source\\PSoC4/Status_LED_Red.h"
 1209              		.file 13 "Generated_Source\\PSoC4/CyLib.h"
 1210              		.file 14 "Generated_Source\\PSoC4/Status_LED_Green.h"
 1211              		.file 15 "Generated_Source\\PSoC4/Status_LED_Blue.h"
 1212              		.file 16 "buttons.h"
 1213              		.file 17 "Generated_Source\\PSoC4/BLE_gatt.h"
 1214              		.file 18 "ble_applications.h"
ARM GAS  C:\Users\Roi\AppData\Local\Temp\cc0h5MCy.s 			page 31

