ARM GAS  C:\Users\Roi\AppData\Local\Temp\ccr6SNoH.s 			page 1


   1              		.syntax unified
   2              		.cpu cortex-m0
   3              		.fpu softvfp
   4              		.eabi_attribute 20, 1
   5              		.eabi_attribute 21, 1
   6              		.eabi_attribute 23, 3
   7              		.eabi_attribute 24, 1
   8              		.eabi_attribute 25, 1
   9              		.eabi_attribute 26, 1
  10              		.eabi_attribute 30, 1
  11              		.eabi_attribute 34, 0
  12              		.eabi_attribute 18, 4
  13              		.thumb
  14              		.syntax unified
  15              		.file	"ble_update.c"
  16              		.text
  17              	.Ltext0:
  18              		.cfi_sections	.debug_frame
  19              		.section	.text.read,"ax",%progbits
  20              		.align	2
  21              		.global	read
  22              		.code	16
  23              		.thumb_func
  24              		.type	read, %function
  25              	read:
  26              	.LFB36:
  27              		.file 1 "ble_update.c"
   1:ble_update.c  **** #include "smartboy.h"
   2:ble_update.c  **** 
   3:ble_update.c  **** void read(void) {  
  28              		.loc 1 3 0
  29              		.cfi_startproc
  30              		@ args = 0, pretend = 0, frame = 16
  31              		@ frame_needed = 0, uses_anonymous_args = 0
  32 0000 00B5     		push	{lr}
  33              		.cfi_def_cfa_offset 4
  34              		.cfi_offset 14, -4
  35 0002 85B0     		sub	sp, sp, #20
  36              		.cfi_def_cfa_offset 24
   4:ble_update.c  ****     CYBLE_GATTS_HANDLE_VALUE_NTF_T tempHandle;
   5:ble_update.c  ****     
   6:ble_update.c  ****     uint16 LED_Conect_State = 1;
  37              		.loc 1 6 0
  38 0004 6B46     		mov	r3, sp
  39 0006 9A1C     		adds	r2, r3, #2
  40 0008 0123     		movs	r3, #1
  41 000a 1380     		strh	r3, [r2]
   7:ble_update.c  ****     
   8:ble_update.c  ****     tempHandle.attrHandle = CYBLE_SWITCH_FAUCET_CHAR_HANDLE;
  42              		.loc 1 8 0
  43 000c 01A8     		add	r0, sp, #4
  44 000e 1221     		movs	r1, #18
  45 0010 0181     		strh	r1, [r0, #8]
   9:ble_update.c  ****     tempHandle.value.val = (uint8 *) &LED_Conect_State;
  46              		.loc 1 9 0
  47 0012 0192     		str	r2, [sp, #4]
  10:ble_update.c  ****     tempHandle.value.len = 1;
ARM GAS  C:\Users\Roi\AppData\Local\Temp\ccr6SNoH.s 			page 2


  48              		.loc 1 10 0
  49 0014 8380     		strh	r3, [r0, #4]
  11:ble_update.c  ****     CyBle_GattsWriteAttributeValue(&tempHandle, 0, &cyBle_connHandle,CYBLE_GATT_DB_LOCALLY_INITIATE
  50              		.loc 1 11 0
  51 0016 0023     		movs	r3, #0
  52 0018 024A     		ldr	r2, .L2
  53 001a 0021     		movs	r1, #0
  54 001c FFF7FEFF 		bl	CyBle_GattsWriteAttributeValue
  55              	.LVL0:
  12:ble_update.c  **** }
  56              		.loc 1 12 0
  57 0020 05B0     		add	sp, sp, #20
  58              		@ sp needed
  59 0022 00BD     		pop	{pc}
  60              	.L3:
  61              		.align	2
  62              	.L2:
  63 0024 00000000 		.word	cyBle_connHandle
  64              		.cfi_endproc
  65              	.LFE36:
  66              		.size	read, .-read
  67              		.section	.text.write,"ax",%progbits
  68              		.align	2
  69              		.global	write
  70              		.code	16
  71              		.thumb_func
  72              		.type	write, %function
  73              	write:
  74              	.LFB37:
  13:ble_update.c  **** 
  14:ble_update.c  **** /**************************************************************************************************
  15:ble_update.c  **** 
  16:ble_update.c  **** void write(CYBLE_GATTS_WRITE_CMD_REQ_PARAM_T *wrReqParam) {
  75              		.loc 1 16 0
  76              		.cfi_startproc
  77              		@ args = 0, pretend = 0, frame = 0
  78              		@ frame_needed = 0, uses_anonymous_args = 0
  79              	.LVL1:
  80 0000 10B5     		push	{r4, lr}
  81              		.cfi_def_cfa_offset 8
  82              		.cfi_offset 4, -8
  83              		.cfi_offset 14, -4
  17:ble_update.c  ****     if(wrReqParam->handleValPair.attrHandle == CYBLE_SWITCH_FAUCET_CHAR_HANDLE) {
  84              		.loc 1 17 0
  85 0002 8389     		ldrh	r3, [r0, #12]
  86 0004 122B     		cmp	r3, #18
  87 0006 0ED1     		bne	.L4
  18:ble_update.c  ****         if(CYBLE_GATT_ERR_NONE == CyBle_GattsWriteAttributeValue(&wrReqParam->handleValPair, 0, &cy
  88              		.loc 1 18 0
  89 0008 0430     		adds	r0, r0, #4
  90              	.LVL2:
  91 000a 2E33     		adds	r3, r3, #46
  92 000c 064A     		ldr	r2, .L6
  93 000e 0021     		movs	r1, #0
  94 0010 FFF7FEFF 		bl	CyBle_GattsWriteAttributeValue
  95              	.LVL3:
  96 0014 0028     		cmp	r0, #0
ARM GAS  C:\Users\Roi\AppData\Local\Temp\ccr6SNoH.s 			page 3


  97 0016 06D1     		bne	.L4
  19:ble_update.c  ****             //wrReqParam->handleValPair.value.val[0];
  20:ble_update.c  ****             CyBle_GattsWriteRsp(cyBle_connHandle);
  98              		.loc 1 20 0
  99 0018 034A     		ldr	r2, .L6
 100 001a 1378     		ldrb	r3, [r2]
 101 001c 5078     		ldrb	r0, [r2, #1]
 102 001e 0002     		lsls	r0, r0, #8
 103 0020 1843     		orrs	r0, r3
 104 0022 FFF7FEFF 		bl	CyBle_GattsWriteRsp
 105              	.LVL4:
 106              	.L4:
  21:ble_update.c  ****         }
  22:ble_update.c  ****     }
  23:ble_update.c  **** }
 107              		.loc 1 23 0
 108              		@ sp needed
 109 0026 10BD     		pop	{r4, pc}
 110              	.L7:
 111              		.align	2
 112              	.L6:
 113 0028 00000000 		.word	cyBle_connHandle
 114              		.cfi_endproc
 115              	.LFE37:
 116              		.size	write, .-write
 117              		.text
 118              	.Letext0:
 119              		.file 2 "Generated_Source\\PSoC4/cytypes.h"
 120              		.file 3 "Generated_Source\\PSoC4/BLE_StackGatt.h"
 121              		.file 4 "Generated_Source\\PSoC4/BLE_StackGattServer.h"
 122              		.file 5 "Generated_Source\\PSoC4/BLE_StackGattDb.h"
 123              		.file 6 "Generated_Source\\PSoC4/BLE_eventHandler.h"