ARM GAS  C:\Users\Roi\AppData\Local\Temp\ccVHOZXJ.s 			page 1


   1              		.syntax unified
   2              		.cpu cortex-m0
   3              		.fpu softvfp
   4              		.eabi_attribute 20, 1
   5              		.eabi_attribute 21, 1
   6              		.eabi_attribute 23, 3
   7              		.eabi_attribute 24, 1
   8              		.eabi_attribute 25, 1
   9              		.eabi_attribute 26, 1
  10              		.eabi_attribute 30, 1
  11              		.eabi_attribute 34, 0
  12              		.eabi_attribute 18, 4
  13              		.thumb
  14              		.syntax unified
  15              		.file	"BLE_HAL_PVT.c"
  16              		.text
  17              	.Ltext0:
  18              		.cfi_sections	.debug_frame
  19              		.section	.text.CyBLE_Nvram_Write,"ax",%progbits
  20              		.align	2
  21              		.global	CyBLE_Nvram_Write
  22              		.code	16
  23              		.thumb_func
  24              		.type	CyBLE_Nvram_Write, %function
  25              	CyBLE_Nvram_Write:
  26              	.LFB2:
  27              		.file 1 "Generated_Source\\PSoC4\\BLE_HAL_PVT.c"
   1:Generated_Source\PSoC4/BLE_HAL_PVT.c **** /***************************************************************************//**
   2:Generated_Source\PSoC4/BLE_HAL_PVT.c **** * \file CYBLE_HAL_PVT.c
   3:Generated_Source\PSoC4/BLE_HAL_PVT.c **** * \version 3.66
   4:Generated_Source\PSoC4/BLE_HAL_PVT.c **** *
   5:Generated_Source\PSoC4/BLE_HAL_PVT.c **** * \brief
   6:Generated_Source\PSoC4/BLE_HAL_PVT.c **** *  This file contains the source code for the HAL section of the BLE component
   7:Generated_Source\PSoC4/BLE_HAL_PVT.c **** *
   8:Generated_Source\PSoC4/BLE_HAL_PVT.c **** ********************************************************************************
   9:Generated_Source\PSoC4/BLE_HAL_PVT.c **** * \copyright
  10:Generated_Source\PSoC4/BLE_HAL_PVT.c **** * Copyright 2014-2020, Cypress Semiconductor Corporation.  All rights reserved.
  11:Generated_Source\PSoC4/BLE_HAL_PVT.c **** * You may use this file only in accordance with the license, terms, conditions,
  12:Generated_Source\PSoC4/BLE_HAL_PVT.c **** * disclaimers, and limitations in the end user license agreement accompanying
  13:Generated_Source\PSoC4/BLE_HAL_PVT.c **** * the software package with which this file was provided.
  14:Generated_Source\PSoC4/BLE_HAL_PVT.c **** *******************************************************************************/
  15:Generated_Source\PSoC4/BLE_HAL_PVT.c **** 
  16:Generated_Source\PSoC4/BLE_HAL_PVT.c **** #include "BLE_HAL_PVT.h"
  17:Generated_Source\PSoC4/BLE_HAL_PVT.c **** 
  18:Generated_Source\PSoC4/BLE_HAL_PVT.c **** 
  19:Generated_Source\PSoC4/BLE_HAL_PVT.c **** #if(CYBLE_MODE == CYBLE_HCI)
  20:Generated_Source\PSoC4/BLE_HAL_PVT.c **** 
  21:Generated_Source\PSoC4/BLE_HAL_PVT.c **** 
  22:Generated_Source\PSoC4/BLE_HAL_PVT.c **** /*******************************************************************************
  23:Generated_Source\PSoC4/BLE_HAL_PVT.c **** * Function Name: CyBLE_Uart_Start
  24:Generated_Source\PSoC4/BLE_HAL_PVT.c **** ****************************************************************************//**
  25:Generated_Source\PSoC4/BLE_HAL_PVT.c **** *
  26:Generated_Source\PSoC4/BLE_HAL_PVT.c **** *  Enables the platform UART Tx and RX interrupts and then enables the UART
  27:Generated_Source\PSoC4/BLE_HAL_PVT.c **** *  component.
  28:Generated_Source\PSoC4/BLE_HAL_PVT.c **** *
  29:Generated_Source\PSoC4/BLE_HAL_PVT.c **** * \return
  30:Generated_Source\PSoC4/BLE_HAL_PVT.c **** *  None
ARM GAS  C:\Users\Roi\AppData\Local\Temp\ccVHOZXJ.s 			page 2


  31:Generated_Source\PSoC4/BLE_HAL_PVT.c **** *
  32:Generated_Source\PSoC4/BLE_HAL_PVT.c **** *******************************************************************************/
  33:Generated_Source\PSoC4/BLE_HAL_PVT.c **** void CyBLE_Uart_Start (void)
  34:Generated_Source\PSoC4/BLE_HAL_PVT.c **** {
  35:Generated_Source\PSoC4/BLE_HAL_PVT.c ****     #if (CYBLE_HCI_TYPE == CYBLE_HCI_OVER_UART)
  36:Generated_Source\PSoC4/BLE_HAL_PVT.c ****         /* Setup ISR */
  37:Generated_Source\PSoC4/BLE_HAL_PVT.c ****         BLE_uart_isr_StartEx(&CyBLE_Uart_Interrupt);
  38:Generated_Source\PSoC4/BLE_HAL_PVT.c **** 
  39:Generated_Source\PSoC4/BLE_HAL_PVT.c ****         BLE_HAL_Uart_Start();
  40:Generated_Source\PSoC4/BLE_HAL_PVT.c ****     #endif /* (CYBLE_HCI_TYPE == CYBLE_HCI_OVER_UART) */
  41:Generated_Source\PSoC4/BLE_HAL_PVT.c **** }
  42:Generated_Source\PSoC4/BLE_HAL_PVT.c **** 
  43:Generated_Source\PSoC4/BLE_HAL_PVT.c **** 
  44:Generated_Source\PSoC4/BLE_HAL_PVT.c **** /*******************************************************************************
  45:Generated_Source\PSoC4/BLE_HAL_PVT.c **** * Function Name: CyBLE_Uart_Stop
  46:Generated_Source\PSoC4/BLE_HAL_PVT.c **** ****************************************************************************//**
  47:Generated_Source\PSoC4/BLE_HAL_PVT.c **** *
  48:Generated_Source\PSoC4/BLE_HAL_PVT.c **** *  Disables the UART, clears all pending interrupts and disables the UART Tx
  49:Generated_Source\PSoC4/BLE_HAL_PVT.c **** *  and RX interrupts. This will also empty out the FIFOs.
  50:Generated_Source\PSoC4/BLE_HAL_PVT.c **** *
  51:Generated_Source\PSoC4/BLE_HAL_PVT.c **** * \return
  52:Generated_Source\PSoC4/BLE_HAL_PVT.c **** *  None
  53:Generated_Source\PSoC4/BLE_HAL_PVT.c **** *
  54:Generated_Source\PSoC4/BLE_HAL_PVT.c **** *******************************************************************************/
  55:Generated_Source\PSoC4/BLE_HAL_PVT.c **** void CyBLE_Uart_Stop (void)
  56:Generated_Source\PSoC4/BLE_HAL_PVT.c **** {
  57:Generated_Source\PSoC4/BLE_HAL_PVT.c ****     #if (CYBLE_HCI_TYPE == CYBLE_HCI_OVER_UART)
  58:Generated_Source\PSoC4/BLE_HAL_PVT.c ****         /* Stop interrupt and UART */
  59:Generated_Source\PSoC4/BLE_HAL_PVT.c ****         BLE_uart_isr_Stop();
  60:Generated_Source\PSoC4/BLE_HAL_PVT.c **** 
  61:Generated_Source\PSoC4/BLE_HAL_PVT.c ****         BLE_HAL_Uart_Stop();
  62:Generated_Source\PSoC4/BLE_HAL_PVT.c ****     #endif /* (CYBLE_HCI_TYPE == CYBLE_HCI_OVER_UART) */
  63:Generated_Source\PSoC4/BLE_HAL_PVT.c **** }
  64:Generated_Source\PSoC4/BLE_HAL_PVT.c **** 
  65:Generated_Source\PSoC4/BLE_HAL_PVT.c **** 
  66:Generated_Source\PSoC4/BLE_HAL_PVT.c **** /*******************************************************************************
  67:Generated_Source\PSoC4/BLE_HAL_PVT.c **** * Function Name: CyBLE_Uart_Transmit
  68:Generated_Source\PSoC4/BLE_HAL_PVT.c **** ****************************************************************************//**
  69:Generated_Source\PSoC4/BLE_HAL_PVT.c **** *
  70:Generated_Source\PSoC4/BLE_HAL_PVT.c **** *  Sends the data to Uart Tx FIFO. The function handles data length up to the 
  71:Generated_Source\PSoC4/BLE_HAL_PVT.c **** *  supported Tx FIFO length of the uart hardware module.
  72:Generated_Source\PSoC4/BLE_HAL_PVT.c **** *
  73:Generated_Source\PSoC4/BLE_HAL_PVT.c **** *  \param data: Pointer to the data to send through the UART
  74:Generated_Source\PSoC4/BLE_HAL_PVT.c **** *  \param length: the length of data to transmit in bytes
  75:Generated_Source\PSoC4/BLE_HAL_PVT.c **** *
  76:Generated_Source\PSoC4/BLE_HAL_PVT.c **** * \return
  77:Generated_Source\PSoC4/BLE_HAL_PVT.c **** *  None
  78:Generated_Source\PSoC4/BLE_HAL_PVT.c **** *
  79:Generated_Source\PSoC4/BLE_HAL_PVT.c **** *******************************************************************************/
  80:Generated_Source\PSoC4/BLE_HAL_PVT.c **** void CyBLE_Uart_Transmit (const uint8 *dataBuf, uint8 length)
  81:Generated_Source\PSoC4/BLE_HAL_PVT.c **** {
  82:Generated_Source\PSoC4/BLE_HAL_PVT.c ****     #if (CYBLE_HCI_TYPE == CYBLE_HCI_OVER_UART)
  83:Generated_Source\PSoC4/BLE_HAL_PVT.c ****         BLE_HAL_Uart_SpiUartPutArray(dataBuf, (uint32)length);
  84:Generated_Source\PSoC4/BLE_HAL_PVT.c ****     #endif /* (CYBLE_HCI_TYPE == CYBLE_HCI_OVER_UART) */
  85:Generated_Source\PSoC4/BLE_HAL_PVT.c **** }
  86:Generated_Source\PSoC4/BLE_HAL_PVT.c **** 
  87:Generated_Source\PSoC4/BLE_HAL_PVT.c **** /*******************************************************************************
ARM GAS  C:\Users\Roi\AppData\Local\Temp\ccVHOZXJ.s 			page 3


  88:Generated_Source\PSoC4/BLE_HAL_PVT.c **** * Function Name: CyBLE_Uart_Isr_Enable
  89:Generated_Source\PSoC4/BLE_HAL_PVT.c **** ****************************************************************************//**
  90:Generated_Source\PSoC4/BLE_HAL_PVT.c **** *
  91:Generated_Source\PSoC4/BLE_HAL_PVT.c **** *   Enables the UART interrupt to the interrupt controller. 
  92:Generated_Source\PSoC4/BLE_HAL_PVT.c **** *   Do not call this function unless CyBLE_Uart_Start() has been called or the
  93:Generated_Source\PSoC4/BLE_HAL_PVT.c **** *   functionality of the SysInt_Init() function, which sets the vector and the
  94:Generated_Source\PSoC4/BLE_HAL_PVT.c **** *   priority, has been called.
  95:Generated_Source\PSoC4/BLE_HAL_PVT.c **** *
  96:Generated_Source\PSoC4/BLE_HAL_PVT.c **** *******************************************************************************/
  97:Generated_Source\PSoC4/BLE_HAL_PVT.c **** void CyBLE_Uart_Isr_Enable(void)
  98:Generated_Source\PSoC4/BLE_HAL_PVT.c **** {
  99:Generated_Source\PSoC4/BLE_HAL_PVT.c ****     #if (CYBLE_HCI_TYPE == CYBLE_HCI_OVER_UART)
 100:Generated_Source\PSoC4/BLE_HAL_PVT.c ****         BLE_uart_isr_Enable();
 101:Generated_Source\PSoC4/BLE_HAL_PVT.c ****     #endif /* (CYBLE_HCI_TYPE == CYBLE_HCI_OVER_UART) */
 102:Generated_Source\PSoC4/BLE_HAL_PVT.c **** }
 103:Generated_Source\PSoC4/BLE_HAL_PVT.c **** 
 104:Generated_Source\PSoC4/BLE_HAL_PVT.c **** 
 105:Generated_Source\PSoC4/BLE_HAL_PVT.c **** /*******************************************************************************
 106:Generated_Source\PSoC4/BLE_HAL_PVT.c **** * Function Name: CyBLE_Uart_Isr_Disable
 107:Generated_Source\PSoC4/BLE_HAL_PVT.c **** ****************************************************************************//**
 108:Generated_Source\PSoC4/BLE_HAL_PVT.c **** *
 109:Generated_Source\PSoC4/BLE_HAL_PVT.c **** *   Disables the UART Interrupt in the interrupt controller.
 110:Generated_Source\PSoC4/BLE_HAL_PVT.c **** *
 111:Generated_Source\PSoC4/BLE_HAL_PVT.c **** *******************************************************************************/
 112:Generated_Source\PSoC4/BLE_HAL_PVT.c **** void CyBLE_Uart_Isr_Disable(void)
 113:Generated_Source\PSoC4/BLE_HAL_PVT.c **** {
 114:Generated_Source\PSoC4/BLE_HAL_PVT.c ****     #if (CYBLE_HCI_TYPE == CYBLE_HCI_OVER_UART)
 115:Generated_Source\PSoC4/BLE_HAL_PVT.c ****         BLE_uart_isr_Disable();
 116:Generated_Source\PSoC4/BLE_HAL_PVT.c ****     #endif /* (CYBLE_HCI_TYPE == CYBLE_HCI_OVER_UART) */
 117:Generated_Source\PSoC4/BLE_HAL_PVT.c **** }
 118:Generated_Source\PSoC4/BLE_HAL_PVT.c **** 
 119:Generated_Source\PSoC4/BLE_HAL_PVT.c **** #endif /* (CYBLE_MODE == CYBLE_HCI) */
 120:Generated_Source\PSoC4/BLE_HAL_PVT.c **** 
 121:Generated_Source\PSoC4/BLE_HAL_PVT.c **** 
 122:Generated_Source\PSoC4/BLE_HAL_PVT.c **** /*******************************************************************************
 123:Generated_Source\PSoC4/BLE_HAL_PVT.c **** * Function Name: CyBLE_Nvram_Write
 124:Generated_Source\PSoC4/BLE_HAL_PVT.c **** ****************************************************************************//**
 125:Generated_Source\PSoC4/BLE_HAL_PVT.c **** *
 126:Generated_Source\PSoC4/BLE_HAL_PVT.c **** *  This function writes the data to the NVRAM store. It will check the 
 127:Generated_Source\PSoC4/BLE_HAL_PVT.c **** *  appropriate alignment of a start address and also perform an address range 
 128:Generated_Source\PSoC4/BLE_HAL_PVT.c **** *  check based on the length before performing the write operation.
 129:Generated_Source\PSoC4/BLE_HAL_PVT.c **** *  This function performs memory compare and writes only row where there are new
 130:Generated_Source\PSoC4/BLE_HAL_PVT.c **** *  data to write.
 131:Generated_Source\PSoC4/BLE_HAL_PVT.c **** *
 132:Generated_Source\PSoC4/BLE_HAL_PVT.c **** *  \param buffer:   Pointer to the buffer containing the data to be stored.
 133:Generated_Source\PSoC4/BLE_HAL_PVT.c **** *  \param varFlash: Pointer to the array or variable in the flash.
 134:Generated_Source\PSoC4/BLE_HAL_PVT.c **** *  \param length:    The length of the data in bytes.
 135:Generated_Source\PSoC4/BLE_HAL_PVT.c **** *
 136:Generated_Source\PSoC4/BLE_HAL_PVT.c **** * \return
 137:Generated_Source\PSoC4/BLE_HAL_PVT.c **** *  CYRET_SUCCESS    a successful write
 138:Generated_Source\PSoC4/BLE_HAL_PVT.c **** *  CYRET_BAD_PARAM  A request to write outside the flash boundary.
 139:Generated_Source\PSoC4/BLE_HAL_PVT.c **** *  CYRET_UNKNOWN    Other errors in writing the flash
 140:Generated_Source\PSoC4/BLE_HAL_PVT.c **** *
 141:Generated_Source\PSoC4/BLE_HAL_PVT.c **** * \sideeffect
 142:Generated_Source\PSoC4/BLE_HAL_PVT.c **** *  For BLE devices with 128K of Flash memory this function will automatically 
 143:Generated_Source\PSoC4/BLE_HAL_PVT.c **** *  modify the clock settings for the device.
 144:Generated_Source\PSoC4/BLE_HAL_PVT.c **** *  Writing to flash requires changes to be done to the IMO (set to 48 MHz)
ARM GAS  C:\Users\Roi\AppData\Local\Temp\ccVHOZXJ.s 			page 4


 145:Generated_Source\PSoC4/BLE_HAL_PVT.c **** *  and HFCLK (source set to IMO) settings. The configuration is restored before
 146:Generated_Source\PSoC4/BLE_HAL_PVT.c **** *  returning. This will impact the operation of most of the hardware in the
 147:Generated_Source\PSoC4/BLE_HAL_PVT.c **** *  device.
 148:Generated_Source\PSoC4/BLE_HAL_PVT.c **** *
 149:Generated_Source\PSoC4/BLE_HAL_PVT.c **** *******************************************************************************/
 150:Generated_Source\PSoC4/BLE_HAL_PVT.c **** cystatus CyBLE_Nvram_Write (const uint8 buffer[], const uint8 varFlash[], uint16 length)
 151:Generated_Source\PSoC4/BLE_HAL_PVT.c **** {
  28              		.loc 1 151 0
  29              		.cfi_startproc
  30              		@ args = 0, pretend = 0, frame = 256
  31              		@ frame_needed = 0, uses_anonymous_args = 0
  32              	.LVL0:
  33 0000 F0B5     		push	{r4, r5, r6, r7, lr}
  34              		.cfi_def_cfa_offset 20
  35              		.cfi_offset 4, -20
  36              		.cfi_offset 5, -16
  37              		.cfi_offset 6, -12
  38              		.cfi_offset 7, -8
  39              		.cfi_offset 14, -4
  40 0002 5746     		mov	r7, r10
  41 0004 4E46     		mov	r6, r9
  42 0006 4546     		mov	r5, r8
  43 0008 E0B4     		push	{r5, r6, r7}
  44              		.cfi_def_cfa_offset 32
  45              		.cfi_offset 8, -32
  46              		.cfi_offset 9, -28
  47              		.cfi_offset 10, -24
  48 000a C0B0     		sub	sp, sp, #256
  49              		.cfi_def_cfa_offset 288
  50 000c 8046     		mov	r8, r0
  51              	.LVL1:
 152:Generated_Source\PSoC4/BLE_HAL_PVT.c ****     uint8 writeBuffer[CY_FLASH_SIZEOF_ROW];
 153:Generated_Source\PSoC4/BLE_HAL_PVT.c ****     uint32 rowId;
 154:Generated_Source\PSoC4/BLE_HAL_PVT.c ****     uint32 dstIndex;
 155:Generated_Source\PSoC4/BLE_HAL_PVT.c ****     uint32 srcIndex = 0u;
 156:Generated_Source\PSoC4/BLE_HAL_PVT.c ****     cystatus rc = CYRET_SUCCESS;
 157:Generated_Source\PSoC4/BLE_HAL_PVT.c ****     uint32 eeOffset;
 158:Generated_Source\PSoC4/BLE_HAL_PVT.c ****     uint32 byteOffset;
 159:Generated_Source\PSoC4/BLE_HAL_PVT.c ****     uint32 rowsNotEqual;
 160:Generated_Source\PSoC4/BLE_HAL_PVT.c **** 
 161:Generated_Source\PSoC4/BLE_HAL_PVT.c ****     eeOffset = (uint32)varFlash;
  52              		.loc 1 161 0
  53 000e 0E00     		movs	r6, r1
  54              	.LVL2:
 162:Generated_Source\PSoC4/BLE_HAL_PVT.c **** 
 163:Generated_Source\PSoC4/BLE_HAL_PVT.c ****     /* Make sure, that varFlash[] points to Flash */
 164:Generated_Source\PSoC4/BLE_HAL_PVT.c ****     if ((eeOffset + length) < CYBLE_HAL_FLASH_END_ADDR)
  55              		.loc 1 164 0
  56 0010 1700     		movs	r7, r2
  57 0012 8A18     		adds	r2, r1, r2
  58              	.LVL3:
  59 0014 204B     		ldr	r3, .L15
  60 0016 9A42     		cmp	r2, r3
  61 0018 2FD8     		bhi	.L11
 165:Generated_Source\PSoC4/BLE_HAL_PVT.c ****     {
 166:Generated_Source\PSoC4/BLE_HAL_PVT.c ****         rowId = eeOffset / CY_FLASH_SIZEOF_ROW;
  62              		.loc 1 166 0
ARM GAS  C:\Users\Roi\AppData\Local\Temp\ccVHOZXJ.s 			page 5


  63 001a 0B0A     		lsrs	r3, r1, #8
  64 001c 9946     		mov	r9, r3
  65              	.LVL4:
 167:Generated_Source\PSoC4/BLE_HAL_PVT.c ****         byteOffset = CY_FLASH_SIZEOF_ROW * rowId;
  66              		.loc 1 167 0
  67 001e 1C02     		lsls	r4, r3, #8
  68              	.LVL5:
 156:Generated_Source\PSoC4/BLE_HAL_PVT.c ****     uint32 eeOffset;
  69              		.loc 1 156 0
  70 0020 0023     		movs	r3, #0
  71              	.LVL6:
  72 0022 9C46     		mov	ip, r3
 155:Generated_Source\PSoC4/BLE_HAL_PVT.c ****     cystatus rc = CYRET_SUCCESS;
  73              		.loc 1 155 0
  74 0024 0025     		movs	r5, #0
 168:Generated_Source\PSoC4/BLE_HAL_PVT.c **** 
 169:Generated_Source\PSoC4/BLE_HAL_PVT.c ****         while ((srcIndex < length) && (rc == CYRET_SUCCESS))
  75              		.loc 1 169 0
  76 0026 22E0     		b	.L3
  77              	.LVL7:
  78              	.L7:
 170:Generated_Source\PSoC4/BLE_HAL_PVT.c ****         {
 171:Generated_Source\PSoC4/BLE_HAL_PVT.c ****             rowsNotEqual = 0u;
 172:Generated_Source\PSoC4/BLE_HAL_PVT.c ****             /* Copy data to the write buffer either from the source buffer or from the flash */
 173:Generated_Source\PSoC4/BLE_HAL_PVT.c ****             for (dstIndex = 0u; dstIndex < CY_FLASH_SIZEOF_ROW; dstIndex++)
 174:Generated_Source\PSoC4/BLE_HAL_PVT.c ****             {
 175:Generated_Source\PSoC4/BLE_HAL_PVT.c ****                 if ((byteOffset >= eeOffset) && (srcIndex < length))
  79              		.loc 1 175 0
  80 0028 B442     		cmp	r4, r6
  81 002a 0CD3     		bcc	.L4
  82              		.loc 1 175 0 is_stmt 0 discriminator 1
  83 002c BD42     		cmp	r5, r7
  84 002e 0AD2     		bcs	.L4
 176:Generated_Source\PSoC4/BLE_HAL_PVT.c ****                 {
 177:Generated_Source\PSoC4/BLE_HAL_PVT.c ****                     writeBuffer[dstIndex] = buffer[srcIndex];
  85              		.loc 1 177 0 is_stmt 1
  86 0030 4246     		mov	r2, r8
  87 0032 515D     		ldrb	r1, [r2, r5]
  88 0034 6A46     		mov	r2, sp
  89 0036 D154     		strb	r1, [r2, r3]
 178:Generated_Source\PSoC4/BLE_HAL_PVT.c ****                     /* Detect that row programming is required */
 179:Generated_Source\PSoC4/BLE_HAL_PVT.c ****                     if(CY_GET_XTND_REG8(CYDEV_FLASH_BASE + byteOffset) != buffer[srcIndex])
  90              		.loc 1 179 0
  91 0038 2278     		ldrb	r2, [r4]
  92 003a D2B2     		uxtb	r2, r2
  93 003c 8A42     		cmp	r2, r1
  94 003e 00D0     		beq	.L5
 180:Generated_Source\PSoC4/BLE_HAL_PVT.c ****                     {
 181:Generated_Source\PSoC4/BLE_HAL_PVT.c ****                         rowsNotEqual = 1u;  
  95              		.loc 1 181 0
  96 0040 0120     		movs	r0, #1
  97              	.LVL8:
  98              	.L5:
 182:Generated_Source\PSoC4/BLE_HAL_PVT.c ****                     }
 183:Generated_Source\PSoC4/BLE_HAL_PVT.c ****                     srcIndex++;
  99              		.loc 1 183 0
 100 0042 0135     		adds	r5, r5, #1
ARM GAS  C:\Users\Roi\AppData\Local\Temp\ccVHOZXJ.s 			page 6


 101              	.LVL9:
 102 0044 02E0     		b	.L6
 103              	.L4:
 184:Generated_Source\PSoC4/BLE_HAL_PVT.c ****                 }
 185:Generated_Source\PSoC4/BLE_HAL_PVT.c ****                 else
 186:Generated_Source\PSoC4/BLE_HAL_PVT.c ****                 {
 187:Generated_Source\PSoC4/BLE_HAL_PVT.c ****                     writeBuffer[dstIndex] = CY_GET_XTND_REG8(CYDEV_FLASH_BASE + byteOffset);
 104              		.loc 1 187 0
 105 0046 2278     		ldrb	r2, [r4]
 106 0048 6946     		mov	r1, sp
 107 004a CA54     		strb	r2, [r1, r3]
 108              	.L6:
 188:Generated_Source\PSoC4/BLE_HAL_PVT.c ****                 }
 189:Generated_Source\PSoC4/BLE_HAL_PVT.c ****                 byteOffset++;
 109              		.loc 1 189 0 discriminator 2
 110 004c 0134     		adds	r4, r4, #1
 111              	.LVL10:
 173:Generated_Source\PSoC4/BLE_HAL_PVT.c ****             {
 112              		.loc 1 173 0 discriminator 2
 113 004e 0133     		adds	r3, r3, #1
 114              	.LVL11:
 115 0050 01E0     		b	.L9
 116              	.LVL12:
 117              	.L13:
 118 0052 0020     		movs	r0, #0
 119 0054 0023     		movs	r3, #0
 120              	.LVL13:
 121              	.L9:
 173:Generated_Source\PSoC4/BLE_HAL_PVT.c ****             {
 122              		.loc 1 173 0 is_stmt 0 discriminator 1
 123 0056 FF2B     		cmp	r3, #255
 124 0058 E6D9     		bls	.L7
 190:Generated_Source\PSoC4/BLE_HAL_PVT.c ****             }
 191:Generated_Source\PSoC4/BLE_HAL_PVT.c **** 
 192:Generated_Source\PSoC4/BLE_HAL_PVT.c ****             if(rowsNotEqual != 0u)
 125              		.loc 1 192 0 is_stmt 1
 126 005a 0028     		cmp	r0, #0
 127 005c 04D0     		beq	.L8
 193:Generated_Source\PSoC4/BLE_HAL_PVT.c ****             {
 194:Generated_Source\PSoC4/BLE_HAL_PVT.c ****                 /* Write flash row */
 195:Generated_Source\PSoC4/BLE_HAL_PVT.c ****                 rc = CySysFlashWriteRow(rowId, writeBuffer);
 128              		.loc 1 195 0
 129 005e 6946     		mov	r1, sp
 130 0060 4846     		mov	r0, r9
 131              	.LVL14:
 132 0062 FFF7FEFF 		bl	CySysFlashWriteRow
 133              	.LVL15:
 134 0066 8446     		mov	ip, r0
 135              	.LVL16:
 136              	.L8:
 196:Generated_Source\PSoC4/BLE_HAL_PVT.c ****             }
 197:Generated_Source\PSoC4/BLE_HAL_PVT.c **** 
 198:Generated_Source\PSoC4/BLE_HAL_PVT.c ****             /* Go to the next row */
 199:Generated_Source\PSoC4/BLE_HAL_PVT.c ****             rowId++;
 137              		.loc 1 199 0
 138 0068 0123     		movs	r3, #1
 139 006a 9A46     		mov	r10, r3
ARM GAS  C:\Users\Roi\AppData\Local\Temp\ccVHOZXJ.s 			page 7


 140 006c D144     		add	r9, r9, r10
 141              	.LVL17:
 142              	.L3:
 169:Generated_Source\PSoC4/BLE_HAL_PVT.c ****         {
 143              		.loc 1 169 0
 144 006e BD42     		cmp	r5, r7
 145 0070 05D2     		bcs	.L2
 169:Generated_Source\PSoC4/BLE_HAL_PVT.c ****         {
 146              		.loc 1 169 0 is_stmt 0 discriminator 1
 147 0072 6346     		mov	r3, ip
 148 0074 002B     		cmp	r3, #0
 149 0076 ECD0     		beq	.L13
 150 0078 01E0     		b	.L2
 151              	.LVL18:
 152              	.L11:
 200:Generated_Source\PSoC4/BLE_HAL_PVT.c ****         }
 201:Generated_Source\PSoC4/BLE_HAL_PVT.c ****     }
 202:Generated_Source\PSoC4/BLE_HAL_PVT.c ****     else
 203:Generated_Source\PSoC4/BLE_HAL_PVT.c ****     {
 204:Generated_Source\PSoC4/BLE_HAL_PVT.c ****         rc = CYRET_BAD_PARAM;
 153              		.loc 1 204 0 is_stmt 1
 154 007a 0123     		movs	r3, #1
 155 007c 9C46     		mov	ip, r3
 156              	.LVL19:
 157              	.L2:
 205:Generated_Source\PSoC4/BLE_HAL_PVT.c ****     }
 206:Generated_Source\PSoC4/BLE_HAL_PVT.c **** 
 207:Generated_Source\PSoC4/BLE_HAL_PVT.c ****     /* Mask return codes from flash, if they are not supported */
 208:Generated_Source\PSoC4/BLE_HAL_PVT.c ****     if ((CYRET_SUCCESS != rc) && (CYRET_BAD_PARAM != rc))
 158              		.loc 1 208 0
 159 007e 6346     		mov	r3, ip
 160 0080 012B     		cmp	r3, #1
 161 0082 02D9     		bls	.L10
 209:Generated_Source\PSoC4/BLE_HAL_PVT.c ****     {
 210:Generated_Source\PSoC4/BLE_HAL_PVT.c ****         rc = CYRET_UNKNOWN;
 162              		.loc 1 210 0
 163 0084 0123     		movs	r3, #1
 164 0086 5B42     		rsbs	r3, r3, #0
 165 0088 9C46     		mov	ip, r3
 166              	.LVL20:
 167              	.L10:
 211:Generated_Source\PSoC4/BLE_HAL_PVT.c ****     }
 212:Generated_Source\PSoC4/BLE_HAL_PVT.c ****     
 213:Generated_Source\PSoC4/BLE_HAL_PVT.c ****     return (rc);
 214:Generated_Source\PSoC4/BLE_HAL_PVT.c **** }
 168              		.loc 1 214 0
 169 008a 6046     		mov	r0, ip
 170 008c 40B0     		add	sp, sp, #256
 171              		@ sp needed
 172              	.LVL21:
 173              	.LVL22:
 174 008e 1CBC     		pop	{r2, r3, r4}
 175 0090 9046     		mov	r8, r2
 176 0092 9946     		mov	r9, r3
 177 0094 A246     		mov	r10, r4
 178 0096 F0BD     		pop	{r4, r5, r6, r7, pc}
 179              	.L16:
ARM GAS  C:\Users\Roi\AppData\Local\Temp\ccVHOZXJ.s 			page 8


 180              		.align	2
 181              	.L15:
 182 0098 FFFF0300 		.word	262143
 183              		.cfi_endproc
 184              	.LFE2:
 185              		.size	CyBLE_Nvram_Write, .-CyBLE_Nvram_Write
 186              		.section	.text.CyBLE_Nvram_Erase,"ax",%progbits
 187              		.align	2
 188              		.global	CyBLE_Nvram_Erase
 189              		.code	16
 190              		.thumb_func
 191              		.type	CyBLE_Nvram_Erase, %function
 192              	CyBLE_Nvram_Erase:
 193              	.LFB3:
 215:Generated_Source\PSoC4/BLE_HAL_PVT.c **** 
 216:Generated_Source\PSoC4/BLE_HAL_PVT.c **** /*******************************************************************************
 217:Generated_Source\PSoC4/BLE_HAL_PVT.c **** * Function Name: CyBLE_Nvram_Erase
 218:Generated_Source\PSoC4/BLE_HAL_PVT.c **** ****************************************************************************//**
 219:Generated_Source\PSoC4/BLE_HAL_PVT.c **** *
 220:Generated_Source\PSoC4/BLE_HAL_PVT.c **** *  This function erases the data from the NVRAM store. It will perform an 
 221:Generated_Source\PSoC4/BLE_HAL_PVT.c **** *  address range check based on the length before performing erase operation.
 222:Generated_Source\PSoC4/BLE_HAL_PVT.c **** *
 223:Generated_Source\PSoC4/BLE_HAL_PVT.c **** *  \param varFlash: the pointer to the array or variable in the flash.
 224:Generated_Source\PSoC4/BLE_HAL_PVT.c **** *  \param length:    the length of the data in bytes.
 225:Generated_Source\PSoC4/BLE_HAL_PVT.c **** *
 226:Generated_Source\PSoC4/BLE_HAL_PVT.c **** * \return
 227:Generated_Source\PSoC4/BLE_HAL_PVT.c **** *  CYRET_SUCCESS    a successful write
 228:Generated_Source\PSoC4/BLE_HAL_PVT.c **** *  CYRET_BAD_PARAM  A request to write outside the flash boundary.
 229:Generated_Source\PSoC4/BLE_HAL_PVT.c **** *  CYRET_UNKNOWN    Other errors in writing the flash
 230:Generated_Source\PSoC4/BLE_HAL_PVT.c **** *
 231:Generated_Source\PSoC4/BLE_HAL_PVT.c **** *******************************************************************************/
 232:Generated_Source\PSoC4/BLE_HAL_PVT.c **** cystatus CyBLE_Nvram_Erase (const uint8 *varFlash, uint16 length)
 233:Generated_Source\PSoC4/BLE_HAL_PVT.c **** {
 194              		.loc 1 233 0
 195              		.cfi_startproc
 196              		@ args = 0, pretend = 0, frame = 256
 197              		@ frame_needed = 0, uses_anonymous_args = 0
 198              	.LVL23:
 199 0000 70B5     		push	{r4, r5, r6, lr}
 200              		.cfi_def_cfa_offset 16
 201              		.cfi_offset 4, -16
 202              		.cfi_offset 5, -12
 203              		.cfi_offset 6, -8
 204              		.cfi_offset 14, -4
 205 0002 C0B0     		sub	sp, sp, #256
 206              		.cfi_def_cfa_offset 272
 207 0004 0500     		movs	r5, r0
 208 0006 0C00     		movs	r4, r1
 234:Generated_Source\PSoC4/BLE_HAL_PVT.c ****     const uint8 *tempFlash;
 235:Generated_Source\PSoC4/BLE_HAL_PVT.c ****     uint8 flashBuffer[CY_FLASH_SIZEOF_ROW] = {0u};
 209              		.loc 1 235 0
 210 0008 8022     		movs	r2, #128
 211 000a 5200     		lsls	r2, r2, #1
 212 000c 0021     		movs	r1, #0
 213              	.LVL24:
 214 000e 6846     		mov	r0, sp
 215              	.LVL25:
ARM GAS  C:\Users\Roi\AppData\Local\Temp\ccVHOZXJ.s 			page 9


 216 0010 FFF7FEFF 		bl	memset
 217              	.LVL26:
 236:Generated_Source\PSoC4/BLE_HAL_PVT.c ****     uint16 lengthFlash;
 237:Generated_Source\PSoC4/BLE_HAL_PVT.c ****     uint16 lengthRemaining;
 238:Generated_Source\PSoC4/BLE_HAL_PVT.c ****     cystatus rc = CYRET_UNKNOWN;
 218              		.loc 1 238 0
 219 0014 0120     		movs	r0, #1
 220 0016 4042     		rsbs	r0, r0, #0
 239:Generated_Source\PSoC4/BLE_HAL_PVT.c **** 
 240:Generated_Source\PSoC4/BLE_HAL_PVT.c ****     tempFlash = varFlash;
 241:Generated_Source\PSoC4/BLE_HAL_PVT.c ****     lengthRemaining = length;
 242:Generated_Source\PSoC4/BLE_HAL_PVT.c **** 
 243:Generated_Source\PSoC4/BLE_HAL_PVT.c ****     while(lengthRemaining > 0u)
 221              		.loc 1 243 0
 222 0018 10E0     		b	.L18
 223              	.LVL27:
 224              	.L21:
 244:Generated_Source\PSoC4/BLE_HAL_PVT.c ****     {
 245:Generated_Source\PSoC4/BLE_HAL_PVT.c ****         if(lengthRemaining < CY_FLASH_SIZEOF_ROW)
 225              		.loc 1 245 0
 226 001a FF2C     		cmp	r4, #255
 227 001c 02D9     		bls	.L22
 246:Generated_Source\PSoC4/BLE_HAL_PVT.c ****         {
 247:Generated_Source\PSoC4/BLE_HAL_PVT.c ****             lengthFlash = lengthRemaining;
 248:Generated_Source\PSoC4/BLE_HAL_PVT.c ****         }
 249:Generated_Source\PSoC4/BLE_HAL_PVT.c ****         else
 250:Generated_Source\PSoC4/BLE_HAL_PVT.c ****         {
 251:Generated_Source\PSoC4/BLE_HAL_PVT.c ****             lengthFlash = CY_FLASH_SIZEOF_ROW;
 228              		.loc 1 251 0
 229 001e 8026     		movs	r6, #128
 230 0020 7600     		lsls	r6, r6, #1
 231 0022 00E0     		b	.L19
 232              	.L22:
 247:Generated_Source\PSoC4/BLE_HAL_PVT.c ****         }
 233              		.loc 1 247 0
 234 0024 2600     		movs	r6, r4
 235              	.L19:
 236              	.LVL28:
 252:Generated_Source\PSoC4/BLE_HAL_PVT.c ****         }
 253:Generated_Source\PSoC4/BLE_HAL_PVT.c ****         rc = CyBLE_Nvram_Write(flashBuffer, tempFlash, lengthFlash);
 237              		.loc 1 253 0
 238 0026 3200     		movs	r2, r6
 239 0028 2900     		movs	r1, r5
 240 002a 6846     		mov	r0, sp
 241              	.LVL29:
 242 002c FFF7FEFF 		bl	CyBLE_Nvram_Write
 243              	.LVL30:
 254:Generated_Source\PSoC4/BLE_HAL_PVT.c ****         if(rc != CYRET_SUCCESS)
 244              		.loc 1 254 0
 245 0030 0028     		cmp	r0, #0
 246 0032 05D1     		bne	.L20
 255:Generated_Source\PSoC4/BLE_HAL_PVT.c ****         {
 256:Generated_Source\PSoC4/BLE_HAL_PVT.c ****             break;
 257:Generated_Source\PSoC4/BLE_HAL_PVT.c ****         }
 258:Generated_Source\PSoC4/BLE_HAL_PVT.c ****         tempFlash += CY_FLASH_SIZEOF_ROW;
 247              		.loc 1 258 0
 248 0034 0135     		adds	r5, r5, #1
ARM GAS  C:\Users\Roi\AppData\Local\Temp\ccVHOZXJ.s 			page 10


 249              	.LVL31:
 250 0036 FF35     		adds	r5, r5, #255
 251              	.LVL32:
 259:Generated_Source\PSoC4/BLE_HAL_PVT.c ****         lengthRemaining -= lengthFlash;
 252              		.loc 1 259 0
 253 0038 A41B     		subs	r4, r4, r6
 254              	.LVL33:
 255 003a A4B2     		uxth	r4, r4
 256              	.LVL34:
 257              	.L18:
 243:Generated_Source\PSoC4/BLE_HAL_PVT.c ****     {
 258              		.loc 1 243 0
 259 003c 002C     		cmp	r4, #0
 260 003e ECD1     		bne	.L21
 261              	.L20:
 260:Generated_Source\PSoC4/BLE_HAL_PVT.c ****     }
 261:Generated_Source\PSoC4/BLE_HAL_PVT.c **** 
 262:Generated_Source\PSoC4/BLE_HAL_PVT.c ****     return rc;
 263:Generated_Source\PSoC4/BLE_HAL_PVT.c **** }
 262              		.loc 1 263 0
 263 0040 40B0     		add	sp, sp, #256
 264              		@ sp needed
 265              	.LVL35:
 266              	.LVL36:
 267 0042 70BD     		pop	{r4, r5, r6, pc}
 268              		.cfi_endproc
 269              	.LFE3:
 270              		.size	CyBLE_Nvram_Erase, .-CyBLE_Nvram_Erase
 271              		.section	.text.CyBLE_Bless_LlRegRead,"ax",%progbits
 272              		.align	2
 273              		.global	CyBLE_Bless_LlRegRead
 274              		.code	16
 275              		.thumb_func
 276              		.type	CyBLE_Bless_LlRegRead, %function
 277              	CyBLE_Bless_LlRegRead:
 278              	.LFB4:
 264:Generated_Source\PSoC4/BLE_HAL_PVT.c **** 
 265:Generated_Source\PSoC4/BLE_HAL_PVT.c **** 
 266:Generated_Source\PSoC4/BLE_HAL_PVT.c **** /*******************************************************************************
 267:Generated_Source\PSoC4/BLE_HAL_PVT.c **** * Function Name: CyBLE_Bless_LlRegRead
 268:Generated_Source\PSoC4/BLE_HAL_PVT.c **** ****************************************************************************//**
 269:Generated_Source\PSoC4/BLE_HAL_PVT.c **** *
 270:Generated_Source\PSoC4/BLE_HAL_PVT.c **** *  This function reads the content of the BLESS Link Layer register from the 
 271:Generated_Source\PSoC4/BLE_HAL_PVT.c **** *  stack.
 272:Generated_Source\PSoC4/BLE_HAL_PVT.c **** *
 273:Generated_Source\PSoC4/BLE_HAL_PVT.c **** *  \param blessAddr: the pointer to the BLESS link layer address.
 274:Generated_Source\PSoC4/BLE_HAL_PVT.c **** *  \param regValue: the pointer to the buffer space to copy the read value.
 275:Generated_Source\PSoC4/BLE_HAL_PVT.c **** *
 276:Generated_Source\PSoC4/BLE_HAL_PVT.c **** * \return
 277:Generated_Source\PSoC4/BLE_HAL_PVT.c **** *  None
 278:Generated_Source\PSoC4/BLE_HAL_PVT.c **** *
 279:Generated_Source\PSoC4/BLE_HAL_PVT.c **** *******************************************************************************/
 280:Generated_Source\PSoC4/BLE_HAL_PVT.c **** void CyBLE_Bless_LlRegRead (const reg32 *blessAddr, uint16 *regValue)
 281:Generated_Source\PSoC4/BLE_HAL_PVT.c **** {
 279              		.loc 1 281 0
 280              		.cfi_startproc
 281              		@ args = 0, pretend = 0, frame = 0
ARM GAS  C:\Users\Roi\AppData\Local\Temp\ccVHOZXJ.s 			page 11


 282              		@ frame_needed = 0, uses_anonymous_args = 0
 283              		@ link register save eliminated.
 284              	.LVL37:
 282:Generated_Source\PSoC4/BLE_HAL_PVT.c ****     *regValue = (uint16)CY_GET_REG32(blessAddr);
 285              		.loc 1 282 0
 286 0000 0368     		ldr	r3, [r0]
 287 0002 0B80     		strh	r3, [r1]
 283:Generated_Source\PSoC4/BLE_HAL_PVT.c **** }
 288              		.loc 1 283 0
 289              		@ sp needed
 290 0004 7047     		bx	lr
 291              		.cfi_endproc
 292              	.LFE4:
 293              		.size	CyBLE_Bless_LlRegRead, .-CyBLE_Bless_LlRegRead
 294 0006 C046     		.section	.text.CyBLE_Bless_LlRegWrite,"ax",%progbits
 295              		.align	2
 296              		.global	CyBLE_Bless_LlRegWrite
 297              		.code	16
 298              		.thumb_func
 299              		.type	CyBLE_Bless_LlRegWrite, %function
 300              	CyBLE_Bless_LlRegWrite:
 301              	.LFB5:
 284:Generated_Source\PSoC4/BLE_HAL_PVT.c **** 
 285:Generated_Source\PSoC4/BLE_HAL_PVT.c **** 
 286:Generated_Source\PSoC4/BLE_HAL_PVT.c **** /*******************************************************************************
 287:Generated_Source\PSoC4/BLE_HAL_PVT.c **** * Function Name: CyBLE_Bless_LlRegWrite
 288:Generated_Source\PSoC4/BLE_HAL_PVT.c **** ****************************************************************************//**
 289:Generated_Source\PSoC4/BLE_HAL_PVT.c **** *
 290:Generated_Source\PSoC4/BLE_HAL_PVT.c **** *  This function writes to the BLESS Link Layer register from the stack.
 291:Generated_Source\PSoC4/BLE_HAL_PVT.c **** *
 292:Generated_Source\PSoC4/BLE_HAL_PVT.c **** *  \param blessAddr: the pointer to the BLESS link layer address.
 293:Generated_Source\PSoC4/BLE_HAL_PVT.c **** *  \param regValue: the pointer to the value to be written to the BLESS LL reg.
 294:Generated_Source\PSoC4/BLE_HAL_PVT.c **** *
 295:Generated_Source\PSoC4/BLE_HAL_PVT.c **** * \return
 296:Generated_Source\PSoC4/BLE_HAL_PVT.c **** *  None
 297:Generated_Source\PSoC4/BLE_HAL_PVT.c **** *
 298:Generated_Source\PSoC4/BLE_HAL_PVT.c **** *******************************************************************************/
 299:Generated_Source\PSoC4/BLE_HAL_PVT.c **** void CyBLE_Bless_LlRegWrite (reg32 *blessAddr, const uint16 regValue)
 300:Generated_Source\PSoC4/BLE_HAL_PVT.c **** {
 302              		.loc 1 300 0
 303              		.cfi_startproc
 304              		@ args = 0, pretend = 0, frame = 0
 305              		@ frame_needed = 0, uses_anonymous_args = 0
 306              		@ link register save eliminated.
 307              	.LVL38:
 301:Generated_Source\PSoC4/BLE_HAL_PVT.c ****     CY_SET_REG32(blessAddr, regValue);
 308              		.loc 1 301 0
 309 0000 0160     		str	r1, [r0]
 302:Generated_Source\PSoC4/BLE_HAL_PVT.c **** }
 310              		.loc 1 302 0
 311              		@ sp needed
 312 0002 7047     		bx	lr
 313              		.cfi_endproc
 314              	.LFE5:
 315              		.size	CyBLE_Bless_LlRegWrite, .-CyBLE_Bless_LlRegWrite
 316              		.section	.text.CyBLE_Bless_RfRegRead,"ax",%progbits
 317              		.align	2
ARM GAS  C:\Users\Roi\AppData\Local\Temp\ccVHOZXJ.s 			page 12


 318              		.global	CyBLE_Bless_RfRegRead
 319              		.code	16
 320              		.thumb_func
 321              		.type	CyBLE_Bless_RfRegRead, %function
 322              	CyBLE_Bless_RfRegRead:
 323              	.LFB6:
 303:Generated_Source\PSoC4/BLE_HAL_PVT.c **** 
 304:Generated_Source\PSoC4/BLE_HAL_PVT.c **** 
 305:Generated_Source\PSoC4/BLE_HAL_PVT.c **** /*******************************************************************************
 306:Generated_Source\PSoC4/BLE_HAL_PVT.c **** * Function Name: CyBLE_Bless_RfRegRead
 307:Generated_Source\PSoC4/BLE_HAL_PVT.c **** ****************************************************************************//**
 308:Generated_Source\PSoC4/BLE_HAL_PVT.c **** *
 309:Generated_Source\PSoC4/BLE_HAL_PVT.c **** *  This function reads the content of the BLESS RF register from the stack.
 310:Generated_Source\PSoC4/BLE_HAL_PVT.c **** *
 311:Generated_Source\PSoC4/BLE_HAL_PVT.c **** *  \param blessAddr: the pointer to BLESS RF register address.
 312:Generated_Source\PSoC4/BLE_HAL_PVT.c **** *  \param regValue: the pointer to the buffer space to copy the read value.
 313:Generated_Source\PSoC4/BLE_HAL_PVT.c **** *
 314:Generated_Source\PSoC4/BLE_HAL_PVT.c **** * \return
 315:Generated_Source\PSoC4/BLE_HAL_PVT.c **** *  None
 316:Generated_Source\PSoC4/BLE_HAL_PVT.c **** *
 317:Generated_Source\PSoC4/BLE_HAL_PVT.c **** *******************************************************************************/
 318:Generated_Source\PSoC4/BLE_HAL_PVT.c **** void CyBLE_Bless_RfRegRead (const reg32 *blessAddr, uint16 *regValue)
 319:Generated_Source\PSoC4/BLE_HAL_PVT.c **** {
 324              		.loc 1 319 0
 325              		.cfi_startproc
 326              		@ args = 0, pretend = 0, frame = 0
 327              		@ frame_needed = 0, uses_anonymous_args = 0
 328              		@ link register save eliminated.
 329              	.LVL39:
 320:Generated_Source\PSoC4/BLE_HAL_PVT.c ****     *regValue = (uint16)CY_GET_REG32(blessAddr);
 330              		.loc 1 320 0
 331 0000 0368     		ldr	r3, [r0]
 332 0002 0B80     		strh	r3, [r1]
 321:Generated_Source\PSoC4/BLE_HAL_PVT.c **** }
 333              		.loc 1 321 0
 334              		@ sp needed
 335 0004 7047     		bx	lr
 336              		.cfi_endproc
 337              	.LFE6:
 338              		.size	CyBLE_Bless_RfRegRead, .-CyBLE_Bless_RfRegRead
 339 0006 C046     		.section	.text.CyBLE_Bless_RfRegWrite,"ax",%progbits
 340              		.align	2
 341              		.global	CyBLE_Bless_RfRegWrite
 342              		.code	16
 343              		.thumb_func
 344              		.type	CyBLE_Bless_RfRegWrite, %function
 345              	CyBLE_Bless_RfRegWrite:
 346              	.LFB7:
 322:Generated_Source\PSoC4/BLE_HAL_PVT.c **** 
 323:Generated_Source\PSoC4/BLE_HAL_PVT.c **** 
 324:Generated_Source\PSoC4/BLE_HAL_PVT.c **** /*******************************************************************************
 325:Generated_Source\PSoC4/BLE_HAL_PVT.c **** * Function Name: CyBLE_Bless_RfRegWrite
 326:Generated_Source\PSoC4/BLE_HAL_PVT.c **** ****************************************************************************//**
 327:Generated_Source\PSoC4/BLE_HAL_PVT.c **** *
 328:Generated_Source\PSoC4/BLE_HAL_PVT.c **** *  This function writes to the BLESS RF register from the stack.
 329:Generated_Source\PSoC4/BLE_HAL_PVT.c **** *
 330:Generated_Source\PSoC4/BLE_HAL_PVT.c **** *  \param blessAddr: the pointer to the BLESS RF address.
ARM GAS  C:\Users\Roi\AppData\Local\Temp\ccVHOZXJ.s 			page 13


 331:Generated_Source\PSoC4/BLE_HAL_PVT.c **** *  \param regValue: the pointer to the value to be written to the BLESS RF reg.
 332:Generated_Source\PSoC4/BLE_HAL_PVT.c **** *
 333:Generated_Source\PSoC4/BLE_HAL_PVT.c **** * \return
 334:Generated_Source\PSoC4/BLE_HAL_PVT.c **** *  None
 335:Generated_Source\PSoC4/BLE_HAL_PVT.c **** *
 336:Generated_Source\PSoC4/BLE_HAL_PVT.c **** *******************************************************************************/
 337:Generated_Source\PSoC4/BLE_HAL_PVT.c **** void CyBLE_Bless_RfRegWrite (reg32 *blessAddr, const uint16 regValue)
 338:Generated_Source\PSoC4/BLE_HAL_PVT.c **** {
 347              		.loc 1 338 0
 348              		.cfi_startproc
 349              		@ args = 0, pretend = 0, frame = 0
 350              		@ frame_needed = 0, uses_anonymous_args = 0
 351              		@ link register save eliminated.
 352              	.LVL40:
 339:Generated_Source\PSoC4/BLE_HAL_PVT.c ****      CY_SET_REG32(blessAddr, regValue);
 353              		.loc 1 339 0
 354 0000 0160     		str	r1, [r0]
 340:Generated_Source\PSoC4/BLE_HAL_PVT.c **** }
 355              		.loc 1 340 0
 356              		@ sp needed
 357 0002 7047     		bx	lr
 358              		.cfi_endproc
 359              	.LFE7:
 360              		.size	CyBLE_Bless_RfRegWrite, .-CyBLE_Bless_RfRegWrite
 361              		.section	.text.CyBLE_BlessDeviceConfig,"ax",%progbits
 362              		.align	2
 363              		.global	CyBLE_BlessDeviceConfig
 364              		.code	16
 365              		.thumb_func
 366              		.type	CyBLE_BlessDeviceConfig, %function
 367              	CyBLE_BlessDeviceConfig:
 368              	.LFB8:
 341:Generated_Source\PSoC4/BLE_HAL_PVT.c **** 
 342:Generated_Source\PSoC4/BLE_HAL_PVT.c **** /*******************************************************************************
 343:Generated_Source\PSoC4/BLE_HAL_PVT.c **** * Function Name: CyBLE_BlessDeviceConfig
 344:Generated_Source\PSoC4/BLE_HAL_PVT.c **** ****************************************************************************//**
 345:Generated_Source\PSoC4/BLE_HAL_PVT.c **** *
 346:Generated_Source\PSoC4/BLE_HAL_PVT.c **** *  This function configures BLESS registers by trimmed values stored in SFLASH.
 347:Generated_Source\PSoC4/BLE_HAL_PVT.c **** *
 348:Generated_Source\PSoC4/BLE_HAL_PVT.c **** * \return
 349:Generated_Source\PSoC4/BLE_HAL_PVT.c **** *  None
 350:Generated_Source\PSoC4/BLE_HAL_PVT.c **** *
 351:Generated_Source\PSoC4/BLE_HAL_PVT.c **** *******************************************************************************/
 352:Generated_Source\PSoC4/BLE_HAL_PVT.c **** void CyBLE_BlessDeviceConfig(void)
 353:Generated_Source\PSoC4/BLE_HAL_PVT.c **** {
 369              		.loc 1 353 0
 370              		.cfi_startproc
 371              		@ args = 0, pretend = 0, frame = 0
 372              		@ frame_needed = 0, uses_anonymous_args = 0
 373              		@ link register save eliminated.
 354:Generated_Source\PSoC4/BLE_HAL_PVT.c **** #if (CYIPBLOCK_m0s8bless_VERSION < 3)
 355:Generated_Source\PSoC4/BLE_HAL_PVT.c ****     
 356:Generated_Source\PSoC4/BLE_HAL_PVT.c ****     uint32 trimRegValue;
 357:Generated_Source\PSoC4/BLE_HAL_PVT.c ****     uint32 ldo;
 358:Generated_Source\PSoC4/BLE_HAL_PVT.c ****     uint16 trimRef34Val;
 359:Generated_Source\PSoC4/BLE_HAL_PVT.c ****     uint16 trimRef38Val;    
 360:Generated_Source\PSoC4/BLE_HAL_PVT.c ****     uint32 siliconRev;
ARM GAS  C:\Users\Roi\AppData\Local\Temp\ccVHOZXJ.s 			page 14


 361:Generated_Source\PSoC4/BLE_HAL_PVT.c **** 
 362:Generated_Source\PSoC4/BLE_HAL_PVT.c ****     trimRegValue = ((uint32)CYBLE_SFLASH_BLESS_BB_BUMP2_HIGH_REG << 8u) | CYBLE_SFLASH_BLESS_BB_BUM
 374              		.loc 1 362 0
 375 0000 324B     		ldr	r3, .L40
 376 0002 1A78     		ldrb	r2, [r3]
 377 0004 1202     		lsls	r2, r2, #8
 378 0006 324B     		ldr	r3, .L40+4
 379 0008 1B78     		ldrb	r3, [r3]
 380 000a 1A43     		orrs	r2, r3
 381              	.LVL41:
 363:Generated_Source\PSoC4/BLE_HAL_PVT.c ****     ldo = ((uint32)CYBLE_SFLASH_BLESS_LDO_HIGH_REG << 8u) | CYBLE_SFLASH_BLESS_LDO_LOW_REG;
 382              		.loc 1 363 0
 383 000c 314B     		ldr	r3, .L40+8
 384 000e 1B78     		ldrb	r3, [r3]
 385 0010 1B02     		lsls	r3, r3, #8
 386 0012 3149     		ldr	r1, .L40+12
 387 0014 0978     		ldrb	r1, [r1]
 388 0016 0B43     		orrs	r3, r1
 389              	.LVL42:
 364:Generated_Source\PSoC4/BLE_HAL_PVT.c **** 
 365:Generated_Source\PSoC4/BLE_HAL_PVT.c ****     if ((ldo == CYBLE_SFLASH_BLERD_LDO_REG_VAL1) && (trimRegValue == CYBLE_SFLASH_BLERD_BB_BUMP2_RE
 390              		.loc 1 365 0
 391 0018 3049     		ldr	r1, .L40+16
 392 001a 8B42     		cmp	r3, r1
 393 001c 01D1     		bne	.L28
 394              		.loc 1 365 0 is_stmt 0 discriminator 1
 395 001e 072A     		cmp	r2, #7
 396 0020 06D0     		beq	.L33
 397              	.L28:
 366:Generated_Source\PSoC4/BLE_HAL_PVT.c ****     {
 367:Generated_Source\PSoC4/BLE_HAL_PVT.c ****         ldo = CYBLE_BLERD_LDO_REG_VAL_FINAL;
 368:Generated_Source\PSoC4/BLE_HAL_PVT.c ****         trimRegValue = CYBLE_BLERD_BB_BUMP2_REG_VAL_FINAL;
 369:Generated_Source\PSoC4/BLE_HAL_PVT.c ****     }
 370:Generated_Source\PSoC4/BLE_HAL_PVT.c ****     else if ((ldo == CYBLE_SFLASH_BLERD_LDO_REG_VAL2) && (trimRegValue == CYBLE_BLERD_BB_BUMP2_REG_
 398              		.loc 1 370 0 is_stmt 1
 399 0022 D421     		movs	r1, #212
 400 0024 0901     		lsls	r1, r1, #4
 401 0026 8B42     		cmp	r3, r1
 402 0028 06D1     		bne	.L29
 403              		.loc 1 370 0 is_stmt 0 discriminator 1
 404 002a 042A     		cmp	r2, #4
 405 002c 04D1     		bne	.L29
 406 002e 02E0     		b	.L34
 407              	.L33:
 367:Generated_Source\PSoC4/BLE_HAL_PVT.c ****         trimRegValue = CYBLE_BLERD_BB_BUMP2_REG_VAL_FINAL;
 408              		.loc 1 367 0 is_stmt 1
 409 0030 2B4B     		ldr	r3, .L40+20
 410              	.LVL43:
 368:Generated_Source\PSoC4/BLE_HAL_PVT.c ****     }
 411              		.loc 1 368 0
 412 0032 0422     		movs	r2, #4
 413              	.LVL44:
 414 0034 00E0     		b	.L29
 415              	.LVL45:
 416              	.L34:
 371:Generated_Source\PSoC4/BLE_HAL_PVT.c ****     {
 372:Generated_Source\PSoC4/BLE_HAL_PVT.c ****         ldo = CYBLE_BLERD_LDO_REG_VAL_FINAL;
ARM GAS  C:\Users\Roi\AppData\Local\Temp\ccVHOZXJ.s 			page 15


 417              		.loc 1 372 0
 418 0036 2A4B     		ldr	r3, .L40+20
 419              	.LVL46:
 420              	.L29:
 373:Generated_Source\PSoC4/BLE_HAL_PVT.c ****     }
 374:Generated_Source\PSoC4/BLE_HAL_PVT.c ****     else
 375:Generated_Source\PSoC4/BLE_HAL_PVT.c ****     {
 376:Generated_Source\PSoC4/BLE_HAL_PVT.c ****     }
 377:Generated_Source\PSoC4/BLE_HAL_PVT.c **** 
 378:Generated_Source\PSoC4/BLE_HAL_PVT.c ****     CYBLE_BLE_BLERD_LDO_REG = ldo;
 421              		.loc 1 378 0
 422 0038 2A49     		ldr	r1, .L40+24
 423 003a 0B60     		str	r3, [r1]
 379:Generated_Source\PSoC4/BLE_HAL_PVT.c ****     CYBLE_BLE_BLERD_BB_BUMP2_REG = trimRegValue;
 424              		.loc 1 379 0
 425 003c 2A4B     		ldr	r3, .L40+28
 426              	.LVL47:
 427 003e 1A60     		str	r2, [r3]
 428              	.LVL48:
 380:Generated_Source\PSoC4/BLE_HAL_PVT.c **** 
 381:Generated_Source\PSoC4/BLE_HAL_PVT.c ****     /* Edit only XTAL fast charge bit */
 382:Generated_Source\PSoC4/BLE_HAL_PVT.c ****     trimRegValue = ((uint32)CYBLE_SFLASH_BLESS_BB_XO_HIGH_REG << 8u) | CYBLE_SFLASH_BLESS_BB_XO_LOW
 429              		.loc 1 382 0
 430 0040 2A4B     		ldr	r3, .L40+32
 431 0042 1B78     		ldrb	r3, [r3]
 432 0044 1B02     		lsls	r3, r3, #8
 433 0046 2A4A     		ldr	r2, .L40+36
 434              	.LVL49:
 435 0048 1278     		ldrb	r2, [r2]
 436 004a 1343     		orrs	r3, r2
 437              	.LVL50:
 383:Generated_Source\PSoC4/BLE_HAL_PVT.c **** 
 384:Generated_Source\PSoC4/BLE_HAL_PVT.c ****     if ((trimRegValue == CYBLE_SFLASH_BLERD_BB_XO_REG_VAL1) || (trimRegValue == CYBLE_SFLASH_BLERD_
 438              		.loc 1 384 0
 439 004c 8022     		movs	r2, #128
 440 004e 9201     		lsls	r2, r2, #6
 441 0050 9342     		cmp	r3, r2
 442 0052 02D0     		beq	.L35
 443              		.loc 1 384 0 is_stmt 0 discriminator 1
 444 0054 002B     		cmp	r3, #0
 445 0056 02D0     		beq	.L36
 446 0058 02E0     		b	.L30
 447              	.L35:
 385:Generated_Source\PSoC4/BLE_HAL_PVT.c ****     {
 386:Generated_Source\PSoC4/BLE_HAL_PVT.c ****         trimRegValue = CYBLE_BLERD_BB_XO_REG_VAL_FINAL;
 448              		.loc 1 386 0 is_stmt 1
 449 005a 264B     		ldr	r3, .L40+40
 450              	.LVL51:
 451 005c 00E0     		b	.L30
 452              	.LVL52:
 453              	.L36:
 454 005e 254B     		ldr	r3, .L40+40
 455              	.LVL53:
 456              	.L30:
 387:Generated_Source\PSoC4/BLE_HAL_PVT.c ****     }
 388:Generated_Source\PSoC4/BLE_HAL_PVT.c ****     
 389:Generated_Source\PSoC4/BLE_HAL_PVT.c ****     CYBLE_BLE_BLERD_BB_XO_REG = trimRegValue;
ARM GAS  C:\Users\Roi\AppData\Local\Temp\ccVHOZXJ.s 			page 16


 457              		.loc 1 389 0
 458 0060 254A     		ldr	r2, .L40+44
 459 0062 1360     		str	r3, [r2]
 390:Generated_Source\PSoC4/BLE_HAL_PVT.c ****     
 391:Generated_Source\PSoC4/BLE_HAL_PVT.c ****     trimRegValue = ((uint32)CYBLE_SFLASH_BLESS_SY_BUMP1_HIGH_REG << 8u) | CYBLE_SFLASH_BLESS_SY_BUM
 460              		.loc 1 391 0
 461 0064 254B     		ldr	r3, .L40+48
 462              	.LVL54:
 463 0066 1B78     		ldrb	r3, [r3]
 464 0068 1B02     		lsls	r3, r3, #8
 465 006a 254A     		ldr	r2, .L40+52
 466              	.LVL55:
 467 006c 1278     		ldrb	r2, [r2]
 468 006e 1343     		orrs	r3, r2
 469              	.LVL56:
 392:Generated_Source\PSoC4/BLE_HAL_PVT.c **** 
 393:Generated_Source\PSoC4/BLE_HAL_PVT.c ****     if ((trimRegValue == CYBLE_SFLASH_BLERD_SY_BUMP1_REG_VAL1) || 
 470              		.loc 1 393 0
 471 0070 244A     		ldr	r2, .L40+56
 472 0072 9342     		cmp	r3, r2
 473 0074 05D0     		beq	.L37
 474              		.loc 1 393 0 is_stmt 0 discriminator 1
 475 0076 244A     		ldr	r2, .L40+60
 476 0078 9342     		cmp	r3, r2
 477 007a 04D0     		beq	.L38
 394:Generated_Source\PSoC4/BLE_HAL_PVT.c ****         (trimRegValue == CYBLE_SFLASH_BLERD_SY_BUMP1_REG_VAL2) ||  
 478              		.loc 1 394 0 is_stmt 1
 479 007c 052B     		cmp	r3, #5
 480 007e 05D1     		bne	.L31
 481 0080 03E0     		b	.L39
 482              	.L37:
 395:Generated_Source\PSoC4/BLE_HAL_PVT.c ****         (trimRegValue == CYBLE_SFLASH_BLERD_SY_BUMP1_REG_VAL3))
 396:Generated_Source\PSoC4/BLE_HAL_PVT.c ****     {
 397:Generated_Source\PSoC4/BLE_HAL_PVT.c ****         trimRegValue = CYBLE_BLERD_SY_BUMP1_REG_VAL_FINAL;
 483              		.loc 1 397 0
 484 0082 224B     		ldr	r3, .L40+64
 485              	.LVL57:
 486 0084 02E0     		b	.L31
 487              	.LVL58:
 488              	.L38:
 489 0086 214B     		ldr	r3, .L40+64
 490              	.LVL59:
 491 0088 00E0     		b	.L31
 492              	.LVL60:
 493              	.L39:
 494 008a 204B     		ldr	r3, .L40+64
 495              	.LVL61:
 496              	.L31:
 398:Generated_Source\PSoC4/BLE_HAL_PVT.c ****     }
 399:Generated_Source\PSoC4/BLE_HAL_PVT.c ****     CYBLE_BLE_BLERD_SY_BUMP1_REG = trimRegValue;
 497              		.loc 1 399 0
 498 008c 204A     		ldr	r2, .L40+68
 499 008e 1360     		str	r3, [r2]
 400:Generated_Source\PSoC4/BLE_HAL_PVT.c **** 
 401:Generated_Source\PSoC4/BLE_HAL_PVT.c ****     /* Following code is for F02FN trimming */
 402:Generated_Source\PSoC4/BLE_HAL_PVT.c ****     siliconRev = (CYBLE_BLE_SILICON_REV_REG >> 4u);
 500              		.loc 1 402 0
ARM GAS  C:\Users\Roi\AppData\Local\Temp\ccVHOZXJ.s 			page 17


 501 0090 204B     		ldr	r3, .L40+72
 502              	.LVL62:
 503 0092 1B68     		ldr	r3, [r3]
 504 0094 1B09     		lsrs	r3, r3, #4
 505              	.LVL63:
 403:Generated_Source\PSoC4/BLE_HAL_PVT.c ****     
 404:Generated_Source\PSoC4/BLE_HAL_PVT.c ****     if((CYBLE_BLE_FAMILY_ID_REG == CYBLE_PSOC4A_BLE256DMA_FID) && (siliconRev >= 0x02u) &&
 506              		.loc 1 404 0
 507 0096 204A     		ldr	r2, .L40+76
 508              	.LVL64:
 509 0098 1268     		ldr	r2, [r2]
 510 009a AA2A     		cmp	r2, #170
 511 009c 15D1     		bne	.L27
 512              		.loc 1 404 0 is_stmt 0 discriminator 1
 513 009e 012B     		cmp	r3, #1
 514 00a0 13D9     		bls	.L27
 405:Generated_Source\PSoC4/BLE_HAL_PVT.c ****         (CYBLE_SFLASH_BLESS_SY_BUMP1_HIGH_REG == 0x0Eu))
 515              		.loc 1 405 0 is_stmt 1 discriminator 2
 516 00a2 164B     		ldr	r3, .L40+48
 517              	.LVL65:
 518 00a4 1B78     		ldrb	r3, [r3]
 404:Generated_Source\PSoC4/BLE_HAL_PVT.c ****         (CYBLE_SFLASH_BLESS_SY_BUMP1_HIGH_REG == 0x0Eu))
 519              		.loc 1 404 0 discriminator 2
 520 00a6 0E2B     		cmp	r3, #14
 521 00a8 0FD1     		bne	.L27
 406:Generated_Source\PSoC4/BLE_HAL_PVT.c **** 	{
 407:Generated_Source\PSoC4/BLE_HAL_PVT.c **** 		trimRef34Val = ((uint16)(((uint16) CYBLE_BLE_BLESS_REG34_TRIM_HIGH_REG) << 8u)) |
 522              		.loc 1 407 0
 523 00aa 1C4B     		ldr	r3, .L40+80
 524 00ac 1B78     		ldrb	r3, [r3]
 525 00ae 1B02     		lsls	r3, r3, #8
 408:Generated_Source\PSoC4/BLE_HAL_PVT.c ****                         ((uint16)CYBLE_BLE_BLESS_REG34_TRIM_LOW_REG);
 526              		.loc 1 408 0
 527 00b0 1B4A     		ldr	r2, .L40+84
 528 00b2 1278     		ldrb	r2, [r2]
 407:Generated_Source\PSoC4/BLE_HAL_PVT.c ****                         ((uint16)CYBLE_BLE_BLESS_REG34_TRIM_LOW_REG);
 529              		.loc 1 407 0
 530 00b4 1343     		orrs	r3, r2
 531              	.LVL66:
 409:Generated_Source\PSoC4/BLE_HAL_PVT.c **** 		CYBLE_BLERD_SY_BUMP2_REG = trimRef34Val;
 532              		.loc 1 409 0
 533 00b6 1B4A     		ldr	r2, .L40+88
 534 00b8 1360     		str	r3, [r2]
 535              	.LVL67:
 410:Generated_Source\PSoC4/BLE_HAL_PVT.c **** 	
 411:Generated_Source\PSoC4/BLE_HAL_PVT.c **** 		trimRef38Val = ((uint16)(((uint16)CYBLE_BLE_BLESS_REG38_TRIM_HIGH_REG) << 8u)) |
 536              		.loc 1 411 0
 537 00ba 1B4B     		ldr	r3, .L40+92
 538              	.LVL68:
 539 00bc 1B78     		ldrb	r3, [r3]
 540 00be 1B02     		lsls	r3, r3, #8
 412:Generated_Source\PSoC4/BLE_HAL_PVT.c ****             ((uint16) CYBLE_BLE_BLESS_REG38_TRIM_LOW_REG);
 541              		.loc 1 412 0
 542 00c0 1A4A     		ldr	r2, .L40+96
 543              	.LVL69:
 544 00c2 1278     		ldrb	r2, [r2]
 411:Generated_Source\PSoC4/BLE_HAL_PVT.c ****             ((uint16) CYBLE_BLE_BLESS_REG38_TRIM_LOW_REG);
ARM GAS  C:\Users\Roi\AppData\Local\Temp\ccVHOZXJ.s 			page 18


 545              		.loc 1 411 0
 546 00c4 1343     		orrs	r3, r2
 547              	.LVL70:
 413:Generated_Source\PSoC4/BLE_HAL_PVT.c **** 		CYBLE_BLERD_RX_BUMP2_REG = trimRef38Val;
 548              		.loc 1 413 0
 549 00c6 1A4A     		ldr	r2, .L40+100
 550 00c8 1360     		str	r3, [r2]
 551              	.LVL71:
 552              	.L27:
 414:Generated_Source\PSoC4/BLE_HAL_PVT.c **** 	}
 415:Generated_Source\PSoC4/BLE_HAL_PVT.c **** #endif /* (CYIPBLOCK_m0s8bless_VERSION < 3) */
 416:Generated_Source\PSoC4/BLE_HAL_PVT.c **** }
 553              		.loc 1 416 0
 554              		@ sp needed
 555 00ca 7047     		bx	lr
 556              	.L41:
 557              		.align	2
 558              	.L40:
 559 00cc 59F1FF0F 		.word	268431705
 560 00d0 58F1FF0F 		.word	268431704
 561 00d4 5FF1FF0F 		.word	268431711
 562 00d8 5EF1FF0F 		.word	268431710
 563 00dc 580B0000 		.word	2904
 564 00e0 580D0000 		.word	3416
 565 00e4 6C002E40 		.word	1076756588
 566 00e8 74002E40 		.word	1076756596
 567 00ec 5BF1FF0F 		.word	268431707
 568 00f0 5AF1FF0F 		.word	268431706
 569 00f4 02200000 		.word	8194
 570 00f8 78002E40 		.word	1076756600
 571 00fc 5DF1FF0F 		.word	268431709
 572 0100 5CF1FF0F 		.word	268431708
 573 0104 0F0F0000 		.word	3855
 574 0108 05050000 		.word	1285
 575 010c 050F0000 		.word	3845
 576 0110 80002E40 		.word	1076756608
 577 0114 EC0F00F0 		.word	-268431380
 578 0118 E00F00F0 		.word	-268431392
 579 011c 6DF2FF0F 		.word	268431981
 580 0120 6CF2FF0F 		.word	268431980
 581 0124 84002E40 		.word	1076756612
 582 0128 6FF2FF0F 		.word	268431983
 583 012c 6EF2FF0F 		.word	268431982
 584 0130 94002E40 		.word	1076756628
 585              		.cfi_endproc
 586              	.LFE8:
 587              		.size	CyBLE_BlessDeviceConfig, .-CyBLE_BlessDeviceConfig
 588              		.section	.text.CyBleHal_DelayUs,"ax",%progbits
 589              		.align	2
 590              		.global	CyBleHal_DelayUs
 591              		.code	16
 592              		.thumb_func
 593              		.type	CyBleHal_DelayUs, %function
 594              	CyBleHal_DelayUs:
 595              	.LFB9:
 417:Generated_Source\PSoC4/BLE_HAL_PVT.c **** 
 418:Generated_Source\PSoC4/BLE_HAL_PVT.c **** 
ARM GAS  C:\Users\Roi\AppData\Local\Temp\ccVHOZXJ.s 			page 19


 419:Generated_Source\PSoC4/BLE_HAL_PVT.c **** /* Interface to CyDelayUs function */
 420:Generated_Source\PSoC4/BLE_HAL_PVT.c **** void CyBleHal_DelayUs(uint16 delayVal)
 421:Generated_Source\PSoC4/BLE_HAL_PVT.c **** {
 596              		.loc 1 421 0
 597              		.cfi_startproc
 598              		@ args = 0, pretend = 0, frame = 0
 599              		@ frame_needed = 0, uses_anonymous_args = 0
 600              	.LVL72:
 601 0000 10B5     		push	{r4, lr}
 602              		.cfi_def_cfa_offset 8
 603              		.cfi_offset 4, -8
 604              		.cfi_offset 14, -4
 422:Generated_Source\PSoC4/BLE_HAL_PVT.c ****     CyDelayUs(delayVal);
 605              		.loc 1 422 0
 606 0002 FFF7FEFF 		bl	CyDelayUs
 607              	.LVL73:
 423:Generated_Source\PSoC4/BLE_HAL_PVT.c **** }
 608              		.loc 1 423 0
 609              		@ sp needed
 610 0006 10BD     		pop	{r4, pc}
 611              		.cfi_endproc
 612              	.LFE9:
 613              		.size	CyBleHal_DelayUs, .-CyBleHal_DelayUs
 614              		.section	.text.CyBleHal_DelayMs,"ax",%progbits
 615              		.align	2
 616              		.global	CyBleHal_DelayMs
 617              		.code	16
 618              		.thumb_func
 619              		.type	CyBleHal_DelayMs, %function
 620              	CyBleHal_DelayMs:
 621              	.LFB10:
 424:Generated_Source\PSoC4/BLE_HAL_PVT.c **** 
 425:Generated_Source\PSoC4/BLE_HAL_PVT.c **** /* Interface to CyDelay function */
 426:Generated_Source\PSoC4/BLE_HAL_PVT.c **** void CyBleHal_DelayMs(uint32 delayVal)
 427:Generated_Source\PSoC4/BLE_HAL_PVT.c **** {
 622              		.loc 1 427 0
 623              		.cfi_startproc
 624              		@ args = 0, pretend = 0, frame = 0
 625              		@ frame_needed = 0, uses_anonymous_args = 0
 626              	.LVL74:
 627 0000 10B5     		push	{r4, lr}
 628              		.cfi_def_cfa_offset 8
 629              		.cfi_offset 4, -8
 630              		.cfi_offset 14, -4
 428:Generated_Source\PSoC4/BLE_HAL_PVT.c ****     CyDelay(delayVal);
 631              		.loc 1 428 0
 632 0002 FFF7FEFF 		bl	CyDelay
 633              	.LVL75:
 429:Generated_Source\PSoC4/BLE_HAL_PVT.c **** }
 634              		.loc 1 429 0
 635              		@ sp needed
 636 0006 10BD     		pop	{r4, pc}
 637              		.cfi_endproc
 638              	.LFE10:
 639              		.size	CyBleHal_DelayMs, .-CyBleHal_DelayMs
 640              		.section	.text.CyBleHal_EnableGlobalInterrupts,"ax",%progbits
 641              		.align	2
ARM GAS  C:\Users\Roi\AppData\Local\Temp\ccVHOZXJ.s 			page 20


 642              		.global	CyBleHal_EnableGlobalInterrupts
 643              		.code	16
 644              		.thumb_func
 645              		.type	CyBleHal_EnableGlobalInterrupts, %function
 646              	CyBleHal_EnableGlobalInterrupts:
 647              	.LFB11:
 430:Generated_Source\PSoC4/BLE_HAL_PVT.c **** 
 431:Generated_Source\PSoC4/BLE_HAL_PVT.c **** /* Interface to BLE_bless_isr_Enable function */
 432:Generated_Source\PSoC4/BLE_HAL_PVT.c **** void CyBleHal_EnableGlobalInterrupts(void)
 433:Generated_Source\PSoC4/BLE_HAL_PVT.c **** {
 648              		.loc 1 433 0
 649              		.cfi_startproc
 650              		@ args = 0, pretend = 0, frame = 0
 651              		@ frame_needed = 0, uses_anonymous_args = 0
 652 0000 10B5     		push	{r4, lr}
 653              		.cfi_def_cfa_offset 8
 654              		.cfi_offset 4, -8
 655              		.cfi_offset 14, -4
 434:Generated_Source\PSoC4/BLE_HAL_PVT.c ****     BLE_bless_isr_Enable();
 656              		.loc 1 434 0
 657 0002 FFF7FEFF 		bl	BLE_bless_isr_Enable
 658              	.LVL76:
 435:Generated_Source\PSoC4/BLE_HAL_PVT.c **** }
 659              		.loc 1 435 0
 660              		@ sp needed
 661 0006 10BD     		pop	{r4, pc}
 662              		.cfi_endproc
 663              	.LFE11:
 664              		.size	CyBleHal_EnableGlobalInterrupts, .-CyBleHal_EnableGlobalInterrupts
 665              		.section	.text.CyBleHal_DisableGlobalInterrupts,"ax",%progbits
 666              		.align	2
 667              		.global	CyBleHal_DisableGlobalInterrupts
 668              		.code	16
 669              		.thumb_func
 670              		.type	CyBleHal_DisableGlobalInterrupts, %function
 671              	CyBleHal_DisableGlobalInterrupts:
 672              	.LFB12:
 436:Generated_Source\PSoC4/BLE_HAL_PVT.c **** 
 437:Generated_Source\PSoC4/BLE_HAL_PVT.c **** /* Interface to BLE_bless_isr_Disable function */
 438:Generated_Source\PSoC4/BLE_HAL_PVT.c **** void CyBleHal_DisableGlobalInterrupts(void)
 439:Generated_Source\PSoC4/BLE_HAL_PVT.c **** {
 673              		.loc 1 439 0
 674              		.cfi_startproc
 675              		@ args = 0, pretend = 0, frame = 0
 676              		@ frame_needed = 0, uses_anonymous_args = 0
 677 0000 10B5     		push	{r4, lr}
 678              		.cfi_def_cfa_offset 8
 679              		.cfi_offset 4, -8
 680              		.cfi_offset 14, -4
 440:Generated_Source\PSoC4/BLE_HAL_PVT.c ****     BLE_bless_isr_Disable();
 681              		.loc 1 440 0
 682 0002 FFF7FEFF 		bl	BLE_bless_isr_Disable
 683              	.LVL77:
 441:Generated_Source\PSoC4/BLE_HAL_PVT.c **** }
 684              		.loc 1 441 0
 685              		@ sp needed
 686 0006 10BD     		pop	{r4, pc}
ARM GAS  C:\Users\Roi\AppData\Local\Temp\ccVHOZXJ.s 			page 21


 687              		.cfi_endproc
 688              	.LFE12:
 689              		.size	CyBleHal_DisableGlobalInterrupts, .-CyBleHal_DisableGlobalInterrupts
 690              		.section	.text.CyBle_HalInit,"ax",%progbits
 691              		.align	2
 692              		.global	CyBle_HalInit
 693              		.code	16
 694              		.thumb_func
 695              		.type	CyBle_HalInit, %function
 696              	CyBle_HalInit:
 697              	.LFB13:
 442:Generated_Source\PSoC4/BLE_HAL_PVT.c **** 
 443:Generated_Source\PSoC4/BLE_HAL_PVT.c **** /*******************************************************************************
 444:Generated_Source\PSoC4/BLE_HAL_PVT.c **** * Function Name: CyBle_HalInit
 445:Generated_Source\PSoC4/BLE_HAL_PVT.c **** ****************************************************************************//**
 446:Generated_Source\PSoC4/BLE_HAL_PVT.c **** *
 447:Generated_Source\PSoC4/BLE_HAL_PVT.c **** *  Initializes the BLESS interrupt.
 448:Generated_Source\PSoC4/BLE_HAL_PVT.c **** *
 449:Generated_Source\PSoC4/BLE_HAL_PVT.c **** * \return
 450:Generated_Source\PSoC4/BLE_HAL_PVT.c **** *  None
 451:Generated_Source\PSoC4/BLE_HAL_PVT.c **** *
 452:Generated_Source\PSoC4/BLE_HAL_PVT.c **** *******************************************************************************/
 453:Generated_Source\PSoC4/BLE_HAL_PVT.c **** void CyBle_HalInit(void)
 454:Generated_Source\PSoC4/BLE_HAL_PVT.c **** {
 698              		.loc 1 454 0
 699              		.cfi_startproc
 700              		@ args = 0, pretend = 0, frame = 0
 701              		@ frame_needed = 0, uses_anonymous_args = 0
 702 0000 10B5     		push	{r4, lr}
 703              		.cfi_def_cfa_offset 8
 704              		.cfi_offset 4, -8
 705              		.cfi_offset 14, -4
 455:Generated_Source\PSoC4/BLE_HAL_PVT.c ****     /* For all we know the interrupt is active. */
 456:Generated_Source\PSoC4/BLE_HAL_PVT.c ****     BLE_bless_isr_Disable();
 706              		.loc 1 456 0
 707 0002 FFF7FEFF 		bl	BLE_bless_isr_Disable
 708              	.LVL78:
 457:Generated_Source\PSoC4/BLE_HAL_PVT.c **** 
 458:Generated_Source\PSoC4/BLE_HAL_PVT.c ****     /* Set the ISR to point to the BLE_bless_isr Interrupt. */
 459:Generated_Source\PSoC4/BLE_HAL_PVT.c ****     BLE_bless_isr_SetVector(&CyBLE_Bless_Interrupt);
 709              		.loc 1 459 0
 710 0006 0348     		ldr	r0, .L47
 711 0008 FFF7FEFF 		bl	BLE_bless_isr_SetVector
 712              	.LVL79:
 460:Generated_Source\PSoC4/BLE_HAL_PVT.c **** 
 461:Generated_Source\PSoC4/BLE_HAL_PVT.c ****     /* Set the priority. */
 462:Generated_Source\PSoC4/BLE_HAL_PVT.c ****     BLE_bless_isr_SetPriority((uint8)BLE_bless_isr_INTC_PRIOR_NUMBER);
 713              		.loc 1 462 0
 714 000c 0320     		movs	r0, #3
 715 000e FFF7FEFF 		bl	BLE_bless_isr_SetPriority
 716              	.LVL80:
 463:Generated_Source\PSoC4/BLE_HAL_PVT.c **** }
 717              		.loc 1 463 0
 718              		@ sp needed
 719 0012 10BD     		pop	{r4, pc}
 720              	.L48:
 721              		.align	2
ARM GAS  C:\Users\Roi\AppData\Local\Temp\ccVHOZXJ.s 			page 22


 722              	.L47:
 723 0014 00000000 		.word	CyBLE_Bless_Interrupt
 724              		.cfi_endproc
 725              	.LFE13:
 726              		.size	CyBle_HalInit, .-CyBle_HalInit
 727              		.section	.text.CYBLE_BlessStart,"ax",%progbits
 728              		.align	2
 729              		.global	CYBLE_BlessStart
 730              		.code	16
 731              		.thumb_func
 732              		.type	CYBLE_BlessStart, %function
 733              	CYBLE_BlessStart:
 734              	.LFB14:
 464:Generated_Source\PSoC4/BLE_HAL_PVT.c **** 
 465:Generated_Source\PSoC4/BLE_HAL_PVT.c **** 
 466:Generated_Source\PSoC4/BLE_HAL_PVT.c **** /*******************************************************************************
 467:Generated_Source\PSoC4/BLE_HAL_PVT.c **** * Function Name: CYBLE_BlessStart
 468:Generated_Source\PSoC4/BLE_HAL_PVT.c **** ****************************************************************************//**
 469:Generated_Source\PSoC4/BLE_HAL_PVT.c **** *
 470:Generated_Source\PSoC4/BLE_HAL_PVT.c **** *  Starts Interrupt Controller.
 471:Generated_Source\PSoC4/BLE_HAL_PVT.c **** *
 472:Generated_Source\PSoC4/BLE_HAL_PVT.c **** * \return
 473:Generated_Source\PSoC4/BLE_HAL_PVT.c **** *  None
 474:Generated_Source\PSoC4/BLE_HAL_PVT.c **** *
 475:Generated_Source\PSoC4/BLE_HAL_PVT.c **** *******************************************************************************/
 476:Generated_Source\PSoC4/BLE_HAL_PVT.c **** void CYBLE_BlessStart(void)
 477:Generated_Source\PSoC4/BLE_HAL_PVT.c **** {
 735              		.loc 1 477 0
 736              		.cfi_startproc
 737              		@ args = 0, pretend = 0, frame = 0
 738              		@ frame_needed = 0, uses_anonymous_args = 0
 739 0000 10B5     		push	{r4, lr}
 740              		.cfi_def_cfa_offset 8
 741              		.cfi_offset 4, -8
 742              		.cfi_offset 14, -4
 478:Generated_Source\PSoC4/BLE_HAL_PVT.c **** #if((CYBLE_M0S8BLESS_VERSION_3) && (CYBLE_EXT_PA_ENABLED))
 479:Generated_Source\PSoC4/BLE_HAL_PVT.c ****     CYBLE_EXT_PA_LNA_CTRL_REG |= CYBLE_EXT_PA_LNA_ENABLE | CYBLE_EXT_OUT_EN_DRIVE_VAL; 
 480:Generated_Source\PSoC4/BLE_HAL_PVT.c **** #endif  /* (CYBLE_M0S8BLESS_VERSION_3) */
 481:Generated_Source\PSoC4/BLE_HAL_PVT.c **** 
 482:Generated_Source\PSoC4/BLE_HAL_PVT.c ****     BLE_bless_isr_StartEx(&CyBLE_Bless_Interrupt);
 743              		.loc 1 482 0
 744 0002 0248     		ldr	r0, .L50
 745 0004 FFF7FEFF 		bl	BLE_bless_isr_StartEx
 746              	.LVL81:
 483:Generated_Source\PSoC4/BLE_HAL_PVT.c **** }
 747              		.loc 1 483 0
 748              		@ sp needed
 749 0008 10BD     		pop	{r4, pc}
 750              	.L51:
 751 000a C046     		.align	2
 752              	.L50:
 753 000c 00000000 		.word	CyBLE_Bless_Interrupt
 754              		.cfi_endproc
 755              	.LFE14:
 756              		.size	CYBLE_BlessStart, .-CYBLE_BlessStart
 757              		.section	.text.CyBLE_GetIpBlockVersion,"ax",%progbits
 758              		.align	2
ARM GAS  C:\Users\Roi\AppData\Local\Temp\ccVHOZXJ.s 			page 23


 759              		.global	CyBLE_GetIpBlockVersion
 760              		.code	16
 761              		.thumb_func
 762              		.type	CyBLE_GetIpBlockVersion, %function
 763              	CyBLE_GetIpBlockVersion:
 764              	.LFB15:
 484:Generated_Source\PSoC4/BLE_HAL_PVT.c **** 
 485:Generated_Source\PSoC4/BLE_HAL_PVT.c **** 
 486:Generated_Source\PSoC4/BLE_HAL_PVT.c **** /*******************************************************************************
 487:Generated_Source\PSoC4/BLE_HAL_PVT.c **** * Function Name: CyBLE_GetIpBlockVersion
 488:Generated_Source\PSoC4/BLE_HAL_PVT.c **** ****************************************************************************//**
 489:Generated_Source\PSoC4/BLE_HAL_PVT.c **** *
 490:Generated_Source\PSoC4/BLE_HAL_PVT.c **** * This function returns the version of m0s8bless ip block.
 491:Generated_Source\PSoC4/BLE_HAL_PVT.c **** *
 492:Generated_Source\PSoC4/BLE_HAL_PVT.c **** * \return
 493:Generated_Source\PSoC4/BLE_HAL_PVT.c **** * uint32 bits:
 494:Generated_Source\PSoC4/BLE_HAL_PVT.c **** * 7:0 - ip version ( 1 - BLE_ver1, 2 - BLE_ver2, 3 - BLE_ver3 )
 495:Generated_Source\PSoC4/BLE_HAL_PVT.c **** * 15:8 - flash size ( 0 - 128k, 1 - 256k )
 496:Generated_Source\PSoC4/BLE_HAL_PVT.c **** * 16 - PSVP device
 497:Generated_Source\PSoC4/BLE_HAL_PVT.c **** * 31:17 - reserved for future usage
 498:Generated_Source\PSoC4/BLE_HAL_PVT.c **** *
 499:Generated_Source\PSoC4/BLE_HAL_PVT.c **** *******************************************************************************/
 500:Generated_Source\PSoC4/BLE_HAL_PVT.c **** uint32 CyBLE_GetIpBlockVersion(void)
 501:Generated_Source\PSoC4/BLE_HAL_PVT.c **** {
 765              		.loc 1 501 0
 766              		.cfi_startproc
 767              		@ args = 0, pretend = 0, frame = 0
 768              		@ frame_needed = 0, uses_anonymous_args = 0
 769              		@ link register save eliminated.
 502:Generated_Source\PSoC4/BLE_HAL_PVT.c ****     return(((uint32)CYBLE_M0S8BLESS_VERSION) | ((uint32)((uint32)CYBLE_FLASH_SIZE) << 8u) |
 503:Generated_Source\PSoC4/BLE_HAL_PVT.c ****         ((uint32)(((uint32)CYBLE_PSVP_DEVICE)) << 16u));
 504:Generated_Source\PSoC4/BLE_HAL_PVT.c **** }
 770              		.loc 1 504 0
 771 0000 0048     		ldr	r0, .L53
 772              		@ sp needed
 773 0002 7047     		bx	lr
 774              	.L54:
 775              		.align	2
 776              	.L53:
 777 0004 02020000 		.word	514
 778              		.cfi_endproc
 779              	.LFE15:
 780              		.size	CyBLE_GetIpBlockVersion, .-CyBLE_GetIpBlockVersion
 781              		.section	.text.CyBle_Hal_pairing_local_public_key_handler,"ax",%progbits
 782              		.align	2
 783              		.global	CyBle_Hal_pairing_local_public_key_handler
 784              		.code	16
 785              		.thumb_func
 786              		.type	CyBle_Hal_pairing_local_public_key_handler, %function
 787              	CyBle_Hal_pairing_local_public_key_handler:
 788              	.LFB16:
 505:Generated_Source\PSoC4/BLE_HAL_PVT.c **** 
 506:Generated_Source\PSoC4/BLE_HAL_PVT.c **** /* Mapping functions for stack size optimization */
 507:Generated_Source\PSoC4/BLE_HAL_PVT.c **** #if(CYBLE_MODE_PROFILE)
 508:Generated_Source\PSoC4/BLE_HAL_PVT.c ****     
 509:Generated_Source\PSoC4/BLE_HAL_PVT.c **** #if(CYBLE_SECURE_CONN_FEATURE_ENABLED)
 510:Generated_Source\PSoC4/BLE_HAL_PVT.c ****     
ARM GAS  C:\Users\Roi\AppData\Local\Temp\ccVHOZXJ.s 			page 24


 511:Generated_Source\PSoC4/BLE_HAL_PVT.c ****     CYBLE_API_RESULT_T CyBle_Hal_pairing_local_public_key_handler(void *param)
 512:Generated_Source\PSoC4/BLE_HAL_PVT.c ****     {
 513:Generated_Source\PSoC4/BLE_HAL_PVT.c ****         return (CyBle_Hal_mapping_pairing_local_public_key_handler(param));
 514:Generated_Source\PSoC4/BLE_HAL_PVT.c ****     }
 515:Generated_Source\PSoC4/BLE_HAL_PVT.c ****      
 516:Generated_Source\PSoC4/BLE_HAL_PVT.c ****     CYBLE_API_RESULT_T CyBle_Hal_pairing_remote_key_handler(void *param)
 517:Generated_Source\PSoC4/BLE_HAL_PVT.c ****     {
 518:Generated_Source\PSoC4/BLE_HAL_PVT.c ****         return (CyBle_Hal_mapping_pairing_remote_key_handler(param));
 519:Generated_Source\PSoC4/BLE_HAL_PVT.c ****     }
 520:Generated_Source\PSoC4/BLE_HAL_PVT.c ****      
 521:Generated_Source\PSoC4/BLE_HAL_PVT.c ****     CYBLE_API_RESULT_T CyBle_Hal_pairing_dhkey_handler(void *param)
 522:Generated_Source\PSoC4/BLE_HAL_PVT.c ****     {
 523:Generated_Source\PSoC4/BLE_HAL_PVT.c ****         return (CyBle_Hal_mapping_pairing_dhkey_handler(param));
 524:Generated_Source\PSoC4/BLE_HAL_PVT.c ****     }
 525:Generated_Source\PSoC4/BLE_HAL_PVT.c **** 
 526:Generated_Source\PSoC4/BLE_HAL_PVT.c ****     CYBLE_API_RESULT_T CyBle_Hal_pairing_dhkey_check_handler(void *param)
 527:Generated_Source\PSoC4/BLE_HAL_PVT.c ****     {
 528:Generated_Source\PSoC4/BLE_HAL_PVT.c ****         return (CyBle_Hal_mapping_pairing_dhkey_check_handler(param));
 529:Generated_Source\PSoC4/BLE_HAL_PVT.c ****     }
 530:Generated_Source\PSoC4/BLE_HAL_PVT.c **** 
 531:Generated_Source\PSoC4/BLE_HAL_PVT.c ****     CYBLE_API_RESULT_T CyBle_Hal_pairing_keypress_notification_handler(void *param)
 532:Generated_Source\PSoC4/BLE_HAL_PVT.c ****     {
 533:Generated_Source\PSoC4/BLE_HAL_PVT.c ****         return (CyBle_Hal_mapping_pairing_keypress_notification_handler(param));
 534:Generated_Source\PSoC4/BLE_HAL_PVT.c ****     }
 535:Generated_Source\PSoC4/BLE_HAL_PVT.c **** 
 536:Generated_Source\PSoC4/BLE_HAL_PVT.c ****     CYBLE_API_RESULT_T CyBle_Hal_pairing_rand_handler(void *param)
 537:Generated_Source\PSoC4/BLE_HAL_PVT.c ****     {
 538:Generated_Source\PSoC4/BLE_HAL_PVT.c ****         return (CyBle_Hal_mapping_pairing_rand_handler(param));
 539:Generated_Source\PSoC4/BLE_HAL_PVT.c ****     }
 540:Generated_Source\PSoC4/BLE_HAL_PVT.c **** 
 541:Generated_Source\PSoC4/BLE_HAL_PVT.c ****     CYBLE_API_RESULT_T CyBle_Hal_pairing_confirm_handler(void *param)
 542:Generated_Source\PSoC4/BLE_HAL_PVT.c ****     {
 543:Generated_Source\PSoC4/BLE_HAL_PVT.c ****         return (CyBle_Hal_mapping_pairing_confirm_handler(param));
 544:Generated_Source\PSoC4/BLE_HAL_PVT.c ****     }
 545:Generated_Source\PSoC4/BLE_HAL_PVT.c **** 
 546:Generated_Source\PSoC4/BLE_HAL_PVT.c ****     CYBLE_API_RESULT_T CyBle_Hal_pairing_lr_confirming_handler(void *param)
 547:Generated_Source\PSoC4/BLE_HAL_PVT.c ****     {
 548:Generated_Source\PSoC4/BLE_HAL_PVT.c ****         return (CyBle_Hal_mapping_pairing_lr_confirming_handler(param));
 549:Generated_Source\PSoC4/BLE_HAL_PVT.c ****     }
 550:Generated_Source\PSoC4/BLE_HAL_PVT.c ****     
 551:Generated_Source\PSoC4/BLE_HAL_PVT.c ****     CYBLE_API_RESULT_T CyBle_Hal_pairing_sc_tbx_dhkey_generate_complete(void* param)
 552:Generated_Source\PSoC4/BLE_HAL_PVT.c ****     {
 553:Generated_Source\PSoC4/BLE_HAL_PVT.c ****         CyBle_Hal_mapping_tbx_dhkey_generate_complete(param);
 554:Generated_Source\PSoC4/BLE_HAL_PVT.c ****         return (CYBLE_ERROR_OK);
 555:Generated_Source\PSoC4/BLE_HAL_PVT.c ****     }
 556:Generated_Source\PSoC4/BLE_HAL_PVT.c **** 
 557:Generated_Source\PSoC4/BLE_HAL_PVT.c ****     CYBLE_API_RESULT_T CyBle_Hal_pairing_sc_tbx_local_pubkey_generate_complete(void)
 558:Generated_Source\PSoC4/BLE_HAL_PVT.c ****     {
 559:Generated_Source\PSoC4/BLE_HAL_PVT.c ****         CyBle_Hal_mapping_tbx_local_pubkey_generate_complete();
 560:Generated_Source\PSoC4/BLE_HAL_PVT.c ****         return (CYBLE_ERROR_OK);
 561:Generated_Source\PSoC4/BLE_HAL_PVT.c ****     }
 562:Generated_Source\PSoC4/BLE_HAL_PVT.c **** 
 563:Generated_Source\PSoC4/BLE_HAL_PVT.c ****     CYBLE_API_RESULT_T CyBle_Hal_pairing_sc_generate_local_P256_public_key(uint8 param)
 564:Generated_Source\PSoC4/BLE_HAL_PVT.c ****     {
 565:Generated_Source\PSoC4/BLE_HAL_PVT.c ****         return (CyBle_Hal_mapping_generate_local_P256_public_key(param));
 566:Generated_Source\PSoC4/BLE_HAL_PVT.c ****     }
 567:Generated_Source\PSoC4/BLE_HAL_PVT.c **** 
ARM GAS  C:\Users\Roi\AppData\Local\Temp\ccVHOZXJ.s 			page 25


 568:Generated_Source\PSoC4/BLE_HAL_PVT.c ****     CYBLE_API_RESULT_T CyBle_Hal_pairing_sc_generate_DHkey(void  * param1, void  * param2)
 569:Generated_Source\PSoC4/BLE_HAL_PVT.c ****     {
 570:Generated_Source\PSoC4/BLE_HAL_PVT.c ****         return (CyBle_Hal_mapping_generate_DHkey(param1, param2));
 571:Generated_Source\PSoC4/BLE_HAL_PVT.c ****     }
 572:Generated_Source\PSoC4/BLE_HAL_PVT.c **** 
 573:Generated_Source\PSoC4/BLE_HAL_PVT.c ****     void CyBle_Hal_smp_sc_cmac_complete(void)
 574:Generated_Source\PSoC4/BLE_HAL_PVT.c ****     {
 575:Generated_Source\PSoC4/BLE_HAL_PVT.c ****        CyBle_Hal_Mapping_smp_sc_cmac_complete();
 576:Generated_Source\PSoC4/BLE_HAL_PVT.c ****     }
 577:Generated_Source\PSoC4/BLE_HAL_PVT.c **** 
 578:Generated_Source\PSoC4/BLE_HAL_PVT.c ****     CYBLE_API_RESULT_T CyBle_Hal_se_smp_sc_user_passkey_handler(void *param1, void *param2)
 579:Generated_Source\PSoC4/BLE_HAL_PVT.c ****     {
 580:Generated_Source\PSoC4/BLE_HAL_PVT.c ****         return (CyBle_Hal_mapping_se_smp_sc_user_passkey_handler(param1, param2));
 581:Generated_Source\PSoC4/BLE_HAL_PVT.c ****     }
 582:Generated_Source\PSoC4/BLE_HAL_PVT.c **** 
 583:Generated_Source\PSoC4/BLE_HAL_PVT.c ****     void CyBle_Hal_EccPointMult(void)
 584:Generated_Source\PSoC4/BLE_HAL_PVT.c ****     {
 585:Generated_Source\PSoC4/BLE_HAL_PVT.c ****         CyBle_Hal_Mapping_EccPointMult();
 586:Generated_Source\PSoC4/BLE_HAL_PVT.c ****     }
 587:Generated_Source\PSoC4/BLE_HAL_PVT.c ****     
 588:Generated_Source\PSoC4/BLE_HAL_PVT.c ****     CYBLE_API_RESULT_T CyBle_Hal_pairing_sc_validate_p256_pub_key_pair (void *param1)
 589:Generated_Source\PSoC4/BLE_HAL_PVT.c ****     {
 590:Generated_Source\PSoC4/BLE_HAL_PVT.c ****         return (CyBle_Hal_mapping_validate_p256_pub_key_pair(param1));
 591:Generated_Source\PSoC4/BLE_HAL_PVT.c ****     }
 592:Generated_Source\PSoC4/BLE_HAL_PVT.c ****     
 593:Generated_Source\PSoC4/BLE_HAL_PVT.c ****     
 594:Generated_Source\PSoC4/BLE_HAL_PVT.c **** #else     /* If feature is not required, return error. */
 595:Generated_Source\PSoC4/BLE_HAL_PVT.c ****     
 596:Generated_Source\PSoC4/BLE_HAL_PVT.c ****     CYBLE_API_RESULT_T CyBle_Hal_pairing_local_public_key_handler(void *param CYBLE_UNUSED_ATTR)
 597:Generated_Source\PSoC4/BLE_HAL_PVT.c ****     {
 789              		.loc 1 597 0
 790              		.cfi_startproc
 791              		@ args = 0, pretend = 0, frame = 0
 792              		@ frame_needed = 0, uses_anonymous_args = 0
 793              		@ link register save eliminated.
 794              	.LVL82:
 598:Generated_Source\PSoC4/BLE_HAL_PVT.c ****         return (CYBLE_ERROR_UNSUPPORTED_FEATURE_OR_PARAMETER_VALUE);
 599:Generated_Source\PSoC4/BLE_HAL_PVT.c ****     }
 795              		.loc 1 599 0
 796 0000 2B20     		movs	r0, #43
 797              	.LVL83:
 798              		@ sp needed
 799 0002 7047     		bx	lr
 800              		.cfi_endproc
 801              	.LFE16:
 802              		.size	CyBle_Hal_pairing_local_public_key_handler, .-CyBle_Hal_pairing_local_public_key_handler
 803              		.section	.text.CyBle_Hal_pairing_remote_key_handler,"ax",%progbits
 804              		.align	2
 805              		.global	CyBle_Hal_pairing_remote_key_handler
 806              		.code	16
 807              		.thumb_func
 808              		.type	CyBle_Hal_pairing_remote_key_handler, %function
 809              	CyBle_Hal_pairing_remote_key_handler:
 810              	.LFB17:
 600:Generated_Source\PSoC4/BLE_HAL_PVT.c ****      
 601:Generated_Source\PSoC4/BLE_HAL_PVT.c ****     CYBLE_API_RESULT_T CyBle_Hal_pairing_remote_key_handler(void *param CYBLE_UNUSED_ATTR)
 602:Generated_Source\PSoC4/BLE_HAL_PVT.c ****     {
ARM GAS  C:\Users\Roi\AppData\Local\Temp\ccVHOZXJ.s 			page 26


 811              		.loc 1 602 0
 812              		.cfi_startproc
 813              		@ args = 0, pretend = 0, frame = 0
 814              		@ frame_needed = 0, uses_anonymous_args = 0
 815              		@ link register save eliminated.
 816              	.LVL84:
 603:Generated_Source\PSoC4/BLE_HAL_PVT.c ****         return (CYBLE_ERROR_UNSUPPORTED_FEATURE_OR_PARAMETER_VALUE);
 604:Generated_Source\PSoC4/BLE_HAL_PVT.c ****     }
 817              		.loc 1 604 0
 818 0000 2B20     		movs	r0, #43
 819              	.LVL85:
 820              		@ sp needed
 821 0002 7047     		bx	lr
 822              		.cfi_endproc
 823              	.LFE17:
 824              		.size	CyBle_Hal_pairing_remote_key_handler, .-CyBle_Hal_pairing_remote_key_handler
 825              		.section	.text.CyBle_Hal_pairing_dhkey_handler,"ax",%progbits
 826              		.align	2
 827              		.global	CyBle_Hal_pairing_dhkey_handler
 828              		.code	16
 829              		.thumb_func
 830              		.type	CyBle_Hal_pairing_dhkey_handler, %function
 831              	CyBle_Hal_pairing_dhkey_handler:
 832              	.LFB18:
 605:Generated_Source\PSoC4/BLE_HAL_PVT.c ****      
 606:Generated_Source\PSoC4/BLE_HAL_PVT.c ****     CYBLE_API_RESULT_T CyBle_Hal_pairing_dhkey_handler(void *param CYBLE_UNUSED_ATTR)
 607:Generated_Source\PSoC4/BLE_HAL_PVT.c ****     {
 833              		.loc 1 607 0
 834              		.cfi_startproc
 835              		@ args = 0, pretend = 0, frame = 0
 836              		@ frame_needed = 0, uses_anonymous_args = 0
 837              		@ link register save eliminated.
 838              	.LVL86:
 608:Generated_Source\PSoC4/BLE_HAL_PVT.c ****         return (CYBLE_ERROR_UNSUPPORTED_FEATURE_OR_PARAMETER_VALUE);
 609:Generated_Source\PSoC4/BLE_HAL_PVT.c ****     }
 839              		.loc 1 609 0
 840 0000 2B20     		movs	r0, #43
 841              	.LVL87:
 842              		@ sp needed
 843 0002 7047     		bx	lr
 844              		.cfi_endproc
 845              	.LFE18:
 846              		.size	CyBle_Hal_pairing_dhkey_handler, .-CyBle_Hal_pairing_dhkey_handler
 847              		.section	.text.CyBle_Hal_pairing_dhkey_check_handler,"ax",%progbits
 848              		.align	2
 849              		.global	CyBle_Hal_pairing_dhkey_check_handler
 850              		.code	16
 851              		.thumb_func
 852              		.type	CyBle_Hal_pairing_dhkey_check_handler, %function
 853              	CyBle_Hal_pairing_dhkey_check_handler:
 854              	.LFB19:
 610:Generated_Source\PSoC4/BLE_HAL_PVT.c **** 
 611:Generated_Source\PSoC4/BLE_HAL_PVT.c ****     CYBLE_API_RESULT_T CyBle_Hal_pairing_dhkey_check_handler(void *param CYBLE_UNUSED_ATTR)
 612:Generated_Source\PSoC4/BLE_HAL_PVT.c ****     {
 855              		.loc 1 612 0
 856              		.cfi_startproc
 857              		@ args = 0, pretend = 0, frame = 0
ARM GAS  C:\Users\Roi\AppData\Local\Temp\ccVHOZXJ.s 			page 27


 858              		@ frame_needed = 0, uses_anonymous_args = 0
 859              		@ link register save eliminated.
 860              	.LVL88:
 613:Generated_Source\PSoC4/BLE_HAL_PVT.c ****         return (CYBLE_ERROR_UNSUPPORTED_FEATURE_OR_PARAMETER_VALUE);
 614:Generated_Source\PSoC4/BLE_HAL_PVT.c ****     }
 861              		.loc 1 614 0
 862 0000 2B20     		movs	r0, #43
 863              	.LVL89:
 864              		@ sp needed
 865 0002 7047     		bx	lr
 866              		.cfi_endproc
 867              	.LFE19:
 868              		.size	CyBle_Hal_pairing_dhkey_check_handler, .-CyBle_Hal_pairing_dhkey_check_handler
 869              		.section	.text.CyBle_Hal_pairing_keypress_notification_handler,"ax",%progbits
 870              		.align	2
 871              		.global	CyBle_Hal_pairing_keypress_notification_handler
 872              		.code	16
 873              		.thumb_func
 874              		.type	CyBle_Hal_pairing_keypress_notification_handler, %function
 875              	CyBle_Hal_pairing_keypress_notification_handler:
 876              	.LFB20:
 615:Generated_Source\PSoC4/BLE_HAL_PVT.c **** 
 616:Generated_Source\PSoC4/BLE_HAL_PVT.c ****     CYBLE_API_RESULT_T CyBle_Hal_pairing_keypress_notification_handler(void *param CYBLE_UNUSED_ATT
 617:Generated_Source\PSoC4/BLE_HAL_PVT.c ****     {
 877              		.loc 1 617 0
 878              		.cfi_startproc
 879              		@ args = 0, pretend = 0, frame = 0
 880              		@ frame_needed = 0, uses_anonymous_args = 0
 881              		@ link register save eliminated.
 882              	.LVL90:
 618:Generated_Source\PSoC4/BLE_HAL_PVT.c ****         return (CYBLE_ERROR_UNSUPPORTED_FEATURE_OR_PARAMETER_VALUE);
 619:Generated_Source\PSoC4/BLE_HAL_PVT.c ****     }
 883              		.loc 1 619 0
 884 0000 2B20     		movs	r0, #43
 885              	.LVL91:
 886              		@ sp needed
 887 0002 7047     		bx	lr
 888              		.cfi_endproc
 889              	.LFE20:
 890              		.size	CyBle_Hal_pairing_keypress_notification_handler, .-CyBle_Hal_pairing_keypress_notification_h
 891              		.section	.text.CyBle_Hal_pairing_rand_handler,"ax",%progbits
 892              		.align	2
 893              		.global	CyBle_Hal_pairing_rand_handler
 894              		.code	16
 895              		.thumb_func
 896              		.type	CyBle_Hal_pairing_rand_handler, %function
 897              	CyBle_Hal_pairing_rand_handler:
 898              	.LFB21:
 620:Generated_Source\PSoC4/BLE_HAL_PVT.c **** 
 621:Generated_Source\PSoC4/BLE_HAL_PVT.c ****     CYBLE_API_RESULT_T CyBle_Hal_pairing_rand_handler(void *param CYBLE_UNUSED_ATTR)
 622:Generated_Source\PSoC4/BLE_HAL_PVT.c ****     {
 899              		.loc 1 622 0
 900              		.cfi_startproc
 901              		@ args = 0, pretend = 0, frame = 0
 902              		@ frame_needed = 0, uses_anonymous_args = 0
 903              		@ link register save eliminated.
 904              	.LVL92:
ARM GAS  C:\Users\Roi\AppData\Local\Temp\ccVHOZXJ.s 			page 28


 623:Generated_Source\PSoC4/BLE_HAL_PVT.c ****         return (CYBLE_ERROR_UNSUPPORTED_FEATURE_OR_PARAMETER_VALUE);
 624:Generated_Source\PSoC4/BLE_HAL_PVT.c ****     }
 905              		.loc 1 624 0
 906 0000 2B20     		movs	r0, #43
 907              	.LVL93:
 908              		@ sp needed
 909 0002 7047     		bx	lr
 910              		.cfi_endproc
 911              	.LFE21:
 912              		.size	CyBle_Hal_pairing_rand_handler, .-CyBle_Hal_pairing_rand_handler
 913              		.section	.text.CyBle_Hal_pairing_confirm_handler,"ax",%progbits
 914              		.align	2
 915              		.global	CyBle_Hal_pairing_confirm_handler
 916              		.code	16
 917              		.thumb_func
 918              		.type	CyBle_Hal_pairing_confirm_handler, %function
 919              	CyBle_Hal_pairing_confirm_handler:
 920              	.LFB22:
 625:Generated_Source\PSoC4/BLE_HAL_PVT.c ****     
 626:Generated_Source\PSoC4/BLE_HAL_PVT.c ****     CYBLE_API_RESULT_T CyBle_Hal_pairing_confirm_handler(void *param CYBLE_UNUSED_ATTR)
 627:Generated_Source\PSoC4/BLE_HAL_PVT.c ****     {
 921              		.loc 1 627 0
 922              		.cfi_startproc
 923              		@ args = 0, pretend = 0, frame = 0
 924              		@ frame_needed = 0, uses_anonymous_args = 0
 925              		@ link register save eliminated.
 926              	.LVL94:
 628:Generated_Source\PSoC4/BLE_HAL_PVT.c ****         return (CYBLE_ERROR_UNSUPPORTED_FEATURE_OR_PARAMETER_VALUE);
 629:Generated_Source\PSoC4/BLE_HAL_PVT.c ****     }
 927              		.loc 1 629 0
 928 0000 2B20     		movs	r0, #43
 929              	.LVL95:
 930              		@ sp needed
 931 0002 7047     		bx	lr
 932              		.cfi_endproc
 933              	.LFE22:
 934              		.size	CyBle_Hal_pairing_confirm_handler, .-CyBle_Hal_pairing_confirm_handler
 935              		.section	.text.CyBle_Hal_pairing_lr_confirming_handler,"ax",%progbits
 936              		.align	2
 937              		.global	CyBle_Hal_pairing_lr_confirming_handler
 938              		.code	16
 939              		.thumb_func
 940              		.type	CyBle_Hal_pairing_lr_confirming_handler, %function
 941              	CyBle_Hal_pairing_lr_confirming_handler:
 942              	.LFB23:
 630:Generated_Source\PSoC4/BLE_HAL_PVT.c **** 
 631:Generated_Source\PSoC4/BLE_HAL_PVT.c ****     CYBLE_API_RESULT_T CyBle_Hal_pairing_lr_confirming_handler(void *param CYBLE_UNUSED_ATTR)
 632:Generated_Source\PSoC4/BLE_HAL_PVT.c ****     {
 943              		.loc 1 632 0
 944              		.cfi_startproc
 945              		@ args = 0, pretend = 0, frame = 0
 946              		@ frame_needed = 0, uses_anonymous_args = 0
 947              		@ link register save eliminated.
 948              	.LVL96:
 633:Generated_Source\PSoC4/BLE_HAL_PVT.c ****         return (CYBLE_ERROR_UNSUPPORTED_FEATURE_OR_PARAMETER_VALUE);
 634:Generated_Source\PSoC4/BLE_HAL_PVT.c ****     }
 949              		.loc 1 634 0
ARM GAS  C:\Users\Roi\AppData\Local\Temp\ccVHOZXJ.s 			page 29


 950 0000 2B20     		movs	r0, #43
 951              	.LVL97:
 952              		@ sp needed
 953 0002 7047     		bx	lr
 954              		.cfi_endproc
 955              	.LFE23:
 956              		.size	CyBle_Hal_pairing_lr_confirming_handler, .-CyBle_Hal_pairing_lr_confirming_handler
 957              		.section	.text.CyBle_Hal_pairing_sc_tbx_dhkey_generate_complete,"ax",%progbits
 958              		.align	2
 959              		.global	CyBle_Hal_pairing_sc_tbx_dhkey_generate_complete
 960              		.code	16
 961              		.thumb_func
 962              		.type	CyBle_Hal_pairing_sc_tbx_dhkey_generate_complete, %function
 963              	CyBle_Hal_pairing_sc_tbx_dhkey_generate_complete:
 964              	.LFB24:
 635:Generated_Source\PSoC4/BLE_HAL_PVT.c ****     
 636:Generated_Source\PSoC4/BLE_HAL_PVT.c ****     CYBLE_API_RESULT_T CyBle_Hal_pairing_sc_tbx_dhkey_generate_complete(void* param CYBLE_UNUSED_AT
 637:Generated_Source\PSoC4/BLE_HAL_PVT.c ****     {
 965              		.loc 1 637 0
 966              		.cfi_startproc
 967              		@ args = 0, pretend = 0, frame = 0
 968              		@ frame_needed = 0, uses_anonymous_args = 0
 969              		@ link register save eliminated.
 970              	.LVL98:
 638:Generated_Source\PSoC4/BLE_HAL_PVT.c ****         return (CYBLE_ERROR_UNSUPPORTED_FEATURE_OR_PARAMETER_VALUE);
 639:Generated_Source\PSoC4/BLE_HAL_PVT.c ****     }
 971              		.loc 1 639 0
 972 0000 2B20     		movs	r0, #43
 973              	.LVL99:
 974              		@ sp needed
 975 0002 7047     		bx	lr
 976              		.cfi_endproc
 977              	.LFE24:
 978              		.size	CyBle_Hal_pairing_sc_tbx_dhkey_generate_complete, .-CyBle_Hal_pairing_sc_tbx_dhkey_generate_
 979              		.section	.text.CyBle_Hal_pairing_sc_tbx_local_pubkey_generate_complete,"ax",%progbits
 980              		.align	2
 981              		.global	CyBle_Hal_pairing_sc_tbx_local_pubkey_generate_complete
 982              		.code	16
 983              		.thumb_func
 984              		.type	CyBle_Hal_pairing_sc_tbx_local_pubkey_generate_complete, %function
 985              	CyBle_Hal_pairing_sc_tbx_local_pubkey_generate_complete:
 986              	.LFB25:
 640:Generated_Source\PSoC4/BLE_HAL_PVT.c **** 
 641:Generated_Source\PSoC4/BLE_HAL_PVT.c ****     CYBLE_API_RESULT_T CyBle_Hal_pairing_sc_tbx_local_pubkey_generate_complete(void)
 642:Generated_Source\PSoC4/BLE_HAL_PVT.c ****     {
 987              		.loc 1 642 0
 988              		.cfi_startproc
 989              		@ args = 0, pretend = 0, frame = 0
 990              		@ frame_needed = 0, uses_anonymous_args = 0
 991              		@ link register save eliminated.
 643:Generated_Source\PSoC4/BLE_HAL_PVT.c ****         return (CYBLE_ERROR_UNSUPPORTED_FEATURE_OR_PARAMETER_VALUE);
 644:Generated_Source\PSoC4/BLE_HAL_PVT.c ****     }
 992              		.loc 1 644 0
 993 0000 2B20     		movs	r0, #43
 994              		@ sp needed
 995 0002 7047     		bx	lr
 996              		.cfi_endproc
ARM GAS  C:\Users\Roi\AppData\Local\Temp\ccVHOZXJ.s 			page 30


 997              	.LFE25:
 998              		.size	CyBle_Hal_pairing_sc_tbx_local_pubkey_generate_complete, .-CyBle_Hal_pairing_sc_tbx_local_pu
 999              		.section	.text.CyBle_Hal_pairing_sc_generate_local_P256_public_key,"ax",%progbits
 1000              		.align	2
 1001              		.global	CyBle_Hal_pairing_sc_generate_local_P256_public_key
 1002              		.code	16
 1003              		.thumb_func
 1004              		.type	CyBle_Hal_pairing_sc_generate_local_P256_public_key, %function
 1005              	CyBle_Hal_pairing_sc_generate_local_P256_public_key:
 1006              	.LFB26:
 645:Generated_Source\PSoC4/BLE_HAL_PVT.c **** 
 646:Generated_Source\PSoC4/BLE_HAL_PVT.c ****     CYBLE_API_RESULT_T CyBle_Hal_pairing_sc_generate_local_P256_public_key(uint8 param CYBLE_UNUSED
 647:Generated_Source\PSoC4/BLE_HAL_PVT.c ****     {
 1007              		.loc 1 647 0
 1008              		.cfi_startproc
 1009              		@ args = 0, pretend = 0, frame = 0
 1010              		@ frame_needed = 0, uses_anonymous_args = 0
 1011              		@ link register save eliminated.
 1012              	.LVL100:
 648:Generated_Source\PSoC4/BLE_HAL_PVT.c ****         return (CYBLE_ERROR_UNSUPPORTED_FEATURE_OR_PARAMETER_VALUE);
 649:Generated_Source\PSoC4/BLE_HAL_PVT.c ****     }
 1013              		.loc 1 649 0
 1014 0000 2B20     		movs	r0, #43
 1015              	.LVL101:
 1016              		@ sp needed
 1017 0002 7047     		bx	lr
 1018              		.cfi_endproc
 1019              	.LFE26:
 1020              		.size	CyBle_Hal_pairing_sc_generate_local_P256_public_key, .-CyBle_Hal_pairing_sc_generate_local_P
 1021              		.section	.text.CyBle_Hal_pairing_sc_generate_DHkey,"ax",%progbits
 1022              		.align	2
 1023              		.global	CyBle_Hal_pairing_sc_generate_DHkey
 1024              		.code	16
 1025              		.thumb_func
 1026              		.type	CyBle_Hal_pairing_sc_generate_DHkey, %function
 1027              	CyBle_Hal_pairing_sc_generate_DHkey:
 1028              	.LFB27:
 650:Generated_Source\PSoC4/BLE_HAL_PVT.c **** 
 651:Generated_Source\PSoC4/BLE_HAL_PVT.c ****     CYBLE_API_RESULT_T CyBle_Hal_pairing_sc_generate_DHkey(void  * param1 CYBLE_UNUSED_ATTR,
 652:Generated_Source\PSoC4/BLE_HAL_PVT.c ****                                                                void  * param2 CYBLE_UNUSED_ATTR)
 653:Generated_Source\PSoC4/BLE_HAL_PVT.c ****     {
 1029              		.loc 1 653 0
 1030              		.cfi_startproc
 1031              		@ args = 0, pretend = 0, frame = 0
 1032              		@ frame_needed = 0, uses_anonymous_args = 0
 1033              		@ link register save eliminated.
 1034              	.LVL102:
 654:Generated_Source\PSoC4/BLE_HAL_PVT.c ****         return (CYBLE_ERROR_UNSUPPORTED_FEATURE_OR_PARAMETER_VALUE);
 655:Generated_Source\PSoC4/BLE_HAL_PVT.c ****     }
 1035              		.loc 1 655 0
 1036 0000 2B20     		movs	r0, #43
 1037              	.LVL103:
 1038              		@ sp needed
 1039 0002 7047     		bx	lr
 1040              		.cfi_endproc
 1041              	.LFE27:
 1042              		.size	CyBle_Hal_pairing_sc_generate_DHkey, .-CyBle_Hal_pairing_sc_generate_DHkey
ARM GAS  C:\Users\Roi\AppData\Local\Temp\ccVHOZXJ.s 			page 31


 1043              		.section	.text.CyBle_Hal_smp_sc_cmac_complete,"ax",%progbits
 1044              		.align	2
 1045              		.global	CyBle_Hal_smp_sc_cmac_complete
 1046              		.code	16
 1047              		.thumb_func
 1048              		.type	CyBle_Hal_smp_sc_cmac_complete, %function
 1049              	CyBle_Hal_smp_sc_cmac_complete:
 1050              	.LFB28:
 656:Generated_Source\PSoC4/BLE_HAL_PVT.c **** 
 657:Generated_Source\PSoC4/BLE_HAL_PVT.c ****     void CyBle_Hal_smp_sc_cmac_complete(void)
 658:Generated_Source\PSoC4/BLE_HAL_PVT.c ****     {
 1051              		.loc 1 658 0
 1052              		.cfi_startproc
 1053              		@ args = 0, pretend = 0, frame = 0
 1054              		@ frame_needed = 0, uses_anonymous_args = 0
 1055              		@ link register save eliminated.
 659:Generated_Source\PSoC4/BLE_HAL_PVT.c ****     }
 1056              		.loc 1 659 0
 1057              		@ sp needed
 1058 0000 7047     		bx	lr
 1059              		.cfi_endproc
 1060              	.LFE28:
 1061              		.size	CyBle_Hal_smp_sc_cmac_complete, .-CyBle_Hal_smp_sc_cmac_complete
 1062 0002 C046     		.section	.text.CyBle_Hal_se_smp_sc_user_passkey_handler,"ax",%progbits
 1063              		.align	2
 1064              		.global	CyBle_Hal_se_smp_sc_user_passkey_handler
 1065              		.code	16
 1066              		.thumb_func
 1067              		.type	CyBle_Hal_se_smp_sc_user_passkey_handler, %function
 1068              	CyBle_Hal_se_smp_sc_user_passkey_handler:
 1069              	.LFB29:
 660:Generated_Source\PSoC4/BLE_HAL_PVT.c **** 
 661:Generated_Source\PSoC4/BLE_HAL_PVT.c ****     CYBLE_API_RESULT_T CyBle_Hal_se_smp_sc_user_passkey_handler(void  * param1 CYBLE_UNUSED_ATTR,
 662:Generated_Source\PSoC4/BLE_HAL_PVT.c ****                                                                 void  * param2 CYBLE_UNUSED_ATTR)
 663:Generated_Source\PSoC4/BLE_HAL_PVT.c ****     {
 1070              		.loc 1 663 0
 1071              		.cfi_startproc
 1072              		@ args = 0, pretend = 0, frame = 0
 1073              		@ frame_needed = 0, uses_anonymous_args = 0
 1074              		@ link register save eliminated.
 1075              	.LVL104:
 664:Generated_Source\PSoC4/BLE_HAL_PVT.c ****         return (CYBLE_ERROR_UNSUPPORTED_FEATURE_OR_PARAMETER_VALUE);
 665:Generated_Source\PSoC4/BLE_HAL_PVT.c ****     }
 1076              		.loc 1 665 0
 1077 0000 2B20     		movs	r0, #43
 1078              	.LVL105:
 1079              		@ sp needed
 1080 0002 7047     		bx	lr
 1081              		.cfi_endproc
 1082              	.LFE29:
 1083              		.size	CyBle_Hal_se_smp_sc_user_passkey_handler, .-CyBle_Hal_se_smp_sc_user_passkey_handler
 1084              		.section	.text.CyBle_Hal_EccPointMult,"ax",%progbits
 1085              		.align	2
 1086              		.global	CyBle_Hal_EccPointMult
 1087              		.code	16
 1088              		.thumb_func
 1089              		.type	CyBle_Hal_EccPointMult, %function
ARM GAS  C:\Users\Roi\AppData\Local\Temp\ccVHOZXJ.s 			page 32


 1090              	CyBle_Hal_EccPointMult:
 1091              	.LFB30:
 666:Generated_Source\PSoC4/BLE_HAL_PVT.c **** 
 667:Generated_Source\PSoC4/BLE_HAL_PVT.c ****     void CyBle_Hal_EccPointMult(void)
 668:Generated_Source\PSoC4/BLE_HAL_PVT.c ****     {
 1092              		.loc 1 668 0
 1093              		.cfi_startproc
 1094              		@ args = 0, pretend = 0, frame = 0
 1095              		@ frame_needed = 0, uses_anonymous_args = 0
 1096              		@ link register save eliminated.
 669:Generated_Source\PSoC4/BLE_HAL_PVT.c ****     }
 1097              		.loc 1 669 0
 1098              		@ sp needed
 1099 0000 7047     		bx	lr
 1100              		.cfi_endproc
 1101              	.LFE30:
 1102              		.size	CyBle_Hal_EccPointMult, .-CyBle_Hal_EccPointMult
 1103 0002 C046     		.section	.text.CyBle_Hal_pairing_sc_validate_p256_pub_key_pair,"ax",%progbits
 1104              		.align	2
 1105              		.global	CyBle_Hal_pairing_sc_validate_p256_pub_key_pair
 1106              		.code	16
 1107              		.thumb_func
 1108              		.type	CyBle_Hal_pairing_sc_validate_p256_pub_key_pair, %function
 1109              	CyBle_Hal_pairing_sc_validate_p256_pub_key_pair:
 1110              	.LFB31:
 670:Generated_Source\PSoC4/BLE_HAL_PVT.c ****     
 671:Generated_Source\PSoC4/BLE_HAL_PVT.c ****     CYBLE_API_RESULT_T CyBle_Hal_pairing_sc_validate_p256_pub_key_pair (void *param1 CYBLE_UNUSED_A
 672:Generated_Source\PSoC4/BLE_HAL_PVT.c ****     {
 1111              		.loc 1 672 0
 1112              		.cfi_startproc
 1113              		@ args = 0, pretend = 0, frame = 0
 1114              		@ frame_needed = 0, uses_anonymous_args = 0
 1115              		@ link register save eliminated.
 1116              	.LVL106:
 673:Generated_Source\PSoC4/BLE_HAL_PVT.c ****         return (CYBLE_ERROR_UNSUPPORTED_FEATURE_OR_PARAMETER_VALUE);
 674:Generated_Source\PSoC4/BLE_HAL_PVT.c ****     }
 1117              		.loc 1 674 0
 1118 0000 2B20     		movs	r0, #43
 1119              	.LVL107:
 1120              		@ sp needed
 1121 0002 7047     		bx	lr
 1122              		.cfi_endproc
 1123              	.LFE31:
 1124              		.size	CyBle_Hal_pairing_sc_validate_p256_pub_key_pair, .-CyBle_Hal_pairing_sc_validate_p256_pub_ke
 1125              		.section	.text.BLE_CMP_FTR_API_lec_hci_handle_read_local_P256_public_key_command,"ax",%progbits
 1126              		.align	2
 1127              		.global	BLE_CMP_FTR_API_lec_hci_handle_read_local_P256_public_key_command
 1128              		.code	16
 1129              		.thumb_func
 1130              		.type	BLE_CMP_FTR_API_lec_hci_handle_read_local_P256_public_key_command, %function
 1131              	BLE_CMP_FTR_API_lec_hci_handle_read_local_P256_public_key_command:
 1132              	.LFB32:
 675:Generated_Source\PSoC4/BLE_HAL_PVT.c ****     
 676:Generated_Source\PSoC4/BLE_HAL_PVT.c **** #endif /* (CYBLE_SECURE_CONN_FEATURE_ENABLED) */
 677:Generated_Source\PSoC4/BLE_HAL_PVT.c **** 
 678:Generated_Source\PSoC4/BLE_HAL_PVT.c **** #endif /* CYBLE_MODE_PROFILE */
 679:Generated_Source\PSoC4/BLE_HAL_PVT.c **** 
ARM GAS  C:\Users\Roi\AppData\Local\Temp\ccVHOZXJ.s 			page 33


 680:Generated_Source\PSoC4/BLE_HAL_PVT.c **** #if(CYBLE_SECURE_CONN_FEATURE_ENABLED)
 681:Generated_Source\PSoC4/BLE_HAL_PVT.c ****     
 682:Generated_Source\PSoC4/BLE_HAL_PVT.c ****     uint16 BLE_CMP_FTR_API_lec_hci_handle_read_local_P256_public_key_command(void *param)
 683:Generated_Source\PSoC4/BLE_HAL_PVT.c ****     {
 684:Generated_Source\PSoC4/BLE_HAL_PVT.c ****         return (BLE_STK_FTR_API_lec_hci_handle_read_local_P256_public_key_command(param));
 685:Generated_Source\PSoC4/BLE_HAL_PVT.c ****     }
 686:Generated_Source\PSoC4/BLE_HAL_PVT.c ****     
 687:Generated_Source\PSoC4/BLE_HAL_PVT.c ****     uint16 BLE_CMP_FTR_API_lec_hci_handle_generate_DHkey_command(void *param)
 688:Generated_Source\PSoC4/BLE_HAL_PVT.c ****     {
 689:Generated_Source\PSoC4/BLE_HAL_PVT.c ****         return (BLE_STK_FTR_API_lec_hci_handle_generate_DHkey_command(param));
 690:Generated_Source\PSoC4/BLE_HAL_PVT.c ****     }
 691:Generated_Source\PSoC4/BLE_HAL_PVT.c **** 
 692:Generated_Source\PSoC4/BLE_HAL_PVT.c **** #else     /* If feature is not required, return error. */
 693:Generated_Source\PSoC4/BLE_HAL_PVT.c ****     
 694:Generated_Source\PSoC4/BLE_HAL_PVT.c ****     uint16 BLE_CMP_FTR_API_lec_hci_handle_read_local_P256_public_key_command(void *param CYBLE_UNUS
 695:Generated_Source\PSoC4/BLE_HAL_PVT.c ****     {
 1133              		.loc 1 695 0
 1134              		.cfi_startproc
 1135              		@ args = 0, pretend = 0, frame = 0
 1136              		@ frame_needed = 0, uses_anonymous_args = 0
 1137              		@ link register save eliminated.
 1138              	.LVL108:
 696:Generated_Source\PSoC4/BLE_HAL_PVT.c ****         return (CYBLE_UNKNOWN_HCI_COMMAND_ERROR);
 697:Generated_Source\PSoC4/BLE_HAL_PVT.c ****     }
 1139              		.loc 1 697 0
 1140 0000 0120     		movs	r0, #1
 1141              	.LVL109:
 1142              		@ sp needed
 1143 0002 7047     		bx	lr
 1144              		.cfi_endproc
 1145              	.LFE32:
 1146              		.size	BLE_CMP_FTR_API_lec_hci_handle_read_local_P256_public_key_command, .-BLE_CMP_FTR_API_lec_hci
 1147              		.section	.text.BLE_CMP_FTR_API_lec_hci_handle_generate_DHkey_command,"ax",%progbits
 1148              		.align	2
 1149              		.global	BLE_CMP_FTR_API_lec_hci_handle_generate_DHkey_command
 1150              		.code	16
 1151              		.thumb_func
 1152              		.type	BLE_CMP_FTR_API_lec_hci_handle_generate_DHkey_command, %function
 1153              	BLE_CMP_FTR_API_lec_hci_handle_generate_DHkey_command:
 1154              	.LFB33:
 698:Generated_Source\PSoC4/BLE_HAL_PVT.c ****     
 699:Generated_Source\PSoC4/BLE_HAL_PVT.c ****     uint16 BLE_CMP_FTR_API_lec_hci_handle_generate_DHkey_command(void *param CYBLE_UNUSED_ATTR)
 700:Generated_Source\PSoC4/BLE_HAL_PVT.c ****     {
 1155              		.loc 1 700 0
 1156              		.cfi_startproc
 1157              		@ args = 0, pretend = 0, frame = 0
 1158              		@ frame_needed = 0, uses_anonymous_args = 0
 1159              		@ link register save eliminated.
 1160              	.LVL110:
 701:Generated_Source\PSoC4/BLE_HAL_PVT.c ****         return (CYBLE_UNKNOWN_HCI_COMMAND_ERROR);
 702:Generated_Source\PSoC4/BLE_HAL_PVT.c ****     }
 1161              		.loc 1 702 0
 1162 0000 0120     		movs	r0, #1
 1163              	.LVL111:
 1164              		@ sp needed
 1165 0002 7047     		bx	lr
 1166              		.cfi_endproc
ARM GAS  C:\Users\Roi\AppData\Local\Temp\ccVHOZXJ.s 			page 34


 1167              	.LFE33:
 1168              		.size	BLE_CMP_FTR_API_lec_hci_handle_generate_DHkey_command, .-BLE_CMP_FTR_API_lec_hci_handle_gene
 1169              		.text
 1170              	.Letext0:
 1171              		.file 2 "Generated_Source\\PSoC4\\cytypes.h"
 1172              		.file 3 "Generated_Source\\PSoC4\\BLE_Stack.h"
 1173              		.file 4 "Generated_Source\\PSoC4\\CyFlash.h"
 1174              		.file 5 "Generated_Source\\PSoC4\\CyLib.h"
 1175              		.file 6 "Generated_Source\\PSoC4\\BLE_bless_isr.h"