ARM GAS  C:\Users\Roi\AppData\Local\Temp\ccR3Zag1.s 			page 1


   1              		.syntax unified
   2              		.cpu cortex-m0
   3              		.fpu softvfp
   4              		.eabi_attribute 20, 1
   5              		.eabi_attribute 21, 1
   6              		.eabi_attribute 23, 3
   7              		.eabi_attribute 24, 1
   8              		.eabi_attribute 25, 1
   9              		.eabi_attribute 26, 1
  10              		.eabi_attribute 30, 1
  11              		.eabi_attribute 34, 0
  12              		.eabi_attribute 18, 4
  13              		.thumb
  14              		.syntax unified
  15              		.file	"BLE_custom.c"
  16              		.text
  17              	.Ltext0:
  18              		.cfi_sections	.debug_frame
  19              		.section	.text.CyBle_CustomInit,"ax",%progbits
  20              		.align	2
  21              		.global	CyBle_CustomInit
  22              		.code	16
  23              		.thumb_func
  24              		.type	CyBle_CustomInit, %function
  25              	CyBle_CustomInit:
  26              	.LFB2:
  27              		.file 1 "Generated_Source\\PSoC4\\BLE_custom.c"
   1:Generated_Source\PSoC4/BLE_custom.c **** /***************************************************************************//**
   2:Generated_Source\PSoC4/BLE_custom.c **** * \file CYBLE_custom.c
   3:Generated_Source\PSoC4/BLE_custom.c **** * \version 3.66
   4:Generated_Source\PSoC4/BLE_custom.c **** * 
   5:Generated_Source\PSoC4/BLE_custom.c **** * \brief
   6:Generated_Source\PSoC4/BLE_custom.c **** *  Contains the source code for the Custom Service.
   7:Generated_Source\PSoC4/BLE_custom.c **** * 
   8:Generated_Source\PSoC4/BLE_custom.c **** ********************************************************************************
   9:Generated_Source\PSoC4/BLE_custom.c **** * \copyright
  10:Generated_Source\PSoC4/BLE_custom.c **** * Copyright 2014-2020, Cypress Semiconductor Corporation.  All rights reserved.
  11:Generated_Source\PSoC4/BLE_custom.c **** * You may use this file only in accordance with the license, terms, conditions,
  12:Generated_Source\PSoC4/BLE_custom.c **** * disclaimers, and limitations in the end user license agreement accompanying
  13:Generated_Source\PSoC4/BLE_custom.c **** * the software package with which this file was provided.
  14:Generated_Source\PSoC4/BLE_custom.c **** *******************************************************************************/
  15:Generated_Source\PSoC4/BLE_custom.c **** 
  16:Generated_Source\PSoC4/BLE_custom.c **** 
  17:Generated_Source\PSoC4/BLE_custom.c **** #include "BLE_eventHandler.h"
  18:Generated_Source\PSoC4/BLE_custom.c **** 
  19:Generated_Source\PSoC4/BLE_custom.c **** #ifdef CYBLE_CUSTOM_SERVER
  20:Generated_Source\PSoC4/BLE_custom.c **** 
  21:Generated_Source\PSoC4/BLE_custom.c **** /* If any custom service with custom characteristics is defined in the
  22:Generated_Source\PSoC4/BLE_custom.c **** * customizer's GUI their handles will be present in this array.
  23:Generated_Source\PSoC4/BLE_custom.c **** */
  24:Generated_Source\PSoC4/BLE_custom.c **** /* This array contains attribute handles for the defined Custom Services and their characteristics 
  25:Generated_Source\PSoC4/BLE_custom.c ****    The array index definitions are located in the CYBLE_custom.h file. */
  26:Generated_Source\PSoC4/BLE_custom.c **** const CYBLE_CUSTOMS_T cyBle_customs[0x01u] = {
  27:Generated_Source\PSoC4/BLE_custom.c **** 
  28:Generated_Source\PSoC4/BLE_custom.c ****     /* Switch service */
  29:Generated_Source\PSoC4/BLE_custom.c ****     {
  30:Generated_Source\PSoC4/BLE_custom.c ****         0x0010u, /* Handle of the Switch service */ 
ARM GAS  C:\Users\Roi\AppData\Local\Temp\ccR3Zag1.s 			page 2


  31:Generated_Source\PSoC4/BLE_custom.c ****         {
  32:Generated_Source\PSoC4/BLE_custom.c **** 
  33:Generated_Source\PSoC4/BLE_custom.c ****             /* Faucet characteristic */
  34:Generated_Source\PSoC4/BLE_custom.c ****             {
  35:Generated_Source\PSoC4/BLE_custom.c ****                 0x0012u, /* Handle of the Faucet characteristic */ 
  36:Generated_Source\PSoC4/BLE_custom.c ****                 
  37:Generated_Source\PSoC4/BLE_custom.c ****                 /* Array of Descriptors handles */
  38:Generated_Source\PSoC4/BLE_custom.c ****                 {
  39:Generated_Source\PSoC4/BLE_custom.c ****                     0x0013u, /* Handle of the Characteristic User Description descriptor */ 
  40:Generated_Source\PSoC4/BLE_custom.c ****                 }, 
  41:Generated_Source\PSoC4/BLE_custom.c ****             },
  42:Generated_Source\PSoC4/BLE_custom.c ****         }, 
  43:Generated_Source\PSoC4/BLE_custom.c ****     },
  44:Generated_Source\PSoC4/BLE_custom.c **** };
  45:Generated_Source\PSoC4/BLE_custom.c **** 
  46:Generated_Source\PSoC4/BLE_custom.c **** 
  47:Generated_Source\PSoC4/BLE_custom.c **** #endif /* (CYBLE_CUSTOM_SERVER) */
  48:Generated_Source\PSoC4/BLE_custom.c **** 
  49:Generated_Source\PSoC4/BLE_custom.c **** #ifdef CYBLE_CUSTOM_CLIENT
  50:Generated_Source\PSoC4/BLE_custom.c ****     
  51:Generated_Source\PSoC4/BLE_custom.c **** static const CYBLE_UUID128_T cyBle_customUuid128[] = {
  52:Generated_Source\PSoC4/BLE_custom.c ****     /* Custom Service */
  53:Generated_Source\PSoC4/BLE_custom.c ****     { {0x58u, 0xA5u, 0x38u, 0xF2u, 0xD8u, 0x64u, 0xCDu, 0xBDu, 0x15u, 0x42u, 0xA3u, 0xB0u, 0xFEu, 0
  54:Generated_Source\PSoC4/BLE_custom.c ****     /* Custom Characteristic */
  55:Generated_Source\PSoC4/BLE_custom.c ****     { {0xC8u, 0xC9u, 0x89u, 0x90u, 0x0Eu, 0xDFu, 0x60u, 0x83u, 0xD0u, 0x4Eu, 0x5Eu, 0xEAu, 0x96u, 0
  56:Generated_Source\PSoC4/BLE_custom.c ****     /* Custom Descriptor */
  57:Generated_Source\PSoC4/BLE_custom.c ****     { {0xCCu, 0xA2u, 0x50u, 0x1Cu, 0x10u, 0x03u, 0x4Du, 0xB8u, 0xC7u, 0x4Cu, 0x33u, 0xF5u, 0x11u, 0
  58:Generated_Source\PSoC4/BLE_custom.c **** };
  59:Generated_Source\PSoC4/BLE_custom.c **** 
  60:Generated_Source\PSoC4/BLE_custom.c **** static CYBLE_CUSTOMC_DESC_T cyBle_customCDesc[0x01u] = {
  61:Generated_Source\PSoC4/BLE_custom.c **** 
  62:Generated_Source\PSoC4/BLE_custom.c ****     /* Custom Descriptor */
  63:Generated_Source\PSoC4/BLE_custom.c ****     {
  64:Generated_Source\PSoC4/BLE_custom.c ****         CYBLE_GATT_INVALID_ATTR_HANDLE_VALUE, /* Descriptor handle */ 
  65:Generated_Source\PSoC4/BLE_custom.c ****         (const CYBLE_UUID128_T *) &cyBle_customUuid128[2], /* 128-bit UUID */ 
  66:Generated_Source\PSoC4/BLE_custom.c ****         0x02u, /* UUID Format - 16-bit (0x01) or 128-bit (0x02) */ 
  67:Generated_Source\PSoC4/BLE_custom.c ****     },
  68:Generated_Source\PSoC4/BLE_custom.c **** };
  69:Generated_Source\PSoC4/BLE_custom.c **** 
  70:Generated_Source\PSoC4/BLE_custom.c **** static CYBLE_CUSTOMC_CHAR_T cyBle_customCChar[0x01u] = {
  71:Generated_Source\PSoC4/BLE_custom.c **** 
  72:Generated_Source\PSoC4/BLE_custom.c ****     /* Custom Characteristic */
  73:Generated_Source\PSoC4/BLE_custom.c ****     {
  74:Generated_Source\PSoC4/BLE_custom.c ****         CYBLE_GATT_INVALID_ATTR_HANDLE_VALUE, /* Characteristic handle */ 
  75:Generated_Source\PSoC4/BLE_custom.c ****         CYBLE_GATT_INVALID_ATTR_HANDLE_VALUE, /* Characteristic end handle */ 
  76:Generated_Source\PSoC4/BLE_custom.c ****         (const CYBLE_UUID128_T *) &cyBle_customUuid128[1], /* 128-bit UUID */ 
  77:Generated_Source\PSoC4/BLE_custom.c ****         0x02u, /* UUID Format - 16-bit (0x01) or 128-bit (0x02) */ 
  78:Generated_Source\PSoC4/BLE_custom.c ****         0x00u, /* Characteristic properties */ 
  79:Generated_Source\PSoC4/BLE_custom.c ****         0x01u, /* Number of descriptors */ 
  80:Generated_Source\PSoC4/BLE_custom.c ****         &cyBle_customCDesc[0], /* Characteristic Descriptors */ 
  81:Generated_Source\PSoC4/BLE_custom.c ****     },
  82:Generated_Source\PSoC4/BLE_custom.c **** };
  83:Generated_Source\PSoC4/BLE_custom.c **** 
  84:Generated_Source\PSoC4/BLE_custom.c **** CYBLE_CUSTOMC_T cyBle_customCServ[CYBLE_CUSTOMC_SERVICE_COUNT] = {
  85:Generated_Source\PSoC4/BLE_custom.c **** 
  86:Generated_Source\PSoC4/BLE_custom.c ****     /* Custom Service */
  87:Generated_Source\PSoC4/BLE_custom.c ****     {
ARM GAS  C:\Users\Roi\AppData\Local\Temp\ccR3Zag1.s 			page 3


  88:Generated_Source\PSoC4/BLE_custom.c ****         CYBLE_GATT_INVALID_ATTR_HANDLE_VALUE, /* Custom Service handle */ 
  89:Generated_Source\PSoC4/BLE_custom.c ****         (const CYBLE_UUID128_T *) &cyBle_customUuid128[0], /* 128-bit UUID */ 
  90:Generated_Source\PSoC4/BLE_custom.c ****         0x02u, /* UUID Format - 16-bit (0x01) or 128-bit (0x02) */ 
  91:Generated_Source\PSoC4/BLE_custom.c ****         0x01u, /* Number of characteristics */ 
  92:Generated_Source\PSoC4/BLE_custom.c ****         &cyBle_customCChar[0], /* Custom Service Characteristics */ 
  93:Generated_Source\PSoC4/BLE_custom.c ****     },
  94:Generated_Source\PSoC4/BLE_custom.c **** };
  95:Generated_Source\PSoC4/BLE_custom.c **** 
  96:Generated_Source\PSoC4/BLE_custom.c **** 
  97:Generated_Source\PSoC4/BLE_custom.c **** static uint16 cyBle_customDisServIndex;
  98:Generated_Source\PSoC4/BLE_custom.c **** static uint16 cyBle_customDisCharIndex;
  99:Generated_Source\PSoC4/BLE_custom.c **** 
 100:Generated_Source\PSoC4/BLE_custom.c **** #endif /* (CYBLE_CUSTOM_CLIENT) */
 101:Generated_Source\PSoC4/BLE_custom.c **** 
 102:Generated_Source\PSoC4/BLE_custom.c **** 
 103:Generated_Source\PSoC4/BLE_custom.c **** /****************************************************************************** 
 104:Generated_Source\PSoC4/BLE_custom.c **** * Function Name: CyBle_CustomInit
 105:Generated_Source\PSoC4/BLE_custom.c **** ***************************************************************************//**
 106:Generated_Source\PSoC4/BLE_custom.c **** * 
 107:Generated_Source\PSoC4/BLE_custom.c **** *  This function initializes Custom Service.
 108:Generated_Source\PSoC4/BLE_custom.c **** * 
 109:Generated_Source\PSoC4/BLE_custom.c **** * \return
 110:Generated_Source\PSoC4/BLE_custom.c **** *  None
 111:Generated_Source\PSoC4/BLE_custom.c **** * 
 112:Generated_Source\PSoC4/BLE_custom.c **** ******************************************************************************/
 113:Generated_Source\PSoC4/BLE_custom.c **** void CyBle_CustomInit(void)
 114:Generated_Source\PSoC4/BLE_custom.c **** {
  28              		.loc 1 114 0
  29              		.cfi_startproc
  30              		@ args = 0, pretend = 0, frame = 0
  31              		@ frame_needed = 0, uses_anonymous_args = 0
  32 0000 F0B5     		push	{r4, r5, r6, r7, lr}
  33              		.cfi_def_cfa_offset 20
  34              		.cfi_offset 4, -20
  35              		.cfi_offset 5, -16
  36              		.cfi_offset 6, -12
  37              		.cfi_offset 7, -8
  38              		.cfi_offset 14, -4
  39              	.LVL0:
 115:Generated_Source\PSoC4/BLE_custom.c ****     
 116:Generated_Source\PSoC4/BLE_custom.c **** #ifdef CYBLE_CUSTOM_CLIENT
 117:Generated_Source\PSoC4/BLE_custom.c **** 
 118:Generated_Source\PSoC4/BLE_custom.c ****     uint16 locServIndex;
 119:Generated_Source\PSoC4/BLE_custom.c ****     uint16 locCharIndex;
 120:Generated_Source\PSoC4/BLE_custom.c ****     uint16 locDescIndex;
 121:Generated_Source\PSoC4/BLE_custom.c ****     
 122:Generated_Source\PSoC4/BLE_custom.c ****     for(locServIndex = 0u; locServIndex < CYBLE_CUSTOMC_SERVICE_COUNT; locServIndex++)
  40              		.loc 1 122 0
  41 0002 0026     		movs	r6, #0
  42 0004 30E0     		b	.L2
  43              	.LVL1:
  44              	.L8:
 123:Generated_Source\PSoC4/BLE_custom.c ****     {
 124:Generated_Source\PSoC4/BLE_custom.c ****         if(cyBle_serverInfo[CYBLE_SRVI_CUSTOMS + locServIndex].range.startHandle == CYBLE_GATT_INVA
  45              		.loc 1 124 0
  46 0006 3000     		movs	r0, r6
  47 0008 B31C     		adds	r3, r6, #2
ARM GAS  C:\Users\Roi\AppData\Local\Temp\ccR3Zag1.s 			page 4


  48 000a 5A00     		lsls	r2, r3, #1
  49 000c D318     		adds	r3, r2, r3
  50 000e 5A00     		lsls	r2, r3, #1
  51 0010 174B     		ldr	r3, .L10
  52 0012 D35A     		ldrh	r3, [r2, r3]
  53 0014 002B     		cmp	r3, #0
  54 0016 1ED0     		beq	.L9
  55 0018 24E0     		b	.L4
  56              	.LVL2:
  57              	.L7:
 125:Generated_Source\PSoC4/BLE_custom.c ****         {
 126:Generated_Source\PSoC4/BLE_custom.c ****             for(locCharIndex = 0u; locCharIndex < cyBle_customCServ[locServIndex].charCount; locCha
 127:Generated_Source\PSoC4/BLE_custom.c ****             {
 128:Generated_Source\PSoC4/BLE_custom.c ****                 cyBle_customCServ[locServIndex].customServChar[locCharIndex].
  58              		.loc 1 128 0
  59 001a 0301     		lsls	r3, r0, #4
  60 001c 154A     		ldr	r2, .L10+4
  61 001e D318     		adds	r3, r2, r3
  62 0020 DB68     		ldr	r3, [r3, #12]
  63 0022 2C01     		lsls	r4, r5, #4
  64 0024 1B19     		adds	r3, r3, r4
 129:Generated_Source\PSoC4/BLE_custom.c ****                     customServCharHandle = 0u;
  65              		.loc 1 129 0
  66 0026 0022     		movs	r2, #0
  67 0028 1A80     		strh	r2, [r3]
  68              	.LVL3:
 130:Generated_Source\PSoC4/BLE_custom.c ****                 
 131:Generated_Source\PSoC4/BLE_custom.c ****                 for(locDescIndex = 0u; locDescIndex < 
  69              		.loc 1 131 0
  70 002a 0023     		movs	r3, #0
  71 002c 08E0     		b	.L5
  72              	.LVL4:
  73              	.L6:
 132:Generated_Source\PSoC4/BLE_custom.c ****                     cyBle_customCServ[locServIndex].customServChar[locCharIndex].descCount; 
 133:Generated_Source\PSoC4/BLE_custom.c ****                         locDescIndex++)
 134:Generated_Source\PSoC4/BLE_custom.c ****                 {
 135:Generated_Source\PSoC4/BLE_custom.c ****                     cyBle_customCServ[locServIndex].customServChar[locCharIndex].
  74              		.loc 1 135 0
  75 002e D768     		ldr	r7, [r2, #12]
 136:Generated_Source\PSoC4/BLE_custom.c ****                         customServCharDesc[locDescIndex].descHandle = 0u;
  76              		.loc 1 136 0
  77 0030 5900     		lsls	r1, r3, #1
  78 0032 C918     		adds	r1, r1, r3
  79 0034 8A00     		lsls	r2, r1, #2
  80 0036 BA18     		adds	r2, r7, r2
  81 0038 0021     		movs	r1, #0
  82 003a 1180     		strh	r1, [r2]
 133:Generated_Source\PSoC4/BLE_custom.c ****                 {
  83              		.loc 1 133 0
  84 003c 0133     		adds	r3, r3, #1
  85              	.LVL5:
  86 003e 9BB2     		uxth	r3, r3
  87              	.LVL6:
  88              	.L5:
 132:Generated_Source\PSoC4/BLE_custom.c ****                     cyBle_customCServ[locServIndex].customServChar[locCharIndex].descCount; 
  89              		.loc 1 132 0 discriminator 1
  90 0040 0201     		lsls	r2, r0, #4
ARM GAS  C:\Users\Roi\AppData\Local\Temp\ccR3Zag1.s 			page 5


  91 0042 0C49     		ldr	r1, .L10+4
  92 0044 8A18     		adds	r2, r1, r2
  93 0046 D268     		ldr	r2, [r2, #12]
  94 0048 1219     		adds	r2, r2, r4
 131:Generated_Source\PSoC4/BLE_custom.c ****                     cyBle_customCServ[locServIndex].customServChar[locCharIndex].descCount; 
  95              		.loc 1 131 0 discriminator 1
  96 004a 917A     		ldrb	r1, [r2, #10]
  97 004c 8B42     		cmp	r3, r1
  98 004e EED3     		bcc	.L6
 126:Generated_Source\PSoC4/BLE_custom.c ****             {
  99              		.loc 1 126 0 discriminator 2
 100 0050 0135     		adds	r5, r5, #1
 101              	.LVL7:
 102 0052 ADB2     		uxth	r5, r5
 103              	.LVL8:
 104 0054 00E0     		b	.L3
 105              	.LVL9:
 106              	.L9:
 107 0056 0025     		movs	r5, #0
 108              	.L3:
 109              	.LVL10:
 126:Generated_Source\PSoC4/BLE_custom.c ****             {
 110              		.loc 1 126 0 is_stmt 0 discriminator 1
 111 0058 0301     		lsls	r3, r0, #4
 112 005a 064A     		ldr	r2, .L10+4
 113 005c D318     		adds	r3, r2, r3
 114 005e 5B7A     		ldrb	r3, [r3, #9]
 115 0060 9D42     		cmp	r5, r3
 116 0062 DAD3     		bcc	.L7
 117              	.LVL11:
 118              	.L4:
 122:Generated_Source\PSoC4/BLE_custom.c ****     {
 119              		.loc 1 122 0 is_stmt 1 discriminator 2
 120 0064 0136     		adds	r6, r6, #1
 121              	.LVL12:
 122 0066 B6B2     		uxth	r6, r6
 123              	.LVL13:
 124              	.L2:
 122:Generated_Source\PSoC4/BLE_custom.c ****     {
 125              		.loc 1 122 0 is_stmt 0 discriminator 1
 126 0068 002E     		cmp	r6, #0
 127 006a CCD0     		beq	.L8
 137:Generated_Source\PSoC4/BLE_custom.c ****                 }
 138:Generated_Source\PSoC4/BLE_custom.c ****             }
 139:Generated_Source\PSoC4/BLE_custom.c ****         }
 140:Generated_Source\PSoC4/BLE_custom.c ****     }
 141:Generated_Source\PSoC4/BLE_custom.c **** 
 142:Generated_Source\PSoC4/BLE_custom.c **** #endif /* (CYBLE_CUSTOM_CLIENT) */
 143:Generated_Source\PSoC4/BLE_custom.c **** }
 128              		.loc 1 143 0 is_stmt 1
 129              		@ sp needed
 130              	.LVL14:
 131 006c F0BD     		pop	{r4, r5, r6, r7, pc}
 132              	.L11:
 133 006e C046     		.align	2
 134              	.L10:
 135 0070 00000000 		.word	cyBle_serverInfo
ARM GAS  C:\Users\Roi\AppData\Local\Temp\ccR3Zag1.s 			page 6


 136 0074 00000000 		.word	.LANCHOR0
 137              		.cfi_endproc
 138              	.LFE2:
 139              		.size	CyBle_CustomInit, .-CyBle_CustomInit
 140              		.section	.text.CyBle_CustomcDiscoverServiceEventHandler,"ax",%progbits
 141              		.align	2
 142              		.global	CyBle_CustomcDiscoverServiceEventHandler
 143              		.code	16
 144              		.thumb_func
 145              		.type	CyBle_CustomcDiscoverServiceEventHandler, %function
 146              	CyBle_CustomcDiscoverServiceEventHandler:
 147              	.LFB3:
 144:Generated_Source\PSoC4/BLE_custom.c **** 
 145:Generated_Source\PSoC4/BLE_custom.c **** 
 146:Generated_Source\PSoC4/BLE_custom.c **** #ifdef CYBLE_CUSTOM_CLIENT
 147:Generated_Source\PSoC4/BLE_custom.c **** 
 148:Generated_Source\PSoC4/BLE_custom.c ****     
 149:Generated_Source\PSoC4/BLE_custom.c **** /******************************************************************************
 150:Generated_Source\PSoC4/BLE_custom.c **** * Function Name: CyBle_CustomcDiscoverServiceEventHandler
 151:Generated_Source\PSoC4/BLE_custom.c **** ***************************************************************************//**
 152:Generated_Source\PSoC4/BLE_custom.c **** * 
 153:Generated_Source\PSoC4/BLE_custom.c **** *  This function is called on receiving a Read By Group Response event or 
 154:Generated_Source\PSoC4/BLE_custom.c **** *  Read response with 128-bit service uuid. 
 155:Generated_Source\PSoC4/BLE_custom.c **** * 
 156:Generated_Source\PSoC4/BLE_custom.c **** *  \param *discServInfo: The pointer to a service information structure.
 157:Generated_Source\PSoC4/BLE_custom.c **** * 
 158:Generated_Source\PSoC4/BLE_custom.c **** * \return
 159:Generated_Source\PSoC4/BLE_custom.c **** *  None
 160:Generated_Source\PSoC4/BLE_custom.c **** * 
 161:Generated_Source\PSoC4/BLE_custom.c **** ******************************************************************************/
 162:Generated_Source\PSoC4/BLE_custom.c **** void CyBle_CustomcDiscoverServiceEventHandler(const CYBLE_DISC_SRVC128_INFO_T *discServInfo)
 163:Generated_Source\PSoC4/BLE_custom.c **** {
 148              		.loc 1 163 0
 149              		.cfi_startproc
 150              		@ args = 0, pretend = 0, frame = 0
 151              		@ frame_needed = 0, uses_anonymous_args = 0
 152              	.LVL15:
 153 0000 F8B5     		push	{r3, r4, r5, r6, r7, lr}
 154              		.cfi_def_cfa_offset 24
 155              		.cfi_offset 3, -24
 156              		.cfi_offset 4, -20
 157              		.cfi_offset 5, -16
 158              		.cfi_offset 6, -12
 159              		.cfi_offset 7, -8
 160              		.cfi_offset 14, -4
 161 0002 0600     		movs	r6, r0
 162              	.LVL16:
 164:Generated_Source\PSoC4/BLE_custom.c ****     uint16 j;
 165:Generated_Source\PSoC4/BLE_custom.c ****     uint8 flag = 0u;
 163              		.loc 1 165 0
 164 0004 0027     		movs	r7, #0
 166:Generated_Source\PSoC4/BLE_custom.c ****     
 167:Generated_Source\PSoC4/BLE_custom.c ****     /* Services with 128 bit UUID have discServInfo->uuid equal to 0 and address to 
 168:Generated_Source\PSoC4/BLE_custom.c ****        128 uuid is stored in cyBle_customCServ.uuid128
 169:Generated_Source\PSoC4/BLE_custom.c ****     */
 170:Generated_Source\PSoC4/BLE_custom.c **** 	for(j = 0u; (j < CYBLE_CUSTOMC_SERVICE_COUNT) && (flag == 0u); j++)
 165              		.loc 1 170 0
ARM GAS  C:\Users\Roi\AppData\Local\Temp\ccR3Zag1.s 			page 7


 166 0006 0024     		movs	r4, #0
 167 0008 24E0     		b	.L13
 168              	.LVL17:
 169              	.L16:
 171:Generated_Source\PSoC4/BLE_custom.c ****     {
 172:Generated_Source\PSoC4/BLE_custom.c ****         if(cyBle_customCServ[j].uuidFormat == CYBLE_GATT_128_BIT_UUID_FORMAT)
 170              		.loc 1 172 0
 171 000a 2500     		movs	r5, r4
 172 000c 2301     		lsls	r3, r4, #4
 173 000e 144A     		ldr	r2, .L17
 174 0010 D318     		adds	r3, r2, r3
 175 0012 1B7A     		ldrb	r3, [r3, #8]
 176 0014 022B     		cmp	r3, #2
 177 0016 1BD1     		bne	.L14
 173:Generated_Source\PSoC4/BLE_custom.c ****         {
 174:Generated_Source\PSoC4/BLE_custom.c ****             if(memcmp(cyBle_customCServ[j].uuid, &discServInfo->uuid.uuid128, CYBLE_GATT_128_BIT_UU
 178              		.loc 1 174 0
 179 0018 311D     		adds	r1, r6, #4
 180 001a 2301     		lsls	r3, r4, #4
 181 001c D318     		adds	r3, r2, r3
 182 001e 5868     		ldr	r0, [r3, #4]
 183 0020 1022     		movs	r2, #16
 184 0022 FFF7FEFF 		bl	memcmp
 185              	.LVL18:
 186 0026 0028     		cmp	r0, #0
 187 0028 12D1     		bne	.L14
 175:Generated_Source\PSoC4/BLE_custom.c ****             {
 176:Generated_Source\PSoC4/BLE_custom.c ****                 if(cyBle_serverInfo[j + (uint16)CYBLE_SRVI_CUSTOMS].range.startHandle == 
 188              		.loc 1 176 0
 189 002a 0235     		adds	r5, r5, #2
 190 002c 6B00     		lsls	r3, r5, #1
 191 002e 5B19     		adds	r3, r3, r5
 192 0030 5A00     		lsls	r2, r3, #1
 193 0032 0C4B     		ldr	r3, .L17+4
 194 0034 D35A     		ldrh	r3, [r2, r3]
 195 0036 002B     		cmp	r3, #0
 196 0038 0AD1     		bne	.L14
 177:Generated_Source\PSoC4/BLE_custom.c ****                    CYBLE_GATT_INVALID_ATTR_HANDLE_VALUE)
 178:Generated_Source\PSoC4/BLE_custom.c ****                 {
 179:Generated_Source\PSoC4/BLE_custom.c ****                     cyBle_serverInfo[j + (uint16)CYBLE_SRVI_CUSTOMS].range = discServInfo->range;
 197              		.loc 1 179 0
 198 003a 0A4B     		ldr	r3, .L17+4
 199 003c 9818     		adds	r0, r3, r2
 200 003e 0422     		movs	r2, #4
 201 0040 3100     		movs	r1, r6
 202 0042 FFF7FEFF 		bl	memcpy
 203              	.LVL19:
 180:Generated_Source\PSoC4/BLE_custom.c ****                     cyBle_disCount++;
 204              		.loc 1 180 0
 205 0046 084A     		ldr	r2, .L17+8
 206 0048 1378     		ldrb	r3, [r2]
 207 004a 0133     		adds	r3, r3, #1
 208 004c 1370     		strb	r3, [r2]
 209              	.LVL20:
 181:Generated_Source\PSoC4/BLE_custom.c ****                     flag = 1u;
 210              		.loc 1 181 0
 211 004e 0127     		movs	r7, #1
ARM GAS  C:\Users\Roi\AppData\Local\Temp\ccR3Zag1.s 			page 8


 212              	.LVL21:
 213              	.L14:
 170:Generated_Source\PSoC4/BLE_custom.c ****     {
 214              		.loc 1 170 0 discriminator 2
 215 0050 0134     		adds	r4, r4, #1
 216              	.LVL22:
 217 0052 A4B2     		uxth	r4, r4
 218              	.LVL23:
 219              	.L13:
 170:Generated_Source\PSoC4/BLE_custom.c ****     {
 220              		.loc 1 170 0 is_stmt 0 discriminator 1
 221 0054 002C     		cmp	r4, #0
 222 0056 01D1     		bne	.L12
 170:Generated_Source\PSoC4/BLE_custom.c ****     {
 223              		.loc 1 170 0 discriminator 3
 224 0058 002F     		cmp	r7, #0
 225 005a D6D0     		beq	.L16
 226              	.L12:
 182:Generated_Source\PSoC4/BLE_custom.c ****                 }
 183:Generated_Source\PSoC4/BLE_custom.c ****             }
 184:Generated_Source\PSoC4/BLE_custom.c ****         }
 185:Generated_Source\PSoC4/BLE_custom.c ****     }
 186:Generated_Source\PSoC4/BLE_custom.c **** }
 227              		.loc 1 186 0 is_stmt 1
 228              		@ sp needed
 229              	.LVL24:
 230              	.LVL25:
 231              	.LVL26:
 232 005c F8BD     		pop	{r3, r4, r5, r6, r7, pc}
 233              	.L18:
 234 005e C046     		.align	2
 235              	.L17:
 236 0060 00000000 		.word	.LANCHOR0
 237 0064 00000000 		.word	cyBle_serverInfo
 238 0068 00000000 		.word	cyBle_disCount
 239              		.cfi_endproc
 240              	.LFE3:
 241              		.size	CyBle_CustomcDiscoverServiceEventHandler, .-CyBle_CustomcDiscoverServiceEventHandler
 242              		.section	.text.CyBle_CustomcDiscoverCharacteristicsEventHandler,"ax",%progbits
 243              		.align	2
 244              		.global	CyBle_CustomcDiscoverCharacteristicsEventHandler
 245              		.code	16
 246              		.thumb_func
 247              		.type	CyBle_CustomcDiscoverCharacteristicsEventHandler, %function
 248              	CyBle_CustomcDiscoverCharacteristicsEventHandler:
 249              	.LFB4:
 187:Generated_Source\PSoC4/BLE_custom.c **** 
 188:Generated_Source\PSoC4/BLE_custom.c **** 
 189:Generated_Source\PSoC4/BLE_custom.c **** /******************************************************************************
 190:Generated_Source\PSoC4/BLE_custom.c **** * Function Name: CyBle_CustomcDiscoverCharacteristicsEventHandler
 191:Generated_Source\PSoC4/BLE_custom.c **** ***************************************************************************//**
 192:Generated_Source\PSoC4/BLE_custom.c **** * 
 193:Generated_Source\PSoC4/BLE_custom.c **** *  This function is called on receiving a CYBLE_EVT_GATTC_READ_BY_TYPE_RSP
 194:Generated_Source\PSoC4/BLE_custom.c **** *  event. Based on the service index, an appropriate data structure is populated
 195:Generated_Source\PSoC4/BLE_custom.c **** *  using the data received as part of the callback.
 196:Generated_Source\PSoC4/BLE_custom.c **** * 
 197:Generated_Source\PSoC4/BLE_custom.c **** *  \param *discCharInfo: The pointer to a characteristic information structure.
ARM GAS  C:\Users\Roi\AppData\Local\Temp\ccR3Zag1.s 			page 9


 198:Generated_Source\PSoC4/BLE_custom.c **** *  \param discoveryService: The index of the service instance.
 199:Generated_Source\PSoC4/BLE_custom.c **** * 
 200:Generated_Source\PSoC4/BLE_custom.c **** * \return
 201:Generated_Source\PSoC4/BLE_custom.c **** *  None
 202:Generated_Source\PSoC4/BLE_custom.c **** * 
 203:Generated_Source\PSoC4/BLE_custom.c **** ******************************************************************************/
 204:Generated_Source\PSoC4/BLE_custom.c **** void CyBle_CustomcDiscoverCharacteristicsEventHandler(uint16 discoveryService, const CYBLE_DISC_CHA
 205:Generated_Source\PSoC4/BLE_custom.c **** {
 250              		.loc 1 205 0
 251              		.cfi_startproc
 252              		@ args = 0, pretend = 0, frame = 0
 253              		@ frame_needed = 0, uses_anonymous_args = 0
 254              	.LVL27:
 255 0000 F8B5     		push	{r3, r4, r5, r6, r7, lr}
 256              		.cfi_def_cfa_offset 24
 257              		.cfi_offset 3, -24
 258              		.cfi_offset 4, -20
 259              		.cfi_offset 5, -16
 260              		.cfi_offset 6, -12
 261              		.cfi_offset 7, -8
 262              		.cfi_offset 14, -4
 263 0002 4F46     		mov	r7, r9
 264 0004 4646     		mov	r6, r8
 265 0006 C0B4     		push	{r6, r7}
 266              		.cfi_def_cfa_offset 32
 267              		.cfi_offset 8, -32
 268              		.cfi_offset 9, -28
 269 0008 0600     		movs	r6, r0
 270 000a 0F00     		movs	r7, r1
 271              	.LVL28:
 206:Generated_Source\PSoC4/BLE_custom.c ****     uint16 locCharIndex;
 207:Generated_Source\PSoC4/BLE_custom.c ****     static CYBLE_GATT_DB_ATTR_HANDLE_T *customsLastEndHandle = NULL;
 208:Generated_Source\PSoC4/BLE_custom.c ****     static uint16 discoveryLastServ = 0u;    
 209:Generated_Source\PSoC4/BLE_custom.c ****     uint8 locReqHandle = 0u;
 210:Generated_Source\PSoC4/BLE_custom.c **** 
 211:Generated_Source\PSoC4/BLE_custom.c ****     /* Update last characteristic endHandle to declaration handle of this characteristic */
 212:Generated_Source\PSoC4/BLE_custom.c ****     if(customsLastEndHandle != NULL)
 272              		.loc 1 212 0
 273 000c 3E4B     		ldr	r3, .L33
 274 000e 1B68     		ldr	r3, [r3]
 275 0010 002B     		cmp	r3, #0
 276 0012 09D0     		beq	.L20
 213:Generated_Source\PSoC4/BLE_custom.c ****     {
 214:Generated_Source\PSoC4/BLE_custom.c ****         if(discoveryLastServ == discoveryService)
 277              		.loc 1 214 0
 278 0014 3C4A     		ldr	r2, .L33
 279 0016 9288     		ldrh	r2, [r2, #4]
 280 0018 8242     		cmp	r2, r0
 281 001a 02D1     		bne	.L21
 215:Generated_Source\PSoC4/BLE_custom.c ****         {
 216:Generated_Source\PSoC4/BLE_custom.c ****             *customsLastEndHandle = discCharInfo->charDeclHandle - 1u;
 282              		.loc 1 216 0
 283 001c 0A88     		ldrh	r2, [r1]
 284 001e 013A     		subs	r2, r2, #1
 285 0020 1A80     		strh	r2, [r3]
 286              	.L21:
 217:Generated_Source\PSoC4/BLE_custom.c ****         }
ARM GAS  C:\Users\Roi\AppData\Local\Temp\ccR3Zag1.s 			page 10


 218:Generated_Source\PSoC4/BLE_custom.c ****         customsLastEndHandle = NULL;
 287              		.loc 1 218 0
 288 0022 0022     		movs	r2, #0
 289 0024 384B     		ldr	r3, .L33
 290 0026 1A60     		str	r2, [r3]
 291              	.L20:
 292              	.LBB2:
 219:Generated_Source\PSoC4/BLE_custom.c ****     }
 220:Generated_Source\PSoC4/BLE_custom.c ****     
 221:Generated_Source\PSoC4/BLE_custom.c ****     for(locCharIndex = 0u; (locCharIndex < cyBle_customCServ[discoveryService].charCount) && (locRe
 222:Generated_Source\PSoC4/BLE_custom.c ****         locCharIndex++)
 223:Generated_Source\PSoC4/BLE_custom.c ****     {
 224:Generated_Source\PSoC4/BLE_custom.c ****         uint8 flag = 0u;
 225:Generated_Source\PSoC4/BLE_custom.c ****         
 226:Generated_Source\PSoC4/BLE_custom.c ****         /* Support 128 bit uuid */
 227:Generated_Source\PSoC4/BLE_custom.c ****         if((discCharInfo->uuidFormat == CYBLE_GATT_128_BIT_UUID_FORMAT) &&
 228:Generated_Source\PSoC4/BLE_custom.c ****            (cyBle_customCServ[discoveryService].customServChar[locCharIndex].uuidFormat == 
 229:Generated_Source\PSoC4/BLE_custom.c ****                 CYBLE_GATT_128_BIT_UUID_FORMAT))
 230:Generated_Source\PSoC4/BLE_custom.c ****         {
 231:Generated_Source\PSoC4/BLE_custom.c ****             if(memcmp(cyBle_customCServ[discoveryService].customServChar[locCharIndex].uuid, 
 232:Generated_Source\PSoC4/BLE_custom.c ****                 &discCharInfo->uuid.uuid128, CYBLE_GATT_128_BIT_UUID_SIZE) == 0u)
 233:Generated_Source\PSoC4/BLE_custom.c ****             {
 234:Generated_Source\PSoC4/BLE_custom.c ****                 flag = 1u;
 235:Generated_Source\PSoC4/BLE_custom.c ****             }
 236:Generated_Source\PSoC4/BLE_custom.c ****         }
 237:Generated_Source\PSoC4/BLE_custom.c ****         
 238:Generated_Source\PSoC4/BLE_custom.c ****         /* And support 16 bit uuid */
 239:Generated_Source\PSoC4/BLE_custom.c ****         if((discCharInfo->uuidFormat == CYBLE_GATT_16_BIT_UUID_FORMAT) &&
 240:Generated_Source\PSoC4/BLE_custom.c ****            (cyBle_customCServ[discoveryService].customServChar[locCharIndex].uuidFormat == 
 241:Generated_Source\PSoC4/BLE_custom.c ****                 CYBLE_GATT_16_BIT_UUID_FORMAT))
 242:Generated_Source\PSoC4/BLE_custom.c ****         {
 243:Generated_Source\PSoC4/BLE_custom.c ****             if(memcmp(cyBle_customCServ[discoveryService].customServChar[locCharIndex].uuid, 
 244:Generated_Source\PSoC4/BLE_custom.c ****                 &discCharInfo->uuid.uuid16, CYBLE_GATT_16_BIT_UUID_SIZE) == 0u)
 245:Generated_Source\PSoC4/BLE_custom.c ****             {
 246:Generated_Source\PSoC4/BLE_custom.c ****                 flag = 1u;
 247:Generated_Source\PSoC4/BLE_custom.c ****             }
 248:Generated_Source\PSoC4/BLE_custom.c ****         }
 249:Generated_Source\PSoC4/BLE_custom.c ****         
 250:Generated_Source\PSoC4/BLE_custom.c ****         if((flag == 1u) && 
 251:Generated_Source\PSoC4/BLE_custom.c ****            (cyBle_customCServ[discoveryService].customServChar[locCharIndex].customServCharHandle
 252:Generated_Source\PSoC4/BLE_custom.c ****                 == CYBLE_GATT_INVALID_ATTR_HANDLE_VALUE))
 253:Generated_Source\PSoC4/BLE_custom.c ****         {
 254:Generated_Source\PSoC4/BLE_custom.c ****             cyBle_customCServ[discoveryService].customServChar[locCharIndex].customServCharHandle =
 255:Generated_Source\PSoC4/BLE_custom.c ****                 discCharInfo->valueHandle;
 256:Generated_Source\PSoC4/BLE_custom.c ****             cyBle_customCServ[discoveryService].customServChar[locCharIndex].properties = 
 257:Generated_Source\PSoC4/BLE_custom.c ****                 discCharInfo->properties;
 258:Generated_Source\PSoC4/BLE_custom.c ****             /* Init pointer to characteristic endHandle */
 259:Generated_Source\PSoC4/BLE_custom.c ****             customsLastEndHandle = &cyBle_customCServ[discoveryService].customServChar[locCharIndex
 260:Generated_Source\PSoC4/BLE_custom.c ****                                     customServCharEndHandle;
 261:Generated_Source\PSoC4/BLE_custom.c ****             /* Init service index of discovered characteristic */
 262:Generated_Source\PSoC4/BLE_custom.c ****             discoveryLastServ = discoveryService;
 263:Generated_Source\PSoC4/BLE_custom.c ****             locReqHandle = 1u;
 293              		.loc 1 263 0 discriminator 1
 294 0028 0023     		movs	r3, #0
 295 002a 9846     		mov	r8, r3
 296 002c 0024     		movs	r4, #0
 297 002e 50E0     		b	.L22
ARM GAS  C:\Users\Roi\AppData\Local\Temp\ccR3Zag1.s 			page 11


 298              	.LVL29:
 299              	.L27:
 227:Generated_Source\PSoC4/BLE_custom.c ****            (cyBle_customCServ[discoveryService].customServChar[locCharIndex].uuidFormat == 
 300              		.loc 1 227 0
 301 0030 BD7D     		ldrb	r5, [r7, #22]
 302 0032 022D     		cmp	r5, #2
 303 0034 12D1     		bne	.L29
 228:Generated_Source\PSoC4/BLE_custom.c ****                 CYBLE_GATT_128_BIT_UUID_FORMAT))
 304              		.loc 1 228 0 discriminator 1
 305 0036 3301     		lsls	r3, r6, #4
 306 0038 344A     		ldr	r2, .L33+4
 307 003a D318     		adds	r3, r2, r3
 308 003c DA68     		ldr	r2, [r3, #12]
 309 003e 2301     		lsls	r3, r4, #4
 310 0040 D318     		adds	r3, r2, r3
 311 0042 1A7A     		ldrb	r2, [r3, #8]
 227:Generated_Source\PSoC4/BLE_custom.c ****            (cyBle_customCServ[discoveryService].customServChar[locCharIndex].uuidFormat == 
 312              		.loc 1 227 0 discriminator 1
 313 0044 022A     		cmp	r2, #2
 314 0046 0CD1     		bne	.L30
 232:Generated_Source\PSoC4/BLE_custom.c ****             {
 315              		.loc 1 232 0
 316 0048 B91D     		adds	r1, r7, #6
 231:Generated_Source\PSoC4/BLE_custom.c ****                 &discCharInfo->uuid.uuid128, CYBLE_GATT_128_BIT_UUID_SIZE) == 0u)
 317              		.loc 1 231 0
 318 004a 5868     		ldr	r0, [r3, #4]
 319 004c 0E32     		adds	r2, r2, #14
 320 004e FFF7FEFF 		bl	memcmp
 321              	.LVL30:
 322 0052 0028     		cmp	r0, #0
 323 0054 08D0     		beq	.L31
 224:Generated_Source\PSoC4/BLE_custom.c ****         
 324              		.loc 1 224 0
 325 0056 0023     		movs	r3, #0
 326 0058 9946     		mov	r9, r3
 327 005a 07E0     		b	.L23
 328              	.L29:
 329 005c 0023     		movs	r3, #0
 330 005e 9946     		mov	r9, r3
 331 0060 04E0     		b	.L23
 332              	.L30:
 333 0062 0023     		movs	r3, #0
 334 0064 9946     		mov	r9, r3
 335 0066 01E0     		b	.L23
 336              	.L31:
 234:Generated_Source\PSoC4/BLE_custom.c ****             }
 337              		.loc 1 234 0
 338 0068 0123     		movs	r3, #1
 339 006a 9946     		mov	r9, r3
 340              	.L23:
 341              	.LVL31:
 239:Generated_Source\PSoC4/BLE_custom.c ****            (cyBle_customCServ[discoveryService].customServChar[locCharIndex].uuidFormat == 
 342              		.loc 1 239 0
 343 006c 012D     		cmp	r5, #1
 344 006e 11D1     		bne	.L24
 240:Generated_Source\PSoC4/BLE_custom.c ****                 CYBLE_GATT_16_BIT_UUID_FORMAT))
 345              		.loc 1 240 0 discriminator 1
ARM GAS  C:\Users\Roi\AppData\Local\Temp\ccR3Zag1.s 			page 12


 346 0070 3301     		lsls	r3, r6, #4
 347 0072 264A     		ldr	r2, .L33+4
 348 0074 D318     		adds	r3, r2, r3
 349 0076 DA68     		ldr	r2, [r3, #12]
 350 0078 2301     		lsls	r3, r4, #4
 351 007a D318     		adds	r3, r2, r3
 352 007c 1A7A     		ldrb	r2, [r3, #8]
 239:Generated_Source\PSoC4/BLE_custom.c ****            (cyBle_customCServ[discoveryService].customServChar[locCharIndex].uuidFormat == 
 353              		.loc 1 239 0 discriminator 1
 354 007e 012A     		cmp	r2, #1
 355 0080 08D1     		bne	.L24
 244:Generated_Source\PSoC4/BLE_custom.c ****             {
 356              		.loc 1 244 0
 357 0082 B91D     		adds	r1, r7, #6
 243:Generated_Source\PSoC4/BLE_custom.c ****                 &discCharInfo->uuid.uuid16, CYBLE_GATT_16_BIT_UUID_SIZE) == 0u)
 358              		.loc 1 243 0
 359 0084 5868     		ldr	r0, [r3, #4]
 360 0086 0132     		adds	r2, r2, #1
 361 0088 FFF7FEFF 		bl	memcmp
 362              	.LVL32:
 363 008c 0028     		cmp	r0, #0
 364 008e 01D1     		bne	.L24
 246:Generated_Source\PSoC4/BLE_custom.c ****             }
 365              		.loc 1 246 0
 366 0090 0123     		movs	r3, #1
 367 0092 9946     		mov	r9, r3
 368              	.LVL33:
 369              	.L24:
 250:Generated_Source\PSoC4/BLE_custom.c ****            (cyBle_customCServ[discoveryService].customServChar[locCharIndex].customServCharHandle
 370              		.loc 1 250 0
 371 0094 4B46     		mov	r3, r9
 372 0096 012B     		cmp	r3, #1
 373 0098 19D1     		bne	.L25
 251:Generated_Source\PSoC4/BLE_custom.c ****                 == CYBLE_GATT_INVALID_ATTR_HANDLE_VALUE))
 374              		.loc 1 251 0 discriminator 1
 375 009a 3301     		lsls	r3, r6, #4
 376 009c 1B4A     		ldr	r2, .L33+4
 377 009e D318     		adds	r3, r2, r3
 378 00a0 DA68     		ldr	r2, [r3, #12]
 379 00a2 2301     		lsls	r3, r4, #4
 380 00a4 D218     		adds	r2, r2, r3
 381 00a6 1188     		ldrh	r1, [r2]
 250:Generated_Source\PSoC4/BLE_custom.c ****            (cyBle_customCServ[discoveryService].customServChar[locCharIndex].customServCharHandle
 382              		.loc 1 250 0 discriminator 1
 383 00a8 0029     		cmp	r1, #0
 384 00aa 10D1     		bne	.L25
 255:Generated_Source\PSoC4/BLE_custom.c ****             cyBle_customCServ[discoveryService].customServChar[locCharIndex].properties = 
 385              		.loc 1 255 0
 386 00ac B988     		ldrh	r1, [r7, #4]
 254:Generated_Source\PSoC4/BLE_custom.c ****                 discCharInfo->valueHandle;
 387              		.loc 1 254 0
 388 00ae 1180     		strh	r1, [r2]
 256:Generated_Source\PSoC4/BLE_custom.c ****                 discCharInfo->properties;
 389              		.loc 1 256 0
 390 00b0 3101     		lsls	r1, r6, #4
 391 00b2 164A     		ldr	r2, .L33+4
 392 00b4 5218     		adds	r2, r2, r1
ARM GAS  C:\Users\Roi\AppData\Local\Temp\ccR3Zag1.s 			page 13


 393 00b6 D168     		ldr	r1, [r2, #12]
 394 00b8 C918     		adds	r1, r1, r3
 257:Generated_Source\PSoC4/BLE_custom.c ****             /* Init pointer to characteristic endHandle */
 395              		.loc 1 257 0
 396 00ba B878     		ldrb	r0, [r7, #2]
 256:Generated_Source\PSoC4/BLE_custom.c ****                 discCharInfo->properties;
 397              		.loc 1 256 0
 398 00bc 4872     		strb	r0, [r1, #9]
 259:Generated_Source\PSoC4/BLE_custom.c ****                                     customServCharEndHandle;
 399              		.loc 1 259 0
 400 00be D268     		ldr	r2, [r2, #12]
 401 00c0 D318     		adds	r3, r2, r3
 402 00c2 0233     		adds	r3, r3, #2
 403 00c4 104A     		ldr	r2, .L33
 404 00c6 1360     		str	r3, [r2]
 262:Generated_Source\PSoC4/BLE_custom.c ****             locReqHandle = 1u;
 405              		.loc 1 262 0
 406 00c8 9680     		strh	r6, [r2, #4]
 407              	.LVL34:
 408              		.loc 1 263 0
 409 00ca 0123     		movs	r3, #1
 410 00cc 9846     		mov	r8, r3
 411              	.LVL35:
 412              	.L25:
 413              	.LBE2:
 222:Generated_Source\PSoC4/BLE_custom.c ****     {
 414              		.loc 1 222 0
 415 00ce 0134     		adds	r4, r4, #1
 416              	.LVL36:
 417 00d0 A4B2     		uxth	r4, r4
 418              	.LVL37:
 419              	.L22:
 221:Generated_Source\PSoC4/BLE_custom.c ****         locCharIndex++)
 420              		.loc 1 221 0 discriminator 1
 421 00d2 3301     		lsls	r3, r6, #4
 422 00d4 0D4A     		ldr	r2, .L33+4
 423 00d6 D318     		adds	r3, r2, r3
 424 00d8 5B7A     		ldrb	r3, [r3, #9]
 425 00da 9C42     		cmp	r4, r3
 426 00dc 02D2     		bcs	.L26
 221:Generated_Source\PSoC4/BLE_custom.c ****         locCharIndex++)
 427              		.loc 1 221 0 is_stmt 0 discriminator 2
 428 00de 4346     		mov	r3, r8
 429 00e0 002B     		cmp	r3, #0
 430 00e2 A5D0     		beq	.L27
 431              	.L26:
 264:Generated_Source\PSoC4/BLE_custom.c ****         }
 265:Generated_Source\PSoC4/BLE_custom.c ****     }
 266:Generated_Source\PSoC4/BLE_custom.c ****     
 267:Generated_Source\PSoC4/BLE_custom.c ****     /* Init characteristic endHandle to Service endHandle.
 268:Generated_Source\PSoC4/BLE_custom.c ****        Characteristic endHandle will be updated to the declaration
 269:Generated_Source\PSoC4/BLE_custom.c ****        Handler of the following characteristic,
 270:Generated_Source\PSoC4/BLE_custom.c ****        in the following characteristic discovery procedure. */
 271:Generated_Source\PSoC4/BLE_custom.c ****     if(customsLastEndHandle != NULL)
 432              		.loc 1 271 0 is_stmt 1
 433 00e4 084B     		ldr	r3, .L33
 434 00e6 1968     		ldr	r1, [r3]
ARM GAS  C:\Users\Roi\AppData\Local\Temp\ccR3Zag1.s 			page 14


 435 00e8 0029     		cmp	r1, #0
 436 00ea 08D0     		beq	.L19
 272:Generated_Source\PSoC4/BLE_custom.c ****     {
 273:Generated_Source\PSoC4/BLE_custom.c ****         *customsLastEndHandle = cyBle_serverInfo[cyBle_disCount].range.endHandle;
 437              		.loc 1 273 0
 438 00ec 084B     		ldr	r3, .L33+8
 439 00ee 1B78     		ldrb	r3, [r3]
 440 00f0 5A00     		lsls	r2, r3, #1
 441 00f2 D318     		adds	r3, r2, r3
 442 00f4 5A00     		lsls	r2, r3, #1
 443 00f6 074B     		ldr	r3, .L33+12
 444 00f8 9A18     		adds	r2, r3, r2
 445 00fa 5388     		ldrh	r3, [r2, #2]
 446 00fc 0B80     		strh	r3, [r1]
 447              	.L19:
 274:Generated_Source\PSoC4/BLE_custom.c ****     }
 275:Generated_Source\PSoC4/BLE_custom.c **** }
 448              		.loc 1 275 0
 449              		@ sp needed
 450              	.LVL38:
 451              	.LVL39:
 452              	.LVL40:
 453 00fe 0CBC     		pop	{r2, r3}
 454 0100 9046     		mov	r8, r2
 455 0102 9946     		mov	r9, r3
 456 0104 F8BD     		pop	{r3, r4, r5, r6, r7, pc}
 457              	.L34:
 458 0106 C046     		.align	2
 459              	.L33:
 460 0108 00000000 		.word	.LANCHOR1
 461 010c 00000000 		.word	.LANCHOR0
 462 0110 00000000 		.word	cyBle_disCount
 463 0114 00000000 		.word	cyBle_serverInfo
 464              		.cfi_endproc
 465              	.LFE4:
 466              		.size	CyBle_CustomcDiscoverCharacteristicsEventHandler, .-CyBle_CustomcDiscoverCharacteristicsEven
 467              		.section	.text.CyBle_CustomcGetCharRange,"ax",%progbits
 468              		.align	2
 469              		.global	CyBle_CustomcGetCharRange
 470              		.code	16
 471              		.thumb_func
 472              		.type	CyBle_CustomcGetCharRange, %function
 473              	CyBle_CustomcGetCharRange:
 474              	.LFB5:
 276:Generated_Source\PSoC4/BLE_custom.c **** 
 277:Generated_Source\PSoC4/BLE_custom.c **** 
 278:Generated_Source\PSoC4/BLE_custom.c **** /****************************************************************************** 
 279:Generated_Source\PSoC4/BLE_custom.c **** * Function Name: CyBle_GetCustomCharRange
 280:Generated_Source\PSoC4/BLE_custom.c **** ***************************************************************************//**
 281:Generated_Source\PSoC4/BLE_custom.c **** * 
 282:Generated_Source\PSoC4/BLE_custom.c **** *  Returns a possible range of the current characteristic descriptor
 283:Generated_Source\PSoC4/BLE_custom.c **** *  which is pointed by custom service and char index.
 284:Generated_Source\PSoC4/BLE_custom.c **** * 
 285:Generated_Source\PSoC4/BLE_custom.c **** *  \param incrementIndex: Not zero value indicates that service and characteristic index
 286:Generated_Source\PSoC4/BLE_custom.c **** *                  should be incremented.
 287:Generated_Source\PSoC4/BLE_custom.c **** * \return
 288:Generated_Source\PSoC4/BLE_custom.c **** *  CYBLE_GATT_ATTR_HANDLE_RANGE_T range: the block of start and end handles.
ARM GAS  C:\Users\Roi\AppData\Local\Temp\ccR3Zag1.s 			page 15


 289:Generated_Source\PSoC4/BLE_custom.c **** * 
 290:Generated_Source\PSoC4/BLE_custom.c **** ******************************************************************************/
 291:Generated_Source\PSoC4/BLE_custom.c **** CYBLE_GATT_ATTR_HANDLE_RANGE_T CyBle_CustomcGetCharRange(uint8 incrementIndex)
 292:Generated_Source\PSoC4/BLE_custom.c **** {
 475              		.loc 1 292 0
 476              		.cfi_startproc
 477              		@ args = 0, pretend = 0, frame = 8
 478              		@ frame_needed = 0, uses_anonymous_args = 0
 479              	.LVL41:
 480 0000 30B5     		push	{r4, r5, lr}
 481              		.cfi_def_cfa_offset 12
 482              		.cfi_offset 4, -12
 483              		.cfi_offset 5, -8
 484              		.cfi_offset 14, -4
 485 0002 83B0     		sub	sp, sp, #12
 486              		.cfi_def_cfa_offset 24
 293:Generated_Source\PSoC4/BLE_custom.c ****     CYBLE_GATT_ATTR_HANDLE_RANGE_T charRange = {CYBLE_GATT_INVALID_ATTR_HANDLE_VALUE, CYBLE_GATT_IN
 487              		.loc 1 293 0
 488 0004 0023     		movs	r3, #0
 489 0006 6A46     		mov	r2, sp
 490 0008 1380     		strh	r3, [r2]
 491 000a 5380     		strh	r3, [r2, #2]
 492              	.L43:
 294:Generated_Source\PSoC4/BLE_custom.c **** 
 295:Generated_Source\PSoC4/BLE_custom.c ****     do{
 296:Generated_Source\PSoC4/BLE_custom.c ****         if(incrementIndex != CYBLE_DISCOVERY_INIT)
 493              		.loc 1 296 0
 494 000c 0028     		cmp	r0, #0
 495 000e 1CD0     		beq	.L36
 297:Generated_Source\PSoC4/BLE_custom.c ****         {
 298:Generated_Source\PSoC4/BLE_custom.c ****             if((cyBle_customDisCharIndex + 1u) < cyBle_customCServ[cyBle_customDisServIndex].charCo
 496              		.loc 1 298 0
 497 0010 284A     		ldr	r2, .L44
 498 0012 D388     		ldrh	r3, [r2, #6]
 499 0014 5C1C     		adds	r4, r3, #1
 500 0016 1189     		ldrh	r1, [r2, #8]
 501 0018 0A01     		lsls	r2, r1, #4
 502 001a 274D     		ldr	r5, .L44+4
 503 001c AA18     		adds	r2, r5, r2
 504 001e 527A     		ldrb	r2, [r2, #9]
 505 0020 9442     		cmp	r4, r2
 506 0022 02D2     		bcs	.L37
 299:Generated_Source\PSoC4/BLE_custom.c ****             {
 300:Generated_Source\PSoC4/BLE_custom.c ****                 cyBle_customDisCharIndex++;
 507              		.loc 1 300 0
 508 0024 234A     		ldr	r2, .L44
 509 0026 D480     		strh	r4, [r2, #6]
 510 0028 14E0     		b	.L38
 511              	.L37:
 301:Generated_Source\PSoC4/BLE_custom.c ****             }
 302:Generated_Source\PSoC4/BLE_custom.c ****             else 
 303:Generated_Source\PSoC4/BLE_custom.c ****             {
 304:Generated_Source\PSoC4/BLE_custom.c ****                 if((cyBle_customDisServIndex + 1u) < CYBLE_CUSTOMC_SERVICE_COUNT)
 512              		.loc 1 304 0
 513 002a 4A1C     		adds	r2, r1, #1
 514 002c 05D1     		bne	.L39
 305:Generated_Source\PSoC4/BLE_custom.c ****                 {
ARM GAS  C:\Users\Roi\AppData\Local\Temp\ccR3Zag1.s 			page 16


 306:Generated_Source\PSoC4/BLE_custom.c ****                     cyBle_customDisServIndex++;      /* Discover descriptors for next custom servic
 515              		.loc 1 306 0
 516 002e 214B     		ldr	r3, .L44
 517 0030 0131     		adds	r1, r1, #1
 518 0032 1981     		strh	r1, [r3, #8]
 307:Generated_Source\PSoC4/BLE_custom.c ****                     /* Set characteristic index to first characteristic of custom service */
 308:Generated_Source\PSoC4/BLE_custom.c ****                     cyBle_customDisCharIndex = 0u;
 519              		.loc 1 308 0
 520 0034 0022     		movs	r2, #0
 521 0036 DA80     		strh	r2, [r3, #6]
 522 0038 0CE0     		b	.L38
 523              	.L39:
 309:Generated_Source\PSoC4/BLE_custom.c ****                 }
 310:Generated_Source\PSoC4/BLE_custom.c ****                 else /* Increment general discovery index when custom characteristic discovery is d
 311:Generated_Source\PSoC4/BLE_custom.c ****                 {
 312:Generated_Source\PSoC4/BLE_custom.c ****                     cyBle_disCount++;  
 524              		.loc 1 312 0
 525 003a 2049     		ldr	r1, .L44+8
 526 003c 0A78     		ldrb	r2, [r1]
 527 003e 0132     		adds	r2, r2, #1
 528 0040 0A70     		strb	r2, [r1]
 313:Generated_Source\PSoC4/BLE_custom.c ****                     cyBle_customDisCharIndex++;
 529              		.loc 1 313 0
 530 0042 0133     		adds	r3, r3, #1
 531 0044 1B4A     		ldr	r2, .L44
 532 0046 D380     		strh	r3, [r2, #6]
 533 0048 04E0     		b	.L38
 534              	.L36:
 314:Generated_Source\PSoC4/BLE_custom.c ****                 }
 315:Generated_Source\PSoC4/BLE_custom.c ****             }
 316:Generated_Source\PSoC4/BLE_custom.c ****         }
 317:Generated_Source\PSoC4/BLE_custom.c ****         else    /* Increment indexes in the following loop */
 318:Generated_Source\PSoC4/BLE_custom.c ****         {
 319:Generated_Source\PSoC4/BLE_custom.c ****             cyBle_customDisServIndex = 0u;
 535              		.loc 1 319 0
 536 004a 1A4B     		ldr	r3, .L44
 537 004c 0022     		movs	r2, #0
 538 004e 1A81     		strh	r2, [r3, #8]
 320:Generated_Source\PSoC4/BLE_custom.c ****             cyBle_customDisCharIndex = 0u;
 539              		.loc 1 320 0
 540 0050 DA80     		strh	r2, [r3, #6]
 541              	.LVL42:
 321:Generated_Source\PSoC4/BLE_custom.c ****             incrementIndex = 1u;
 542              		.loc 1 321 0
 543 0052 0120     		movs	r0, #1
 544              	.LVL43:
 545              	.L38:
 322:Generated_Source\PSoC4/BLE_custom.c ****         }            
 323:Generated_Source\PSoC4/BLE_custom.c ****         /* Read characteristic range */
 324:Generated_Source\PSoC4/BLE_custom.c ****         if(cyBle_customDisCharIndex < (cyBle_customCServ[cyBle_customDisServIndex].charCount))
 546              		.loc 1 324 0
 547 0054 1749     		ldr	r1, .L44
 548 0056 0B89     		ldrh	r3, [r1, #8]
 549 0058 1A01     		lsls	r2, r3, #4
 550 005a 174C     		ldr	r4, .L44+4
 551 005c A218     		adds	r2, r4, r2
 552 005e 547A     		ldrb	r4, [r2, #9]
ARM GAS  C:\Users\Roi\AppData\Local\Temp\ccR3Zag1.s 			page 17


 553 0060 CA88     		ldrh	r2, [r1, #6]
 554 0062 9442     		cmp	r4, r2
 555 0064 0BD9     		bls	.L40
 325:Generated_Source\PSoC4/BLE_custom.c ****         {
 326:Generated_Source\PSoC4/BLE_custom.c ****             charRange.startHandle = cyBle_customCServ[cyBle_customDisServIndex].
 556              		.loc 1 326 0
 557 0066 1B01     		lsls	r3, r3, #4
 558 0068 1349     		ldr	r1, .L44+4
 559 006a CB18     		adds	r3, r1, r3
 560 006c D968     		ldr	r1, [r3, #12]
 327:Generated_Source\PSoC4/BLE_custom.c ****                                 customServChar[cyBle_customDisCharIndex].customServCharHandle + 1u;
 561              		.loc 1 327 0
 562 006e 1301     		lsls	r3, r2, #4
 563 0070 CB18     		adds	r3, r1, r3
 564 0072 1988     		ldrh	r1, [r3]
 326:Generated_Source\PSoC4/BLE_custom.c ****                                 customServChar[cyBle_customDisCharIndex].customServCharHandle + 1u;
 565              		.loc 1 326 0
 566 0074 0131     		adds	r1, r1, #1
 567 0076 6D46     		mov	r5, sp
 568 0078 2980     		strh	r1, [r5]
 328:Generated_Source\PSoC4/BLE_custom.c ****             charRange.endHandle = cyBle_customCServ[cyBle_customDisServIndex].
 329:Generated_Source\PSoC4/BLE_custom.c ****                                 customServChar[cyBle_customDisCharIndex].customServCharEndHandle;
 569              		.loc 1 329 0
 570 007a 5B88     		ldrh	r3, [r3, #2]
 328:Generated_Source\PSoC4/BLE_custom.c ****             charRange.endHandle = cyBle_customCServ[cyBle_customDisServIndex].
 571              		.loc 1 328 0
 572 007c 6B80     		strh	r3, [r5, #2]
 573              	.L40:
 330:Generated_Source\PSoC4/BLE_custom.c ****         }
 331:Generated_Source\PSoC4/BLE_custom.c ****     }while(((charRange.startHandle <= cyBle_gattcDiscoveryRange.startHandle) || 
 574              		.loc 1 331 0
 575 007e 6B46     		mov	r3, sp
 576 0080 1B88     		ldrh	r3, [r3]
 577 0082 0F49     		ldr	r1, .L44+12
 578 0084 0988     		ldrh	r1, [r1]
 332:Generated_Source\PSoC4/BLE_custom.c ****             (charRange.startHandle > cyBle_gattcDiscoveryRange.endHandle) ||
 333:Generated_Source\PSoC4/BLE_custom.c ****             (charRange.endHandle < cyBle_gattcDiscoveryRange.startHandle) ||
 334:Generated_Source\PSoC4/BLE_custom.c ****             (charRange.startHandle > charRange.endHandle)) && 
 335:Generated_Source\PSoC4/BLE_custom.c ****             (cyBle_customDisCharIndex < cyBle_customCServ[cyBle_customDisServIndex].charCount));
 579              		.loc 1 335 0
 580 0086 8B42     		cmp	r3, r1
 581 0088 09D9     		bls	.L41
 332:Generated_Source\PSoC4/BLE_custom.c ****             (charRange.startHandle > cyBle_gattcDiscoveryRange.endHandle) ||
 582              		.loc 1 332 0
 583 008a 0D4D     		ldr	r5, .L44+12
 584 008c 6D88     		ldrh	r5, [r5, #2]
 331:Generated_Source\PSoC4/BLE_custom.c ****             (charRange.startHandle > cyBle_gattcDiscoveryRange.endHandle) ||
 585              		.loc 1 331 0
 586 008e AB42     		cmp	r3, r5
 587 0090 05D8     		bhi	.L41
 333:Generated_Source\PSoC4/BLE_custom.c ****             (charRange.startHandle > charRange.endHandle)) && 
 588              		.loc 1 333 0
 589 0092 6D46     		mov	r5, sp
 590 0094 6D88     		ldrh	r5, [r5, #2]
 332:Generated_Source\PSoC4/BLE_custom.c ****             (charRange.startHandle > cyBle_gattcDiscoveryRange.endHandle) ||
 591              		.loc 1 332 0
 592 0096 A942     		cmp	r1, r5
ARM GAS  C:\Users\Roi\AppData\Local\Temp\ccR3Zag1.s 			page 18


 593 0098 01D8     		bhi	.L41
 333:Generated_Source\PSoC4/BLE_custom.c ****             (charRange.startHandle > charRange.endHandle)) && 
 594              		.loc 1 333 0
 595 009a AB42     		cmp	r3, r5
 596 009c 01D9     		bls	.L42
 597              	.L41:
 334:Generated_Source\PSoC4/BLE_custom.c ****             (cyBle_customDisCharIndex < cyBle_customCServ[cyBle_customDisServIndex].charCount));
 598              		.loc 1 334 0 discriminator 1
 599 009e 9442     		cmp	r4, r2
 600 00a0 B4D8     		bhi	.L43
 601              	.L42:
 336:Generated_Source\PSoC4/BLE_custom.c ****     
 337:Generated_Source\PSoC4/BLE_custom.c ****     return(charRange);
 602              		.loc 1 337 0
 603 00a2 009B     		ldr	r3, [sp]
 604 00a4 180C     		lsrs	r0, r3, #16
 605              	.LVL44:
 606 00a6 0004     		lsls	r0, r0, #16
 607 00a8 1B04     		lsls	r3, r3, #16
 608 00aa 1B0C     		lsrs	r3, r3, #16
 609 00ac 1843     		orrs	r0, r3
 338:Generated_Source\PSoC4/BLE_custom.c **** }
 610              		.loc 1 338 0
 611 00ae 03B0     		add	sp, sp, #12
 612              		@ sp needed
 613 00b0 30BD     		pop	{r4, r5, pc}
 614              	.L45:
 615 00b2 C046     		.align	2
 616              	.L44:
 617 00b4 00000000 		.word	.LANCHOR1
 618 00b8 00000000 		.word	.LANCHOR0
 619 00bc 00000000 		.word	cyBle_disCount
 620 00c0 00000000 		.word	cyBle_gattcDiscoveryRange
 621              		.cfi_endproc
 622              	.LFE5:
 623              		.size	CyBle_CustomcGetCharRange, .-CyBle_CustomcGetCharRange
 624              		.section	.text.CyBle_CustomcDiscoverCharDescriptorsEventHandler,"ax",%progbits
 625              		.align	2
 626              		.global	CyBle_CustomcDiscoverCharDescriptorsEventHandler
 627              		.code	16
 628              		.thumb_func
 629              		.type	CyBle_CustomcDiscoverCharDescriptorsEventHandler, %function
 630              	CyBle_CustomcDiscoverCharDescriptorsEventHandler:
 631              	.LFB6:
 339:Generated_Source\PSoC4/BLE_custom.c **** 
 340:Generated_Source\PSoC4/BLE_custom.c **** 
 341:Generated_Source\PSoC4/BLE_custom.c **** /******************************************************************************
 342:Generated_Source\PSoC4/BLE_custom.c **** * Function Name: CyBle_CustomcDiscoverCharDescriptorsEventHandler
 343:Generated_Source\PSoC4/BLE_custom.c **** ***************************************************************************//**
 344:Generated_Source\PSoC4/BLE_custom.c **** * 
 345:Generated_Source\PSoC4/BLE_custom.c **** *  This function is called on receiving a CYBLE_EVT_GATTC_FIND_INFO_RSP event.
 346:Generated_Source\PSoC4/BLE_custom.c **** *  Based on the descriptor UUID, an appropriate data structure is populated using
 347:Generated_Source\PSoC4/BLE_custom.c **** *  the data received as part of the callback.
 348:Generated_Source\PSoC4/BLE_custom.c **** * 
 349:Generated_Source\PSoC4/BLE_custom.c **** *  \param *discDescrInfo: The pointer to a descriptor information structure.
 350:Generated_Source\PSoC4/BLE_custom.c **** * 
 351:Generated_Source\PSoC4/BLE_custom.c **** * \return
ARM GAS  C:\Users\Roi\AppData\Local\Temp\ccR3Zag1.s 			page 19


 352:Generated_Source\PSoC4/BLE_custom.c **** *  None
 353:Generated_Source\PSoC4/BLE_custom.c **** * 
 354:Generated_Source\PSoC4/BLE_custom.c **** ******************************************************************************/
 355:Generated_Source\PSoC4/BLE_custom.c **** void CyBle_CustomcDiscoverCharDescriptorsEventHandler(const CYBLE_DISC_DESCR_INFO_T *discDescrInfo)
 356:Generated_Source\PSoC4/BLE_custom.c **** {
 632              		.loc 1 356 0
 633              		.cfi_startproc
 634              		@ args = 0, pretend = 0, frame = 0
 635              		@ frame_needed = 0, uses_anonymous_args = 0
 636              	.LVL45:
 637 0000 F8B5     		push	{r3, r4, r5, r6, r7, lr}
 638              		.cfi_def_cfa_offset 24
 639              		.cfi_offset 3, -24
 640              		.cfi_offset 4, -20
 641              		.cfi_offset 5, -16
 642              		.cfi_offset 6, -12
 643              		.cfi_offset 7, -8
 644              		.cfi_offset 14, -4
 645 0002 4F46     		mov	r7, r9
 646 0004 4646     		mov	r6, r8
 647 0006 C0B4     		push	{r6, r7}
 648              		.cfi_def_cfa_offset 32
 649              		.cfi_offset 8, -32
 650              		.cfi_offset 9, -28
 651 0008 0600     		movs	r6, r0
 652              	.LVL46:
 357:Generated_Source\PSoC4/BLE_custom.c ****     uint8 locDescIndex;
 358:Generated_Source\PSoC4/BLE_custom.c ****     uint8 locReqHandle = 0u;
 653              		.loc 1 358 0
 654 000a 0023     		movs	r3, #0
 655 000c 9846     		mov	r8, r3
 359:Generated_Source\PSoC4/BLE_custom.c **** 
 360:Generated_Source\PSoC4/BLE_custom.c ****     for(locDescIndex = 0u; (locDescIndex < cyBle_customCServ[cyBle_customDisServIndex].
 656              		.loc 1 360 0
 657 000e 0025     		movs	r5, #0
 658 0010 42E0     		b	.L47
 659              	.LVL47:
 660              	.L52:
 661              	.LBB3:
 361:Generated_Source\PSoC4/BLE_custom.c ****           customServChar[cyBle_customDisCharIndex].descCount) && (locReqHandle == 0u); locDescIndex
 362:Generated_Source\PSoC4/BLE_custom.c ****     {
 363:Generated_Source\PSoC4/BLE_custom.c ****         uint8 flag = 0u;
 364:Generated_Source\PSoC4/BLE_custom.c ****         
 365:Generated_Source\PSoC4/BLE_custom.c ****         if((discDescrInfo->uuidFormat == CYBLE_GATT_128_BIT_UUID_FORMAT) &&
 662              		.loc 1 365 0
 663 0012 377D     		ldrb	r7, [r6, #20]
 664 0014 022F     		cmp	r7, #2
 665 0016 12D1     		bne	.L53
 366:Generated_Source\PSoC4/BLE_custom.c ****            (cyBle_customCServ[cyBle_customDisServIndex].customServChar[cyBle_customDisCharIndex].
 367:Generated_Source\PSoC4/BLE_custom.c ****              customServCharDesc[locDescIndex].uuidFormat == CYBLE_GATT_128_BIT_UUID_FORMAT))
 666              		.loc 1 367 0 discriminator 1
 667 0018 6A00     		lsls	r2, r5, #1
 668 001a 5219     		adds	r2, r2, r5
 669 001c 9300     		lsls	r3, r2, #2
 670 001e E268     		ldr	r2, [r4, #12]
 671 0020 9446     		mov	ip, r2
 672 0022 6344     		add	r3, r3, ip
ARM GAS  C:\Users\Roi\AppData\Local\Temp\ccR3Zag1.s 			page 20


 673 0024 1A7A     		ldrb	r2, [r3, #8]
 365:Generated_Source\PSoC4/BLE_custom.c ****            (cyBle_customCServ[cyBle_customDisServIndex].customServChar[cyBle_customDisCharIndex].
 674              		.loc 1 365 0 discriminator 1
 675 0026 022A     		cmp	r2, #2
 676 0028 0CD1     		bne	.L54
 368:Generated_Source\PSoC4/BLE_custom.c ****         {
 369:Generated_Source\PSoC4/BLE_custom.c ****             if(memcmp(cyBle_customCServ[cyBle_customDisServIndex].
 370:Generated_Source\PSoC4/BLE_custom.c ****                 customServChar[cyBle_customDisCharIndex].customServCharDesc[locDescIndex].uuid, 
 371:Generated_Source\PSoC4/BLE_custom.c ****                 &discDescrInfo->uuid.uuid128, CYBLE_GATT_128_BIT_UUID_SIZE) == 0u)
 677              		.loc 1 371 0
 678 002a 311D     		adds	r1, r6, #4
 369:Generated_Source\PSoC4/BLE_custom.c ****                 customServChar[cyBle_customDisCharIndex].customServCharDesc[locDescIndex].uuid, 
 679              		.loc 1 369 0
 680 002c 5868     		ldr	r0, [r3, #4]
 681 002e 0E32     		adds	r2, r2, #14
 682 0030 FFF7FEFF 		bl	memcmp
 683              	.LVL48:
 684 0034 0028     		cmp	r0, #0
 685 0036 08D0     		beq	.L55
 363:Generated_Source\PSoC4/BLE_custom.c ****         
 686              		.loc 1 363 0
 687 0038 0023     		movs	r3, #0
 688 003a 9946     		mov	r9, r3
 689 003c 07E0     		b	.L48
 690              	.L53:
 691 003e 0023     		movs	r3, #0
 692 0040 9946     		mov	r9, r3
 693 0042 04E0     		b	.L48
 694              	.L54:
 695 0044 0023     		movs	r3, #0
 696 0046 9946     		mov	r9, r3
 697 0048 01E0     		b	.L48
 698              	.L55:
 372:Generated_Source\PSoC4/BLE_custom.c ****             {
 373:Generated_Source\PSoC4/BLE_custom.c ****                 flag = 1u;
 699              		.loc 1 373 0
 700 004a 0123     		movs	r3, #1
 701 004c 9946     		mov	r9, r3
 702              	.L48:
 703              	.LVL49:
 374:Generated_Source\PSoC4/BLE_custom.c ****             }
 375:Generated_Source\PSoC4/BLE_custom.c ****         }
 376:Generated_Source\PSoC4/BLE_custom.c ****         
 377:Generated_Source\PSoC4/BLE_custom.c ****         if((discDescrInfo->uuidFormat == CYBLE_GATT_16_BIT_UUID_FORMAT) &&
 704              		.loc 1 377 0
 705 004e 012F     		cmp	r7, #1
 706 0050 11D1     		bne	.L49
 378:Generated_Source\PSoC4/BLE_custom.c ****            (cyBle_customCServ[cyBle_customDisServIndex].customServChar[cyBle_customDisCharIndex].
 379:Generated_Source\PSoC4/BLE_custom.c ****              customServCharDesc[locDescIndex].uuidFormat == CYBLE_GATT_16_BIT_UUID_FORMAT))
 707              		.loc 1 379 0 discriminator 1
 708 0052 6A00     		lsls	r2, r5, #1
 709 0054 5219     		adds	r2, r2, r5
 710 0056 9300     		lsls	r3, r2, #2
 711 0058 E268     		ldr	r2, [r4, #12]
 712 005a 9446     		mov	ip, r2
 713 005c 6344     		add	r3, r3, ip
 714 005e 1A7A     		ldrb	r2, [r3, #8]
ARM GAS  C:\Users\Roi\AppData\Local\Temp\ccR3Zag1.s 			page 21


 377:Generated_Source\PSoC4/BLE_custom.c ****            (cyBle_customCServ[cyBle_customDisServIndex].customServChar[cyBle_customDisCharIndex].
 715              		.loc 1 377 0 discriminator 1
 716 0060 012A     		cmp	r2, #1
 717 0062 08D1     		bne	.L49
 380:Generated_Source\PSoC4/BLE_custom.c ****         {
 381:Generated_Source\PSoC4/BLE_custom.c ****             if(memcmp(cyBle_customCServ[cyBle_customDisServIndex].
 382:Generated_Source\PSoC4/BLE_custom.c ****                 customServChar[cyBle_customDisCharIndex].customServCharDesc[locDescIndex].uuid, 
 383:Generated_Source\PSoC4/BLE_custom.c ****                 &discDescrInfo->uuid.uuid16, CYBLE_GATT_16_BIT_UUID_SIZE) == 0u)
 718              		.loc 1 383 0
 719 0064 311D     		adds	r1, r6, #4
 381:Generated_Source\PSoC4/BLE_custom.c ****                 customServChar[cyBle_customDisCharIndex].customServCharDesc[locDescIndex].uuid, 
 720              		.loc 1 381 0
 721 0066 5868     		ldr	r0, [r3, #4]
 722 0068 0132     		adds	r2, r2, #1
 723 006a FFF7FEFF 		bl	memcmp
 724              	.LVL50:
 725 006e 0028     		cmp	r0, #0
 726 0070 01D1     		bne	.L49
 384:Generated_Source\PSoC4/BLE_custom.c ****             {
 385:Generated_Source\PSoC4/BLE_custom.c ****                 flag = 1u;
 727              		.loc 1 385 0
 728 0072 0123     		movs	r3, #1
 729 0074 9946     		mov	r9, r3
 730              	.LVL51:
 731              	.L49:
 386:Generated_Source\PSoC4/BLE_custom.c ****             }
 387:Generated_Source\PSoC4/BLE_custom.c ****         }
 388:Generated_Source\PSoC4/BLE_custom.c ****         
 389:Generated_Source\PSoC4/BLE_custom.c ****         if((flag == 1u) && 
 732              		.loc 1 389 0
 733 0076 4B46     		mov	r3, r9
 734 0078 012B     		cmp	r3, #1
 735 007a 0BD1     		bne	.L50
 390:Generated_Source\PSoC4/BLE_custom.c ****            (cyBle_customCServ[cyBle_customDisServIndex].customServChar[cyBle_customDisCharIndex].
 736              		.loc 1 390 0 discriminator 1
 737 007c E168     		ldr	r1, [r4, #12]
 391:Generated_Source\PSoC4/BLE_custom.c ****                customServCharDesc[locDescIndex].descHandle == CYBLE_GATT_INVALID_ATTR_HANDLE_VALUE)
 738              		.loc 1 391 0 discriminator 1
 739 007e 6A00     		lsls	r2, r5, #1
 740 0080 5219     		adds	r2, r2, r5
 741 0082 9300     		lsls	r3, r2, #2
 742 0084 CB18     		adds	r3, r1, r3
 743 0086 1A88     		ldrh	r2, [r3]
 389:Generated_Source\PSoC4/BLE_custom.c ****            (cyBle_customCServ[cyBle_customDisServIndex].customServChar[cyBle_customDisCharIndex].
 744              		.loc 1 389 0 discriminator 1
 745 0088 002A     		cmp	r2, #0
 746 008a 03D1     		bne	.L50
 392:Generated_Source\PSoC4/BLE_custom.c ****         {
 393:Generated_Source\PSoC4/BLE_custom.c ****             cyBle_customCServ[cyBle_customDisServIndex].customServChar[cyBle_customDisCharIndex].
 394:Generated_Source\PSoC4/BLE_custom.c ****                 customServCharDesc[locDescIndex].descHandle = discDescrInfo->descrHandle;
 747              		.loc 1 394 0
 748 008c 7288     		ldrh	r2, [r6, #2]
 749 008e 1A80     		strh	r2, [r3]
 750              	.LVL52:
 395:Generated_Source\PSoC4/BLE_custom.c ****             locReqHandle = 1u;
 751              		.loc 1 395 0
 752 0090 0123     		movs	r3, #1
ARM GAS  C:\Users\Roi\AppData\Local\Temp\ccR3Zag1.s 			page 22


 753 0092 9846     		mov	r8, r3
 754              	.LVL53:
 755              	.L50:
 756              	.LBE3:
 361:Generated_Source\PSoC4/BLE_custom.c ****     {
 757              		.loc 1 361 0
 758 0094 0135     		adds	r5, r5, #1
 759              	.LVL54:
 760 0096 EDB2     		uxtb	r5, r5
 761              	.LVL55:
 762              	.L47:
 360:Generated_Source\PSoC4/BLE_custom.c ****           customServChar[cyBle_customDisCharIndex].descCount) && (locReqHandle == 0u); locDescIndex
 763              		.loc 1 360 0 discriminator 1
 764 0098 094A     		ldr	r2, .L57
 765 009a 1389     		ldrh	r3, [r2, #8]
 766 009c 1B01     		lsls	r3, r3, #4
 767 009e 0949     		ldr	r1, .L57+4
 768 00a0 CB18     		adds	r3, r1, r3
 769 00a2 DB68     		ldr	r3, [r3, #12]
 361:Generated_Source\PSoC4/BLE_custom.c ****     {
 770              		.loc 1 361 0 discriminator 1
 771 00a4 D488     		ldrh	r4, [r2, #6]
 772 00a6 2401     		lsls	r4, r4, #4
 773 00a8 1C19     		adds	r4, r3, r4
 774 00aa A37A     		ldrb	r3, [r4, #10]
 360:Generated_Source\PSoC4/BLE_custom.c ****           customServChar[cyBle_customDisCharIndex].descCount) && (locReqHandle == 0u); locDescIndex
 775              		.loc 1 360 0 discriminator 1
 776 00ac 9D42     		cmp	r5, r3
 777 00ae 02D2     		bcs	.L46
 361:Generated_Source\PSoC4/BLE_custom.c ****     {
 778              		.loc 1 361 0
 779 00b0 4346     		mov	r3, r8
 780 00b2 002B     		cmp	r3, #0
 781 00b4 ADD0     		beq	.L52
 782              	.L46:
 396:Generated_Source\PSoC4/BLE_custom.c ****         }
 397:Generated_Source\PSoC4/BLE_custom.c ****     }
 398:Generated_Source\PSoC4/BLE_custom.c **** }
 783              		.loc 1 398 0
 784              		@ sp needed
 785              	.LVL56:
 786              	.LVL57:
 787              	.LVL58:
 788 00b6 0CBC     		pop	{r2, r3}
 789 00b8 9046     		mov	r8, r2
 790 00ba 9946     		mov	r9, r3
 791 00bc F8BD     		pop	{r3, r4, r5, r6, r7, pc}
 792              	.L58:
 793 00be C046     		.align	2
 794              	.L57:
 795 00c0 00000000 		.word	.LANCHOR1
 796 00c4 00000000 		.word	.LANCHOR0
 797              		.cfi_endproc
 798              	.LFE6:
 799              		.size	CyBle_CustomcDiscoverCharDescriptorsEventHandler, .-CyBle_CustomcDiscoverCharDescriptorsEven
 800              		.global	cyBle_customCServ
 801              		.global	cyBle_customs
ARM GAS  C:\Users\Roi\AppData\Local\Temp\ccR3Zag1.s 			page 23


 802              		.section	.rodata
 803              		.align	2
 804              		.type	cyBle_customUuid128, %object
 805              		.size	cyBle_customUuid128, 48
 806              	cyBle_customUuid128:
 807 0000 58       		.byte	88
 808 0001 A5       		.byte	-91
 809 0002 38       		.byte	56
 810 0003 F2       		.byte	-14
 811 0004 D8       		.byte	-40
 812 0005 64       		.byte	100
 813 0006 CD       		.byte	-51
 814 0007 BD       		.byte	-67
 815 0008 15       		.byte	21
 816 0009 42       		.byte	66
 817 000a A3       		.byte	-93
 818 000b B0       		.byte	-80
 819 000c FE       		.byte	-2
 820 000d 0A       		.byte	10
 821 000e A3       		.byte	-93
 822 000f CF       		.byte	-49
 823 0010 C8       		.byte	-56
 824 0011 C9       		.byte	-55
 825 0012 89       		.byte	-119
 826 0013 90       		.byte	-112
 827 0014 0E       		.byte	14
 828 0015 DF       		.byte	-33
 829 0016 60       		.byte	96
 830 0017 83       		.byte	-125
 831 0018 D0       		.byte	-48
 832 0019 4E       		.byte	78
 833 001a 5E       		.byte	94
 834 001b EA       		.byte	-22
 835 001c 96       		.byte	-106
 836 001d 91       		.byte	-111
 837 001e 2D       		.byte	45
 838 001f C1       		.byte	-63
 839 0020 CC       		.byte	-52
 840 0021 A2       		.byte	-94
 841 0022 50       		.byte	80
 842 0023 1C       		.byte	28
 843 0024 10       		.byte	16
 844 0025 03       		.byte	3
 845 0026 4D       		.byte	77
 846 0027 B8       		.byte	-72
 847 0028 C7       		.byte	-57
 848 0029 4C       		.byte	76
 849 002a 33       		.byte	51
 850 002b F5       		.byte	-11
 851 002c 11       		.byte	17
 852 002d F7       		.byte	-9
 853 002e 93       		.byte	-109
 854 002f 89       		.byte	-119
 855              		.type	cyBle_customs, %object
 856              		.size	cyBle_customs, 6
 857              	cyBle_customs:
 858 0030 1000     		.short	16
ARM GAS  C:\Users\Roi\AppData\Local\Temp\ccR3Zag1.s 			page 24


 859 0032 1200     		.short	18
 860 0034 1300     		.short	19
 861              		.data
 862              		.align	2
 863              		.set	.LANCHOR0,. + 0
 864              		.type	cyBle_customCServ, %object
 865              		.size	cyBle_customCServ, 16
 866              	cyBle_customCServ:
 867 0000 0000     		.short	0
 868 0002 0000     		.space	2
 869 0004 00000000 		.word	cyBle_customUuid128
 870 0008 02       		.byte	2
 871 0009 01       		.byte	1
 872 000a 0000     		.space	2
 873 000c 10000000 		.word	cyBle_customCChar
 874              		.type	cyBle_customCChar, %object
 875              		.size	cyBle_customCChar, 16
 876              	cyBle_customCChar:
 877 0010 0000     		.short	0
 878 0012 0000     		.short	0
 879 0014 10000000 		.word	cyBle_customUuid128+16
 880 0018 02       		.byte	2
 881 0019 00       		.byte	0
 882 001a 01       		.byte	1
 883 001b 00       		.space	1
 884 001c 20000000 		.word	cyBle_customCDesc
 885              		.type	cyBle_customCDesc, %object
 886              		.size	cyBle_customCDesc, 12
 887              	cyBle_customCDesc:
 888 0020 0000     		.short	0
 889 0022 0000     		.space	2
 890 0024 20000000 		.word	cyBle_customUuid128+32
 891 0028 02       		.byte	2
 892 0029 000000   		.space	3
 893              		.bss
 894              		.align	2
 895              		.set	.LANCHOR1,. + 0
 896              		.type	customsLastEndHandle.6752, %object
 897              		.size	customsLastEndHandle.6752, 4
 898              	customsLastEndHandle.6752:
 899 0000 00000000 		.space	4
 900              		.type	discoveryLastServ.6753, %object
 901              		.size	discoveryLastServ.6753, 2
 902              	discoveryLastServ.6753:
 903 0004 0000     		.space	2
 904              		.type	cyBle_customDisCharIndex, %object
 905              		.size	cyBle_customDisCharIndex, 2
 906              	cyBle_customDisCharIndex:
 907 0006 0000     		.space	2
 908              		.type	cyBle_customDisServIndex, %object
 909              		.size	cyBle_customDisServIndex, 2
 910              	cyBle_customDisServIndex:
 911 0008 0000     		.space	2
 912              		.text
 913              	.Letext0:
 914              		.file 2 "Generated_Source\\PSoC4\\cytypes.h"
 915              		.file 3 "Generated_Source\\PSoC4\\BLE_StackGatt.h"
ARM GAS  C:\Users\Roi\AppData\Local\Temp\ccR3Zag1.s 			page 25


 916              		.file 4 "Generated_Source\\PSoC4\\BLE_gatt.h"
 917              		.file 5 "Generated_Source\\PSoC4\\BLE_custom.h"
 918              		.file 6 "Generated_Source\\PSoC4\\BLE_Stack.h"
 919              		.file 7 "Generated_Source\\PSoC4\\BLE_eventHandler.h"
 920              		.file 8 "c:\\program files (x86)\\cypress\\psoc creator\\4.2\\psoc creator\\import\\gnu\\arm\\5.4.