ARM GAS  C:\Users\Roi\AppData\Local\Temp\ccvMysHr.s 			page 1


   1              		.syntax unified
   2              		.cpu cortex-m0
   3              		.fpu softvfp
   4              		.eabi_attribute 20, 1
   5              		.eabi_attribute 21, 1
   6              		.eabi_attribute 23, 3
   7              		.eabi_attribute 24, 1
   8              		.eabi_attribute 25, 1
   9              		.eabi_attribute 26, 1
  10              		.eabi_attribute 30, 1
  11              		.eabi_attribute 34, 0
  12              		.eabi_attribute 18, 4
  13              		.thumb
  14              		.syntax unified
  15              		.file	"ble_server.c"
  16              		.text
  17              	.Ltext0:
  18              		.cfi_sections	.debug_frame
  19              		.section	.text.BleCallBack,"ax",%progbits
  20              		.align	2
  21              		.global	BleCallBack
  22              		.code	16
  23              		.thumb_func
  24              		.type	BleCallBack, %function
  25              	BleCallBack:
  26              	.LFB64:
  27              		.file 1 "ble_server.c"
   1:ble_server.c  **** #include "smartboy.h"
   2:ble_server.c  **** 
   3:ble_server.c  **** void main_loop(void) {
   4:ble_server.c  ****     CyBle_ProcessEvents();
   5:ble_server.c  ****     CyBle_EnterLPM(CYBLE_BLESS_DEEPSLEEP);
   6:ble_server.c  **** }
   7:ble_server.c  **** 
   8:ble_server.c  **** void BleCallBack(uint32 event,void* eventParam) {
  28              		.loc 1 8 0
  29              		.cfi_startproc
  30              		@ args = 0, pretend = 0, frame = 0
  31              		@ frame_needed = 0, uses_anonymous_args = 0
  32              	.LVL0:
  33 0000 10B5     		push	{r4, lr}
  34              		.cfi_def_cfa_offset 8
  35              		.cfi_offset 4, -8
  36              		.cfi_offset 14, -4
   9:ble_server.c  ****     CYBLE_GATTS_WRITE_CMD_REQ_PARAM_T *wrReqParam;
  10:ble_server.c  ****     
  11:ble_server.c  ****     switch(event) {
  37              		.loc 1 11 0
  38 0002 0128     		cmp	r0, #1
  39 0004 01D0     		beq	.L3
  40 0006 2828     		cmp	r0, #40
  41 0008 02D1     		bne	.L1
  42              	.L3:
  43              	.LBB2:
  12:ble_server.c  ****         case CYBLE_EVT_STACK_ON:
  13:ble_server.c  ****         case CYBLE_EVT_GAP_DEVICE_DISCONNECTED:
  14:ble_server.c  ****             CyBle_GappStartAdvertisement(CYBLE_ADVERTISING_FAST);
ARM GAS  C:\Users\Roi\AppData\Local\Temp\ccvMysHr.s 			page 2


  44              		.loc 1 14 0
  45 000a 0020     		movs	r0, #0
  46              	.LVL1:
  47 000c FFF7FEFF 		bl	CyBle_GappStartAdvertisement
  48              	.LVL2:
  49              	.L1:
  50              	.LBE2:
  15:ble_server.c  ****             //set_data_from_ble(0,1);
  16:ble_server.c  ****         break;
  17:ble_server.c  ****         
  18:ble_server.c  ****         case CYBLE_EVT_GATT_CONNECT_IND:
  19:ble_server.c  ****             //set_data_from_ble(0,0);
  20:ble_server.c  ****         break;
  21:ble_server.c  ****             
  22:ble_server.c  ****         case CYBLE_EVT_GATTS_WRITE_REQ:
  23:ble_server.c  ****             wrReqParam = (CYBLE_GATTS_WRITE_CMD_REQ_PARAM_T *) eventParam;
  24:ble_server.c  ****             
  25:ble_server.c  ****             //update_data_write(wrReqParam);
  26:ble_server.c  ****             
  27:ble_server.c  ****         break;
  28:ble_server.c  ****         
  29:ble_server.c  ****         default:
  30:ble_server.c  ****         break;
  31:ble_server.c  ****     }
  32:ble_server.c  **** }
  51              		.loc 1 32 0
  52              		@ sp needed
  53 0010 10BD     		pop	{r4, pc}
  54              		.cfi_endproc
  55              	.LFE64:
  56              		.size	BleCallBack, .-BleCallBack
  57 0012 C046     		.section	.text.main_loop,"ax",%progbits
  58              		.align	2
  59              		.global	main_loop
  60              		.code	16
  61              		.thumb_func
  62              		.type	main_loop, %function
  63              	main_loop:
  64              	.LFB63:
   3:ble_server.c  ****     CyBle_EnterLPM(CYBLE_BLESS_DEEPSLEEP);
  65              		.loc 1 3 0
  66              		.cfi_startproc
  67              		@ args = 0, pretend = 0, frame = 0
  68              		@ frame_needed = 0, uses_anonymous_args = 0
  69 0000 10B5     		push	{r4, lr}
  70              		.cfi_def_cfa_offset 8
  71              		.cfi_offset 4, -8
  72              		.cfi_offset 14, -4
   4:ble_server.c  ****     CyBle_EnterLPM(CYBLE_BLESS_DEEPSLEEP);
  73              		.loc 1 4 0
  74 0002 FFF7FEFF 		bl	CyBle_ProcessEvents
  75              	.LVL3:
   5:ble_server.c  **** }
  76              		.loc 1 5 0
  77 0006 0320     		movs	r0, #3
  78 0008 FFF7FEFF 		bl	CyBle_EnterLPM
  79              	.LVL4:
ARM GAS  C:\Users\Roi\AppData\Local\Temp\ccvMysHr.s 			page 3


   6:ble_server.c  **** 
  80              		.loc 1 6 0
  81              		@ sp needed
  82 000c 10BD     		pop	{r4, pc}
  83              		.cfi_endproc
  84              	.LFE63:
  85              		.size	main_loop, .-main_loop
  86 000e C046     		.section	.text.init_ble,"ax",%progbits
  87              		.align	2
  88              		.global	init_ble
  89              		.code	16
  90              		.thumb_func
  91              		.type	init_ble, %function
  92              	init_ble:
  93              	.LFB65:
  33:ble_server.c  **** 
  34:ble_server.c  **** void init_ble(void){
  94              		.loc 1 34 0
  95              		.cfi_startproc
  96              		@ args = 0, pretend = 0, frame = 0
  97              		@ frame_needed = 0, uses_anonymous_args = 0
  98 0000 10B5     		push	{r4, lr}
  99              		.cfi_def_cfa_offset 8
 100              		.cfi_offset 4, -8
 101              		.cfi_offset 14, -4
  35:ble_server.c  ****     CyBle_Start(BleCallBack);
 102              		.loc 1 35 0
 103 0002 0248     		ldr	r0, .L6
 104 0004 FFF7FEFF 		bl	CyBle_Start
 105              	.LVL5:
  36:ble_server.c  **** }...
 106              		.loc 1 36 0
 107              		@ sp needed
 108 0008 10BD     		pop	{r4, pc}
 109              	.L7:
 110 000a C046     		.align	2
 111              	.L6:
 112 000c 00000000 		.word	BleCallBack
 113              		.cfi_endproc
 114              	.LFE65:
 115              		.size	init_ble, .-init_ble
 116              		.text
 117              	.Letext0:
 118              		.file 2 "Generated_Source\\PSoC4/cytypes.h"
 119              		.file 3 "Generated_Source\\PSoC4/BLE_Stack.h"
 120              		.file 4 "Generated_Source\\PSoC4/BLE_StackGatt.h"
 121              		.file 5 "Generated_Source\\PSoC4/BLE_StackGattServer.h"
 122              		.file 6 "Generated_Source\\PSoC4/BLE.h"
 123              		.file 7 "Generated_Source\\PSoC4/RTC.h"