ARM GAS  C:\Users\Roi\AppData\Local\Temp\ccySZKtB.s 			page 1


   1              		.syntax unified
   2              		.cpu cortex-m0
   3              		.fpu softvfp
   4              		.eabi_attribute 20, 1
   5              		.eabi_attribute 21, 1
   6              		.eabi_attribute 23, 3
   7              		.eabi_attribute 24, 1
   8              		.eabi_attribute 25, 1
   9              		.eabi_attribute 26, 1
  10              		.eabi_attribute 30, 1
  11              		.eabi_attribute 34, 0
  12              		.eabi_attribute 18, 4
  13              		.thumb
  14              		.syntax unified
  15              		.file	"buttons.c"
  16              		.text
  17              	.Ltext0:
  18              		.cfi_sections	.debug_frame
  19              		.section	.text.get_ble_mode,"ax",%progbits
  20              		.align	2
  21              		.global	get_ble_mode
  22              		.code	16
  23              		.thumb_func
  24              		.type	get_ble_mode, %function
  25              	get_ble_mode:
  26              	.LFB36:
  27              		.file 1 "buttons.c"
   1:buttons.c     **** #include "smartboy.h"
   2:buttons.c     **** 
   3:buttons.c     **** bool ble_mode = false;
   4:buttons.c     **** 
   5:buttons.c     **** bool get_ble_mode(void){
  28              		.loc 1 5 0
  29              		.cfi_startproc
  30              		@ args = 0, pretend = 0, frame = 0
  31              		@ frame_needed = 0, uses_anonymous_args = 0
  32              		@ link register save eliminated.
   6:buttons.c     ****     return ble_mode;
  33              		.loc 1 6 0
  34 0000 014B     		ldr	r3, .L2
  35 0002 1878     		ldrb	r0, [r3]
   7:buttons.c     **** }
  36              		.loc 1 7 0
  37              		@ sp needed
  38 0004 7047     		bx	lr
  39              	.L3:
  40 0006 C046     		.align	2
  41              	.L2:
  42 0008 00000000 		.word	.LANCHOR0
  43              		.cfi_endproc
  44              	.LFE36:
  45              		.size	get_ble_mode, .-get_ble_mode
  46              		.section	.text.Button_Reset_Int_Handler,"ax",%progbits
  47              		.align	2
  48              		.global	Button_Reset_Int_Handler
  49              		.code	16
  50              		.thumb_func
ARM GAS  C:\Users\Roi\AppData\Local\Temp\ccySZKtB.s 			page 2


  51              		.type	Button_Reset_Int_Handler, %function
  52              	Button_Reset_Int_Handler:
  53              	.LFB37:
   8:buttons.c     **** 
   9:buttons.c     **** CY_ISR(Button_Reset_Int_Handler) {
  54              		.loc 1 9 0
  55              		.cfi_startproc
  56              		@ args = 0, pretend = 0, frame = 0
  57              		@ frame_needed = 0, uses_anonymous_args = 0
  58 0000 10B5     		push	{r4, lr}
  59              		.cfi_def_cfa_offset 8
  60              		.cfi_offset 4, -8
  61              		.cfi_offset 14, -4
  10:buttons.c     ****     ble_mode = false;
  62              		.loc 1 10 0
  63 0002 0022     		movs	r2, #0
  64 0004 034B     		ldr	r3, .L5
  65 0006 1A70     		strb	r2, [r3]
  11:buttons.c     ****     change_mode();
  66              		.loc 1 11 0
  67 0008 FFF7FEFF 		bl	change_mode
  68              	.LVL0:
  12:buttons.c     ****     Button_Reset_ClearInterrupt();
  69              		.loc 1 12 0
  70 000c FFF7FEFF 		bl	Button_Reset_ClearInterrupt
  71              	.LVL1:
  13:buttons.c     **** }
  72              		.loc 1 13 0
  73              		@ sp needed
  74 0010 10BD     		pop	{r4, pc}
  75              	.L6:
  76 0012 C046     		.align	2
  77              	.L5:
  78 0014 00000000 		.word	.LANCHOR0
  79              		.cfi_endproc
  80              	.LFE37:
  81              		.size	Button_Reset_Int_Handler, .-Button_Reset_Int_Handler
  82              		.section	.text.Button_Scan_Int_Handler,"ax",%progbits
  83              		.align	2
  84              		.global	Button_Scan_Int_Handler
  85              		.code	16
  86              		.thumb_func
  87              		.type	Button_Scan_Int_Handler, %function
  88              	Button_Scan_Int_Handler:
  89              	.LFB38:
  14:buttons.c     **** 
  15:buttons.c     **** CY_ISR(Button_Scan_Int_Handler) {
  90              		.loc 1 15 0
  91              		.cfi_startproc
  92              		@ args = 0, pretend = 0, frame = 0
  93              		@ frame_needed = 0, uses_anonymous_args = 0
  94 0000 10B5     		push	{r4, lr}
  95              		.cfi_def_cfa_offset 8
  96              		.cfi_offset 4, -8
  97              		.cfi_offset 14, -4
  16:buttons.c     ****     ble_mode = !ble_mode;
  98              		.loc 1 16 0
ARM GAS  C:\Users\Roi\AppData\Local\Temp\ccySZKtB.s 			page 3


  99 0002 054A     		ldr	r2, .L8
 100 0004 1178     		ldrb	r1, [r2]
 101 0006 0123     		movs	r3, #1
 102 0008 4B40     		eors	r3, r1
 103 000a 1370     		strb	r3, [r2]
  17:buttons.c     ****     change_mode();
 104              		.loc 1 17 0
 105 000c FFF7FEFF 		bl	change_mode
 106              	.LVL2:
  18:buttons.c     ****     Button_Scan_ClearInterrupt();
 107              		.loc 1 18 0
 108 0010 FFF7FEFF 		bl	Button_Scan_ClearInterrupt
 109              	.LVL3:
  19:buttons.c     **** }
 110              		.loc 1 19 0
 111              		@ sp needed
 112 0014 10BD     		pop	{r4, pc}
 113              	.L9:
 114 0016 C046     		.align	2
 115              	.L8:
 116 0018 00000000 		.word	.LANCHOR0
 117              		.cfi_endproc
 118              	.LFE38:
 119              		.size	Button_Scan_Int_Handler, .-Button_Scan_Int_Handler
 120              		.global	ble_mode
 121              		.bss
 122              		.set	.LANCHOR0,. + 0
 123              		.type	ble_mode, %object
 124              		.size	ble_mode, 1
 125              	ble_mode:
 126 0000 00       		.space	1
 127              		.text
 128              	.Letext0:
 129              		.file 2 "Generated_Source\\PSoC4/BLE_Stack.h"
 130              		.file 3 "Generated_Source\\PSoC4/BLE_eventHandler.h"
 131              		.file 4 "ble_client.h"
 132              		.file 5 "Generated_Source\\PSoC4/Button_Reset.h"
 133              		.file 6 "Generated_Source\\PSoC4/Button_Scan.h"