ARM GAS  C:\Users\Roi\AppData\Local\Temp\cco0ItSk.s 			page 1


   1              		.syntax unified
   2              		.cpu cortex-m0
   3              		.fpu softvfp
   4              		.eabi_attribute 20, 1
   5              		.eabi_attribute 21, 1
   6              		.eabi_attribute 23, 3
   7              		.eabi_attribute 24, 1
   8              		.eabi_attribute 25, 1
   9              		.eabi_attribute 26, 1
  10              		.eabi_attribute 30, 1
  11              		.eabi_attribute 34, 0
  12              		.eabi_attribute 18, 4
  13              		.thumb
  14              		.syntax unified
  15              		.file	"cyfitter_cfg.c"
  16              		.text
  17              	.Ltext0:
  18              		.cfi_sections	.debug_frame
  19              		.section	.text.cfg_write_bytes32,"ax",%progbits
  20              		.align	2
  21              		.code	16
  22              		.thumb_func
  23              		.type	cfg_write_bytes32, %function
  24              	cfg_write_bytes32:
  25              	.LFB5:
  26              		.file 1 "Generated_Source\\PSoC4\\cyfitter_cfg.c"
   1:Generated_Source\PSoC4/cyfitter_cfg.c **** 
   2:Generated_Source\PSoC4/cyfitter_cfg.c **** /*******************************************************************************
   3:Generated_Source\PSoC4/cyfitter_cfg.c **** * File Name: cyfitter_cfg.c
   4:Generated_Source\PSoC4/cyfitter_cfg.c **** * 
   5:Generated_Source\PSoC4/cyfitter_cfg.c **** * PSoC Creator  4.2
   6:Generated_Source\PSoC4/cyfitter_cfg.c **** *
   7:Generated_Source\PSoC4/cyfitter_cfg.c **** * Description:
   8:Generated_Source\PSoC4/cyfitter_cfg.c **** * This file contains device initialization code.
   9:Generated_Source\PSoC4/cyfitter_cfg.c **** * Except for the user defined sections in CyClockStartupError(), this file should not be modified.
  10:Generated_Source\PSoC4/cyfitter_cfg.c **** * This file is automatically generated by PSoC Creator.
  11:Generated_Source\PSoC4/cyfitter_cfg.c **** *
  12:Generated_Source\PSoC4/cyfitter_cfg.c **** ********************************************************************************
  13:Generated_Source\PSoC4/cyfitter_cfg.c **** * Copyright (c) 2007-2018 Cypress Semiconductor.  All rights reserved.
  14:Generated_Source\PSoC4/cyfitter_cfg.c **** * You may use this file only in accordance with the license, terms, conditions, 
  15:Generated_Source\PSoC4/cyfitter_cfg.c **** * disclaimers, and limitations in the end user license agreement accompanying 
  16:Generated_Source\PSoC4/cyfitter_cfg.c **** * the software package with which this file was provided.
  17:Generated_Source\PSoC4/cyfitter_cfg.c **** ********************************************************************************/
  18:Generated_Source\PSoC4/cyfitter_cfg.c **** 
  19:Generated_Source\PSoC4/cyfitter_cfg.c **** #include <string.h>
  20:Generated_Source\PSoC4/cyfitter_cfg.c **** #include "cytypes.h"
  21:Generated_Source\PSoC4/cyfitter_cfg.c **** #include "cydevice_trm.h"
  22:Generated_Source\PSoC4/cyfitter_cfg.c **** #include "cyfitter.h"
  23:Generated_Source\PSoC4/cyfitter_cfg.c **** #include "CyLib.h"
  24:Generated_Source\PSoC4/cyfitter_cfg.c **** #include "CyLFClk.h"
  25:Generated_Source\PSoC4/cyfitter_cfg.c **** #include "cyfitter_cfg.h"
  26:Generated_Source\PSoC4/cyfitter_cfg.c **** #include "cyapicallbacks.h"
  27:Generated_Source\PSoC4/cyfitter_cfg.c **** 
  28:Generated_Source\PSoC4/cyfitter_cfg.c **** 
  29:Generated_Source\PSoC4/cyfitter_cfg.c **** #if defined(__GNUC__) || defined(__ARMCC_VERSION)
  30:Generated_Source\PSoC4/cyfitter_cfg.c ****     #define CYPACKED 
  31:Generated_Source\PSoC4/cyfitter_cfg.c ****     #define CYPACKED_ATTR __attribute__ ((packed))
ARM GAS  C:\Users\Roi\AppData\Local\Temp\cco0ItSk.s 			page 2


  32:Generated_Source\PSoC4/cyfitter_cfg.c ****     #define CYALIGNED __attribute__ ((aligned))
  33:Generated_Source\PSoC4/cyfitter_cfg.c ****     #define CY_CFG_UNUSED __attribute__ ((unused))
  34:Generated_Source\PSoC4/cyfitter_cfg.c ****     #ifndef CY_CFG_SECTION
  35:Generated_Source\PSoC4/cyfitter_cfg.c ****         #define CY_CFG_SECTION __attribute__ ((section(".psocinit")))
  36:Generated_Source\PSoC4/cyfitter_cfg.c ****     #endif
  37:Generated_Source\PSoC4/cyfitter_cfg.c ****     
  38:Generated_Source\PSoC4/cyfitter_cfg.c ****     #if defined(__ARMCC_VERSION)
  39:Generated_Source\PSoC4/cyfitter_cfg.c ****         #define CY_CFG_MEMORY_BARRIER() __memory_changed()
  40:Generated_Source\PSoC4/cyfitter_cfg.c ****     #else
  41:Generated_Source\PSoC4/cyfitter_cfg.c ****         #define CY_CFG_MEMORY_BARRIER() __sync_synchronize()
  42:Generated_Source\PSoC4/cyfitter_cfg.c ****     #endif
  43:Generated_Source\PSoC4/cyfitter_cfg.c ****     
  44:Generated_Source\PSoC4/cyfitter_cfg.c **** #elif defined(__ICCARM__)
  45:Generated_Source\PSoC4/cyfitter_cfg.c ****     #include <intrinsics.h>
  46:Generated_Source\PSoC4/cyfitter_cfg.c **** 
  47:Generated_Source\PSoC4/cyfitter_cfg.c ****     #define CYPACKED __packed
  48:Generated_Source\PSoC4/cyfitter_cfg.c ****     #define CYPACKED_ATTR 
  49:Generated_Source\PSoC4/cyfitter_cfg.c ****     #define CYALIGNED _Pragma("data_alignment=4")
  50:Generated_Source\PSoC4/cyfitter_cfg.c ****     #define CY_CFG_UNUSED _Pragma("diag_suppress=Pe177")
  51:Generated_Source\PSoC4/cyfitter_cfg.c ****     #define CY_CFG_SECTION _Pragma("location=\".psocinit\"")
  52:Generated_Source\PSoC4/cyfitter_cfg.c ****     
  53:Generated_Source\PSoC4/cyfitter_cfg.c ****     #define CY_CFG_MEMORY_BARRIER() __DMB()
  54:Generated_Source\PSoC4/cyfitter_cfg.c ****     
  55:Generated_Source\PSoC4/cyfitter_cfg.c **** #else
  56:Generated_Source\PSoC4/cyfitter_cfg.c ****     #error Unsupported toolchain
  57:Generated_Source\PSoC4/cyfitter_cfg.c **** #endif
  58:Generated_Source\PSoC4/cyfitter_cfg.c **** 
  59:Generated_Source\PSoC4/cyfitter_cfg.c **** #ifndef CYCODE
  60:Generated_Source\PSoC4/cyfitter_cfg.c ****     #define CYCODE
  61:Generated_Source\PSoC4/cyfitter_cfg.c **** #endif
  62:Generated_Source\PSoC4/cyfitter_cfg.c **** #ifndef CYDATA
  63:Generated_Source\PSoC4/cyfitter_cfg.c ****     #define CYDATA
  64:Generated_Source\PSoC4/cyfitter_cfg.c **** #endif
  65:Generated_Source\PSoC4/cyfitter_cfg.c **** #ifndef CYFAR
  66:Generated_Source\PSoC4/cyfitter_cfg.c ****     #define CYFAR
  67:Generated_Source\PSoC4/cyfitter_cfg.c **** #endif
  68:Generated_Source\PSoC4/cyfitter_cfg.c **** #ifndef CYXDATA
  69:Generated_Source\PSoC4/cyfitter_cfg.c ****     #define CYXDATA
  70:Generated_Source\PSoC4/cyfitter_cfg.c **** #endif
  71:Generated_Source\PSoC4/cyfitter_cfg.c **** 
  72:Generated_Source\PSoC4/cyfitter_cfg.c **** 
  73:Generated_Source\PSoC4/cyfitter_cfg.c **** CY_CFG_UNUSED
  74:Generated_Source\PSoC4/cyfitter_cfg.c **** static void CYMEMZERO(void *s, size_t n);
  75:Generated_Source\PSoC4/cyfitter_cfg.c **** CY_CFG_UNUSED
  76:Generated_Source\PSoC4/cyfitter_cfg.c **** static void CYMEMZERO(void *s, size_t n)
  77:Generated_Source\PSoC4/cyfitter_cfg.c **** {
  78:Generated_Source\PSoC4/cyfitter_cfg.c **** 	(void)memset(s, 0, n);
  79:Generated_Source\PSoC4/cyfitter_cfg.c **** }
  80:Generated_Source\PSoC4/cyfitter_cfg.c **** CY_CFG_UNUSED
  81:Generated_Source\PSoC4/cyfitter_cfg.c **** static void CYCONFIGCPY(void *dest, const void *src, size_t n);
  82:Generated_Source\PSoC4/cyfitter_cfg.c **** CY_CFG_UNUSED
  83:Generated_Source\PSoC4/cyfitter_cfg.c **** static void CYCONFIGCPY(void *dest, const void *src, size_t n)
  84:Generated_Source\PSoC4/cyfitter_cfg.c **** {
  85:Generated_Source\PSoC4/cyfitter_cfg.c **** 	(void)memcpy(dest, src, n);
  86:Generated_Source\PSoC4/cyfitter_cfg.c **** }
  87:Generated_Source\PSoC4/cyfitter_cfg.c **** CY_CFG_UNUSED
  88:Generated_Source\PSoC4/cyfitter_cfg.c **** static void CYCONFIGCPYCODE(void *dest, const void *src, size_t n);
ARM GAS  C:\Users\Roi\AppData\Local\Temp\cco0ItSk.s 			page 3


  89:Generated_Source\PSoC4/cyfitter_cfg.c **** CY_CFG_UNUSED
  90:Generated_Source\PSoC4/cyfitter_cfg.c **** static void CYCONFIGCPYCODE(void *dest, const void *src, size_t n)
  91:Generated_Source\PSoC4/cyfitter_cfg.c **** {
  92:Generated_Source\PSoC4/cyfitter_cfg.c **** 	(void)memcpy(dest, src, n);
  93:Generated_Source\PSoC4/cyfitter_cfg.c **** }
  94:Generated_Source\PSoC4/cyfitter_cfg.c **** 
  95:Generated_Source\PSoC4/cyfitter_cfg.c **** 
  96:Generated_Source\PSoC4/cyfitter_cfg.c **** 
  97:Generated_Source\PSoC4/cyfitter_cfg.c **** 
  98:Generated_Source\PSoC4/cyfitter_cfg.c **** /* Clock startup error codes                                                   */
  99:Generated_Source\PSoC4/cyfitter_cfg.c **** #define CYCLOCKSTART_NO_ERROR    0u
 100:Generated_Source\PSoC4/cyfitter_cfg.c **** #define CYCLOCKSTART_XTAL_ERROR  1u
 101:Generated_Source\PSoC4/cyfitter_cfg.c **** #define CYCLOCKSTART_32KHZ_ERROR 2u
 102:Generated_Source\PSoC4/cyfitter_cfg.c **** #define CYCLOCKSTART_PLL_ERROR   3u
 103:Generated_Source\PSoC4/cyfitter_cfg.c **** #define CYCLOCKSTART_FLL_ERROR   4u
 104:Generated_Source\PSoC4/cyfitter_cfg.c **** #define CYCLOCKSTART_WCO_ERROR   5u
 105:Generated_Source\PSoC4/cyfitter_cfg.c **** 
 106:Generated_Source\PSoC4/cyfitter_cfg.c **** 
 107:Generated_Source\PSoC4/cyfitter_cfg.c **** #ifdef CY_NEED_CYCLOCKSTARTUPERROR
 108:Generated_Source\PSoC4/cyfitter_cfg.c **** /*******************************************************************************
 109:Generated_Source\PSoC4/cyfitter_cfg.c **** * Function Name: CyClockStartupError
 110:Generated_Source\PSoC4/cyfitter_cfg.c **** ********************************************************************************
 111:Generated_Source\PSoC4/cyfitter_cfg.c **** * Summary:
 112:Generated_Source\PSoC4/cyfitter_cfg.c **** *  If an error is encountered during clock configuration (crystal startup error,
 113:Generated_Source\PSoC4/cyfitter_cfg.c **** *  PLL lock error, etc.), the system will end up here.  Unless reimplemented by
 114:Generated_Source\PSoC4/cyfitter_cfg.c **** *  the customer, this function will stop in an infinite loop.
 115:Generated_Source\PSoC4/cyfitter_cfg.c **** *
 116:Generated_Source\PSoC4/cyfitter_cfg.c **** * Parameters:
 117:Generated_Source\PSoC4/cyfitter_cfg.c **** *   void
 118:Generated_Source\PSoC4/cyfitter_cfg.c **** *
 119:Generated_Source\PSoC4/cyfitter_cfg.c **** * Return:
 120:Generated_Source\PSoC4/cyfitter_cfg.c **** *   void
 121:Generated_Source\PSoC4/cyfitter_cfg.c **** *
 122:Generated_Source\PSoC4/cyfitter_cfg.c **** *******************************************************************************/
 123:Generated_Source\PSoC4/cyfitter_cfg.c **** CY_CFG_UNUSED
 124:Generated_Source\PSoC4/cyfitter_cfg.c **** static void CyClockStartupError(uint8 errorCode);
 125:Generated_Source\PSoC4/cyfitter_cfg.c **** CY_CFG_UNUSED
 126:Generated_Source\PSoC4/cyfitter_cfg.c **** static void CyClockStartupError(uint8 errorCode)
 127:Generated_Source\PSoC4/cyfitter_cfg.c **** {
 128:Generated_Source\PSoC4/cyfitter_cfg.c ****     /* To remove the compiler warning if errorCode not used.                */
 129:Generated_Source\PSoC4/cyfitter_cfg.c ****     errorCode = errorCode;
 130:Generated_Source\PSoC4/cyfitter_cfg.c **** 
 131:Generated_Source\PSoC4/cyfitter_cfg.c ****     /* If we have a clock startup error (bad MHz crystal, PLL lock, etc.),  */
 132:Generated_Source\PSoC4/cyfitter_cfg.c ****     /* we will end up here to allow the customer to implement something to  */
 133:Generated_Source\PSoC4/cyfitter_cfg.c ****     /* deal with the clock condition.                                       */
 134:Generated_Source\PSoC4/cyfitter_cfg.c **** 
 135:Generated_Source\PSoC4/cyfitter_cfg.c **** #ifdef CY_CFG_CLOCK_STARTUP_ERROR_CALLBACK
 136:Generated_Source\PSoC4/cyfitter_cfg.c ****     CY_CFG_Clock_Startup_ErrorCallback();
 137:Generated_Source\PSoC4/cyfitter_cfg.c **** #else
 138:Generated_Source\PSoC4/cyfitter_cfg.c ****     /*  If not using CY_CFG_CLOCK_STARTUP_ERROR_CALLBACK, place your clock startup code here. */
 139:Generated_Source\PSoC4/cyfitter_cfg.c ****     /* `#START CyClockStartupError` */
 140:Generated_Source\PSoC4/cyfitter_cfg.c **** 
 141:Generated_Source\PSoC4/cyfitter_cfg.c **** 
 142:Generated_Source\PSoC4/cyfitter_cfg.c **** 
 143:Generated_Source\PSoC4/cyfitter_cfg.c ****     /* `#END` */
 144:Generated_Source\PSoC4/cyfitter_cfg.c **** 
 145:Generated_Source\PSoC4/cyfitter_cfg.c ****     while(1) {}
ARM GAS  C:\Users\Roi\AppData\Local\Temp\cco0ItSk.s 			page 4


 146:Generated_Source\PSoC4/cyfitter_cfg.c **** #endif /* CY_CFG_CLOCK_STARTUP_ERROR_CALLBACK */
 147:Generated_Source\PSoC4/cyfitter_cfg.c **** }
 148:Generated_Source\PSoC4/cyfitter_cfg.c **** #endif
 149:Generated_Source\PSoC4/cyfitter_cfg.c **** 
 150:Generated_Source\PSoC4/cyfitter_cfg.c **** #define CY_CFG_BASE_ADDR_COUNT 7u
 151:Generated_Source\PSoC4/cyfitter_cfg.c **** CYPACKED typedef struct
 152:Generated_Source\PSoC4/cyfitter_cfg.c **** {
 153:Generated_Source\PSoC4/cyfitter_cfg.c **** 	uint8 offset;
 154:Generated_Source\PSoC4/cyfitter_cfg.c **** 	uint8 value;
 155:Generated_Source\PSoC4/cyfitter_cfg.c **** } CYPACKED_ATTR cy_cfg_addrvalue_t;
 156:Generated_Source\PSoC4/cyfitter_cfg.c **** 
 157:Generated_Source\PSoC4/cyfitter_cfg.c **** 
 158:Generated_Source\PSoC4/cyfitter_cfg.c **** 
 159:Generated_Source\PSoC4/cyfitter_cfg.c **** /*******************************************************************************
 160:Generated_Source\PSoC4/cyfitter_cfg.c **** * Function Name: cfg_write_bytes32
 161:Generated_Source\PSoC4/cyfitter_cfg.c **** ********************************************************************************
 162:Generated_Source\PSoC4/cyfitter_cfg.c **** * Summary:
 163:Generated_Source\PSoC4/cyfitter_cfg.c **** *  This function is used for setting up the chip configuration areas that
 164:Generated_Source\PSoC4/cyfitter_cfg.c **** *  contain relatively sparse data.
 165:Generated_Source\PSoC4/cyfitter_cfg.c **** *
 166:Generated_Source\PSoC4/cyfitter_cfg.c **** * Parameters:
 167:Generated_Source\PSoC4/cyfitter_cfg.c **** *   void
 168:Generated_Source\PSoC4/cyfitter_cfg.c **** *
 169:Generated_Source\PSoC4/cyfitter_cfg.c **** * Return:
 170:Generated_Source\PSoC4/cyfitter_cfg.c **** *   void
 171:Generated_Source\PSoC4/cyfitter_cfg.c **** *
 172:Generated_Source\PSoC4/cyfitter_cfg.c **** *******************************************************************************/
 173:Generated_Source\PSoC4/cyfitter_cfg.c **** static void cfg_write_bytes32(const uint32 addr_table[], const cy_cfg_addrvalue_t data_table[]);
 174:Generated_Source\PSoC4/cyfitter_cfg.c **** static void cfg_write_bytes32(const uint32 addr_table[], const cy_cfg_addrvalue_t data_table[])
 175:Generated_Source\PSoC4/cyfitter_cfg.c **** {
  27              		.loc 1 175 0
  28              		.cfi_startproc
  29              		@ args = 0, pretend = 0, frame = 0
  30              		@ frame_needed = 0, uses_anonymous_args = 0
  31              	.LVL0:
  32 0000 F0B5     		push	{r4, r5, r6, r7, lr}
  33              		.cfi_def_cfa_offset 20
  34              		.cfi_offset 4, -20
  35              		.cfi_offset 5, -16
  36              		.cfi_offset 6, -12
  37              		.cfi_offset 7, -8
  38              		.cfi_offset 14, -4
  39              	.LVL1:
 176:Generated_Source\PSoC4/cyfitter_cfg.c **** 	/* For 32-bit little-endian architectures */
 177:Generated_Source\PSoC4/cyfitter_cfg.c **** 	uint32 i, j = 0u;
  40              		.loc 1 177 0
  41 0002 0025     		movs	r5, #0
 178:Generated_Source\PSoC4/cyfitter_cfg.c **** 	for (i = 0u; i < CY_CFG_BASE_ADDR_COUNT; i++)
  42              		.loc 1 178 0
  43 0004 0027     		movs	r7, #0
  44 0006 11E0     		b	.L2
  45              	.LVL2:
  46              	.L5:
  47              	.LBB2:
 179:Generated_Source\PSoC4/cyfitter_cfg.c **** 	{
 180:Generated_Source\PSoC4/cyfitter_cfg.c **** 		uint32 baseAddr = addr_table[i];
  48              		.loc 1 180 0
ARM GAS  C:\Users\Roi\AppData\Local\Temp\cco0ItSk.s 			page 5


  49 0008 BB00     		lsls	r3, r7, #2
  50 000a C658     		ldr	r6, [r0, r3]
  51              	.LVL3:
 181:Generated_Source\PSoC4/cyfitter_cfg.c **** 		uint8 count = (uint8)baseAddr;
  52              		.loc 1 181 0
  53 000c F3B2     		uxtb	r3, r6
  54              	.LVL4:
 182:Generated_Source\PSoC4/cyfitter_cfg.c **** 		baseAddr &= 0xFFFFFF00u;
  55              		.loc 1 182 0
  56 000e FF22     		movs	r2, #255
  57 0010 9643     		bics	r6, r2
  58              	.LVL5:
 183:Generated_Source\PSoC4/cyfitter_cfg.c **** 		while (count != 0u)
  59              		.loc 1 183 0
  60 0012 08E0     		b	.L3
  61              	.L4:
 184:Generated_Source\PSoC4/cyfitter_cfg.c **** 		{
 185:Generated_Source\PSoC4/cyfitter_cfg.c **** 			CY_SET_REG8((void *)(baseAddr + data_table[j].offset), data_table[j].value);
  62              		.loc 1 185 0
  63 0014 6A00     		lsls	r2, r5, #1
  64 0016 8A18     		adds	r2, r1, r2
  65 0018 1478     		ldrb	r4, [r2]
  66 001a A419     		adds	r4, r4, r6
  67 001c 5278     		ldrb	r2, [r2, #1]
  68 001e 2270     		strb	r2, [r4]
 186:Generated_Source\PSoC4/cyfitter_cfg.c **** 			j++;
  69              		.loc 1 186 0
  70 0020 0135     		adds	r5, r5, #1
  71              	.LVL6:
 187:Generated_Source\PSoC4/cyfitter_cfg.c **** 			count--;
  72              		.loc 1 187 0
  73 0022 013B     		subs	r3, r3, #1
  74              	.LVL7:
  75 0024 DBB2     		uxtb	r3, r3
  76              	.LVL8:
  77              	.L3:
 183:Generated_Source\PSoC4/cyfitter_cfg.c **** 		{
  78              		.loc 1 183 0
  79 0026 002B     		cmp	r3, #0
  80 0028 F4D1     		bne	.L4
  81              	.LBE2:
 178:Generated_Source\PSoC4/cyfitter_cfg.c **** 	{
  82              		.loc 1 178 0 discriminator 2
  83 002a 0137     		adds	r7, r7, #1
  84              	.LVL9:
  85              	.L2:
 178:Generated_Source\PSoC4/cyfitter_cfg.c **** 	{
  86              		.loc 1 178 0 is_stmt 0 discriminator 1
  87 002c 062F     		cmp	r7, #6
  88 002e EBD9     		bls	.L5
 188:Generated_Source\PSoC4/cyfitter_cfg.c **** 		}
 189:Generated_Source\PSoC4/cyfitter_cfg.c **** 	}
 190:Generated_Source\PSoC4/cyfitter_cfg.c **** }
  89              		.loc 1 190 0 is_stmt 1
  90              		@ sp needed
  91              	.LVL10:
  92              	.LVL11:
ARM GAS  C:\Users\Roi\AppData\Local\Temp\cco0ItSk.s 			page 6


  93 0030 F0BD     		pop	{r4, r5, r6, r7, pc}
  94              		.cfi_endproc
  95              	.LFE5:
  96              		.size	cfg_write_bytes32, .-cfg_write_bytes32
  97 0032 C046     		.section	.text.CYMEMZERO,"ax",%progbits
  98              		.align	2
  99              		.code	16
 100              		.thumb_func
 101              		.type	CYMEMZERO, %function
 102              	CYMEMZERO:
 103              	.LFB2:
  77:Generated_Source\PSoC4/cyfitter_cfg.c **** 	(void)memset(s, 0, n);
 104              		.loc 1 77 0
 105              		.cfi_startproc
 106              		@ args = 0, pretend = 0, frame = 0
 107              		@ frame_needed = 0, uses_anonymous_args = 0
 108              	.LVL12:
 109 0000 10B5     		push	{r4, lr}
 110              		.cfi_def_cfa_offset 8
 111              		.cfi_offset 4, -8
 112              		.cfi_offset 14, -4
 113 0002 0A00     		movs	r2, r1
  78:Generated_Source\PSoC4/cyfitter_cfg.c **** }
 114              		.loc 1 78 0
 115 0004 0021     		movs	r1, #0
 116              	.LVL13:
 117 0006 FFF7FEFF 		bl	memset
 118              	.LVL14:
  79:Generated_Source\PSoC4/cyfitter_cfg.c **** CY_CFG_UNUSED
 119              		.loc 1 79 0
 120              		@ sp needed
 121 000a 10BD     		pop	{r4, pc}
 122              		.cfi_endproc
 123              	.LFE2:
 124              		.size	CYMEMZERO, .-CYMEMZERO
 125              		.section	.psocinit,"ax",%progbits
 126              		.align	2
 127              		.code	16
 128              		.thumb_func
 129              		.type	ClockSetup, %function
 130              	ClockSetup:
 131              	.LFB6:
 191:Generated_Source\PSoC4/cyfitter_cfg.c **** 
 192:Generated_Source\PSoC4/cyfitter_cfg.c **** 
 193:Generated_Source\PSoC4/cyfitter_cfg.c **** /*******************************************************************************
 194:Generated_Source\PSoC4/cyfitter_cfg.c **** * Function Name: ClockSetup
 195:Generated_Source\PSoC4/cyfitter_cfg.c **** ********************************************************************************
 196:Generated_Source\PSoC4/cyfitter_cfg.c **** *
 197:Generated_Source\PSoC4/cyfitter_cfg.c **** * Summary:
 198:Generated_Source\PSoC4/cyfitter_cfg.c **** *   Performs the initialization of all of the clocks in the device based on the
 199:Generated_Source\PSoC4/cyfitter_cfg.c **** *   settings in the Clock tab of the DWR.  This includes enabling the requested
 200:Generated_Source\PSoC4/cyfitter_cfg.c **** *   clocks and setting the necessary dividers to produce the desired frequency. 
 201:Generated_Source\PSoC4/cyfitter_cfg.c **** *
 202:Generated_Source\PSoC4/cyfitter_cfg.c **** * Parameters:
 203:Generated_Source\PSoC4/cyfitter_cfg.c **** *   void
 204:Generated_Source\PSoC4/cyfitter_cfg.c **** *
 205:Generated_Source\PSoC4/cyfitter_cfg.c **** * Return:
ARM GAS  C:\Users\Roi\AppData\Local\Temp\cco0ItSk.s 			page 7


 206:Generated_Source\PSoC4/cyfitter_cfg.c **** *   void
 207:Generated_Source\PSoC4/cyfitter_cfg.c **** *
 208:Generated_Source\PSoC4/cyfitter_cfg.c **** *******************************************************************************/
 209:Generated_Source\PSoC4/cyfitter_cfg.c **** static void ClockSetup(void);
 210:Generated_Source\PSoC4/cyfitter_cfg.c **** CY_CFG_SECTION
 211:Generated_Source\PSoC4/cyfitter_cfg.c **** static void ClockSetup(void)
 212:Generated_Source\PSoC4/cyfitter_cfg.c **** {
 132              		.loc 1 212 0
 133              		.cfi_startproc
 134              		@ args = 0, pretend = 0, frame = 0
 135              		@ frame_needed = 0, uses_anonymous_args = 0
 136 0000 70B5     		push	{r4, r5, r6, lr}
 137              		.cfi_def_cfa_offset 16
 138              		.cfi_offset 4, -16
 139              		.cfi_offset 5, -12
 140              		.cfi_offset 6, -8
 141              		.cfi_offset 14, -4
 213:Generated_Source\PSoC4/cyfitter_cfg.c **** 
 214:Generated_Source\PSoC4/cyfitter_cfg.c **** 	/* Set Flash Cycles based on max possible frequency in case a glitch occurs during ClockSetup(). *
 215:Generated_Source\PSoC4/cyfitter_cfg.c **** 	CY_SET_REG32((void CYXDATA *)(CYREG_CPUSS_FLASH_CTL), (0x0012u));
 142              		.loc 1 215 0
 143 0002 294D     		ldr	r5, .L8
 144 0004 1223     		movs	r3, #18
 145 0006 2B60     		str	r3, [r5]
 216:Generated_Source\PSoC4/cyfitter_cfg.c **** 	/* Setup and trim IMO based on desired frequency. */
 217:Generated_Source\PSoC4/cyfitter_cfg.c **** 	CySysClkWriteImoFreq(24u);
 146              		.loc 1 217 0
 147 0008 1820     		movs	r0, #24
 148 000a FFF7FEFF 		bl	CySysClkWriteImoFreq
 149              	.LVL15:
 218:Generated_Source\PSoC4/cyfitter_cfg.c **** 	/* CYDEV_CLK_ILO_CONFIG Starting address: CYDEV_CLK_ILO_CONFIG */
 219:Generated_Source\PSoC4/cyfitter_cfg.c **** 	CY_SET_REG32((void *)(CYREG_CLK_ILO_CONFIG), 0x80000006u);
 150              		.loc 1 219 0
 151 000e 274A     		ldr	r2, .L8+4
 152 0010 274B     		ldr	r3, .L8+8
 153 0012 1A60     		str	r2, [r3]
 220:Generated_Source\PSoC4/cyfitter_cfg.c **** 
 221:Generated_Source\PSoC4/cyfitter_cfg.c **** 
 222:Generated_Source\PSoC4/cyfitter_cfg.c **** 	/* Enable fast start mode for XO */
 223:Generated_Source\PSoC4/cyfitter_cfg.c **** 	CY_SET_REG32((void*)CYREG_BLE_BLERD_BB_XO, CY_GET_REG32((void*)CYREG_BLE_BLERD_BB_XO) | (uint32)0x
 154              		.loc 1 223 0
 155 0014 274A     		ldr	r2, .L8+12
 156 0016 1168     		ldr	r1, [r2]
 157 0018 0223     		movs	r3, #2
 158 001a 0B43     		orrs	r3, r1
 159 001c 1360     		str	r3, [r2]
 224:Generated_Source\PSoC4/cyfitter_cfg.c **** 	CY_SET_REG32((void *)(CYREG_BLE_BLERD_BB_XO_CAPTRIM), 0x00003E2Du);
 160              		.loc 1 224 0
 161 001e 264A     		ldr	r2, .L8+16
 162 0020 264B     		ldr	r3, .L8+20
 163 0022 1A60     		str	r2, [r3]
 225:Generated_Source\PSoC4/cyfitter_cfg.c **** 	/*Set XTAL(ECO) divider*/
 226:Generated_Source\PSoC4/cyfitter_cfg.c **** 	CY_SET_REG32((void *)(CYREG_BLE_BLESS_XTAL_CLK_DIV_CONFIG), 0x00000000u);
 164              		.loc 1 226 0
 165 0024 0024     		movs	r4, #0
 166 0026 264B     		ldr	r3, .L8+24
 167 0028 1C60     		str	r4, [r3]
ARM GAS  C:\Users\Roi\AppData\Local\Temp\cco0ItSk.s 			page 8


 227:Generated_Source\PSoC4/cyfitter_cfg.c **** 	/* Disable Crystal Stable Interrupt before enabling ECO */
 228:Generated_Source\PSoC4/cyfitter_cfg.c **** 	CY_SET_REG32((void*)CYREG_BLE_BLESS_LL_DSM_CTRL, CY_GET_REG32((void*)CYREG_BLE_BLESS_LL_DSM_CTRL) 
 168              		.loc 1 228 0
 169 002a 264A     		ldr	r2, .L8+28
 170 002c 1368     		ldr	r3, [r2]
 171 002e 0821     		movs	r1, #8
 172 0030 8B43     		bics	r3, r1
 173 0032 1360     		str	r3, [r2]
 229:Generated_Source\PSoC4/cyfitter_cfg.c **** 	/* Start the ECO and do not check status since it is not needed for HFCLK */
 230:Generated_Source\PSoC4/cyfitter_cfg.c **** 	(void)CySysClkEcoStart(2000u);
 174              		.loc 1 230 0
 175 0034 FA20     		movs	r0, #250
 176 0036 C000     		lsls	r0, r0, #3
 177 0038 FFF7FEFF 		bl	CySysClkEcoStart
 178              	.LVL16:
 231:Generated_Source\PSoC4/cyfitter_cfg.c **** 	CyDelayUs(1500u); /* Wait to stabilize */
 179              		.loc 1 231 0
 180 003c 2248     		ldr	r0, .L8+32
 181 003e FFF7FEFF 		bl	CyDelayUs
 182              	.LVL17:
 232:Generated_Source\PSoC4/cyfitter_cfg.c **** 
 233:Generated_Source\PSoC4/cyfitter_cfg.c **** 	/* Setup phase aligned clocks */
 234:Generated_Source\PSoC4/cyfitter_cfg.c **** 	CY_SET_REG32((void *)CYREG_PERI_DIV_16_CTL3, 0x00F60F00u);
 183              		.loc 1 234 0
 184 0042 224A     		ldr	r2, .L8+36
 185 0044 224B     		ldr	r3, .L8+40
 186 0046 1A60     		str	r2, [r3]
 235:Generated_Source\PSoC4/cyfitter_cfg.c **** 	CY_SET_REG32((void *)CYREG_PERI_DIV_CMD, 0x8000FF43u);
 187              		.loc 1 235 0
 188 0048 224B     		ldr	r3, .L8+44
 189 004a 234A     		ldr	r2, .L8+48
 190 004c 1A60     		str	r2, [r3]
 236:Generated_Source\PSoC4/cyfitter_cfg.c **** 	CY_SET_REG32((void *)CYREG_PERI_DIV_16_CTL2, 0x005DBF00u);
 191              		.loc 1 236 0
 192 004e 234A     		ldr	r2, .L8+52
 193 0050 2349     		ldr	r1, .L8+56
 194 0052 0A60     		str	r2, [r1]
 237:Generated_Source\PSoC4/cyfitter_cfg.c **** 	CY_SET_REG32((void *)CYREG_PERI_DIV_CMD, 0x8000FF42u);
 195              		.loc 1 237 0
 196 0054 2349     		ldr	r1, .L8+60
 197 0056 1960     		str	r1, [r3]
 238:Generated_Source\PSoC4/cyfitter_cfg.c **** 	CY_SET_REG32((void *)CYREG_PERI_DIV_16_CTL1, 0x005DBF00u);
 198              		.loc 1 238 0
 199 0058 2349     		ldr	r1, .L8+64
 200 005a 0A60     		str	r2, [r1]
 239:Generated_Source\PSoC4/cyfitter_cfg.c **** 	CY_SET_REG32((void *)CYREG_PERI_DIV_CMD, 0x8000FF41u);
 201              		.loc 1 239 0
 202 005c 234A     		ldr	r2, .L8+68
 203 005e 1A60     		str	r2, [r3]
 240:Generated_Source\PSoC4/cyfitter_cfg.c **** 	CY_SET_REG32((void *)CYREG_PERI_DIV_16_CTL0, 0x00000400u);
 204              		.loc 1 240 0
 205 0060 8021     		movs	r1, #128
 206 0062 C900     		lsls	r1, r1, #3
 207 0064 224A     		ldr	r2, .L8+72
 208 0066 1160     		str	r1, [r2]
 241:Generated_Source\PSoC4/cyfitter_cfg.c **** 	CY_SET_REG32((void *)CYREG_PERI_DIV_CMD, 0x8000FF40u);
 209              		.loc 1 241 0
ARM GAS  C:\Users\Roi\AppData\Local\Temp\cco0ItSk.s 			page 9


 210 0068 224A     		ldr	r2, .L8+76
 211 006a 1A60     		str	r2, [r3]
 242:Generated_Source\PSoC4/cyfitter_cfg.c **** 
 243:Generated_Source\PSoC4/cyfitter_cfg.c **** 	/* CYDEV_CLK_IMO_CONFIG Starting address: CYDEV_CLK_IMO_CONFIG */
 244:Generated_Source\PSoC4/cyfitter_cfg.c **** 	CY_SET_REG32((void *)(CYREG_CLK_IMO_CONFIG), 0x82000000u);
 212              		.loc 1 244 0
 213 006c 8222     		movs	r2, #130
 214 006e 1206     		lsls	r2, r2, #24
 215 0070 214B     		ldr	r3, .L8+80
 216 0072 1A60     		str	r2, [r3]
 245:Generated_Source\PSoC4/cyfitter_cfg.c **** 
 246:Generated_Source\PSoC4/cyfitter_cfg.c **** 	/* CYDEV_CLK_SELECT Starting address: CYDEV_CLK_SELECT */
 247:Generated_Source\PSoC4/cyfitter_cfg.c **** 	CY_SET_REG32((void *)(CYREG_CLK_SELECT), 0x00000000u);
 217              		.loc 1 247 0
 218 0074 214B     		ldr	r3, .L8+84
 219 0076 1C60     		str	r4, [r3]
 248:Generated_Source\PSoC4/cyfitter_cfg.c **** 
 249:Generated_Source\PSoC4/cyfitter_cfg.c **** 	/* CYDEV_PERI_PCLK_CTL11 Starting address: CYDEV_PERI_PCLK_CTL11 */
 250:Generated_Source\PSoC4/cyfitter_cfg.c **** 	CY_SET_REG32((void *)(CYREG_PERI_PCLK_CTL11), 0x00000043u);
 220              		.loc 1 250 0
 221 0078 4322     		movs	r2, #67
 222 007a 214B     		ldr	r3, .L8+88
 223 007c 1A60     		str	r2, [r3]
 251:Generated_Source\PSoC4/cyfitter_cfg.c **** 
 252:Generated_Source\PSoC4/cyfitter_cfg.c **** 	/* CYDEV_PERI_PCLK_CTL8 Starting address: CYDEV_PERI_PCLK_CTL8 */
 253:Generated_Source\PSoC4/cyfitter_cfg.c **** 	CY_SET_REG32((void *)(CYREG_PERI_PCLK_CTL8), 0x00000042u);
 224              		.loc 1 253 0
 225 007e 013A     		subs	r2, r2, #1
 226 0080 204B     		ldr	r3, .L8+92
 227 0082 1A60     		str	r2, [r3]
 254:Generated_Source\PSoC4/cyfitter_cfg.c **** 
 255:Generated_Source\PSoC4/cyfitter_cfg.c **** 	/* CYDEV_PERI_PCLK_CTL7 Starting address: CYDEV_PERI_PCLK_CTL7 */
 256:Generated_Source\PSoC4/cyfitter_cfg.c **** 	CY_SET_REG32((void *)(CYREG_PERI_PCLK_CTL7), 0x00000041u);
 228              		.loc 1 256 0
 229 0084 013A     		subs	r2, r2, #1
 230 0086 204B     		ldr	r3, .L8+96
 231 0088 1A60     		str	r2, [r3]
 257:Generated_Source\PSoC4/cyfitter_cfg.c **** 
 258:Generated_Source\PSoC4/cyfitter_cfg.c **** 	/* CYDEV_PERI_PCLK_CTL6 Starting address: CYDEV_PERI_PCLK_CTL6 */
 259:Generated_Source\PSoC4/cyfitter_cfg.c **** 	CY_SET_REG32((void *)(CYREG_PERI_PCLK_CTL6), 0x00000040u);
 232              		.loc 1 259 0
 233 008a 013A     		subs	r2, r2, #1
 234 008c 1F4B     		ldr	r3, .L8+100
 235 008e 1A60     		str	r2, [r3]
 260:Generated_Source\PSoC4/cyfitter_cfg.c **** 
 261:Generated_Source\PSoC4/cyfitter_cfg.c **** 	(void)CyIntSetVector(8u, &CySysWdtIsr);
 236              		.loc 1 261 0
 237 0090 1F49     		ldr	r1, .L8+104
 238 0092 0820     		movs	r0, #8
 239 0094 FFF7FEFF 		bl	CyIntSetVector
 240              	.LVL18:
 262:Generated_Source\PSoC4/cyfitter_cfg.c **** 	CyIntEnable(8u);
 241              		.loc 1 262 0
 242 0098 0820     		movs	r0, #8
 243 009a FFF7FEFF 		bl	CyIntEnable
 244              	.LVL19:
 263:Generated_Source\PSoC4/cyfitter_cfg.c **** 	CY_SET_REG32((void *)(CYREG_WDT_CONFIG), 0x00000000u);
ARM GAS  C:\Users\Roi\AppData\Local\Temp\cco0ItSk.s 			page 10


 245              		.loc 1 263 0
 246 009e 1D4B     		ldr	r3, .L8+108
 247 00a0 1C60     		str	r4, [r3]
 264:Generated_Source\PSoC4/cyfitter_cfg.c **** 	/* Set Flash Cycles based on newly configured 24.00MHz HFCLK. */
 265:Generated_Source\PSoC4/cyfitter_cfg.c **** 	CY_SET_REG32((void CYXDATA *)(CYREG_CPUSS_FLASH_CTL), (0x0011u));
 248              		.loc 1 265 0
 249 00a2 1123     		movs	r3, #17
 250 00a4 2B60     		str	r3, [r5]
 266:Generated_Source\PSoC4/cyfitter_cfg.c **** }
 251              		.loc 1 266 0
 252              		@ sp needed
 253 00a6 70BD     		pop	{r4, r5, r6, pc}
 254              	.L9:
 255              		.align	2
 256              	.L8:
 257 00a8 30001040 		.word	1074790448
 258 00ac 06000080 		.word	-2147483642
 259 00b0 04010B40 		.word	1074462980
 260 00b4 78002E40 		.word	1076756600
 261 00b8 2D3E0000 		.word	15917
 262 00bc 7C002E40 		.word	1076756604
 263 00c0 64F02E40 		.word	1076818020
 264 00c4 6CF02E40 		.word	1076818028
 265 00c8 DC050000 		.word	1500
 266 00cc 000FF600 		.word	16125696
 267 00d0 0C030140 		.word	1073808140
 268 00d4 00000140 		.word	1073807360
 269 00d8 43FF0080 		.word	-2147418301
 270 00dc 00BF5D00 		.word	6143744
 271 00e0 08030140 		.word	1073808136
 272 00e4 42FF0080 		.word	-2147418302
 273 00e8 04030140 		.word	1073808132
 274 00ec 41FF0080 		.word	-2147418303
 275 00f0 00030140 		.word	1073808128
 276 00f4 40FF0080 		.word	-2147418304
 277 00f8 08010B40 		.word	1074462984
 278 00fc 00010B40 		.word	1074462976
 279 0100 2C010140 		.word	1073807660
 280 0104 20010140 		.word	1073807648
 281 0108 1C010140 		.word	1073807644
 282 010c 18010140 		.word	1073807640
 283 0110 00000000 		.word	CySysWdtIsr
 284 0114 0C020B40 		.word	1074463244
 285              		.cfi_endproc
 286              	.LFE6:
 287              		.size	ClockSetup, .-ClockSetup
 288              		.section	.text.SetAnalogRoutingPumps,"ax",%progbits
 289              		.align	2
 290              		.global	SetAnalogRoutingPumps
 291              		.code	16
 292              		.thumb_func
 293              		.type	SetAnalogRoutingPumps, %function
 294              	SetAnalogRoutingPumps:
 295              	.LFB8:
 267:Generated_Source\PSoC4/cyfitter_cfg.c **** 
 268:Generated_Source\PSoC4/cyfitter_cfg.c **** 
 269:Generated_Source\PSoC4/cyfitter_cfg.c **** /* Analog API Functions */
ARM GAS  C:\Users\Roi\AppData\Local\Temp\cco0ItSk.s 			page 11


 270:Generated_Source\PSoC4/cyfitter_cfg.c **** 
 271:Generated_Source\PSoC4/cyfitter_cfg.c **** 
 272:Generated_Source\PSoC4/cyfitter_cfg.c **** /*******************************************************************************
 273:Generated_Source\PSoC4/cyfitter_cfg.c **** * Function Name: AnalogSetDefault
 274:Generated_Source\PSoC4/cyfitter_cfg.c **** ********************************************************************************
 275:Generated_Source\PSoC4/cyfitter_cfg.c **** *
 276:Generated_Source\PSoC4/cyfitter_cfg.c **** * Summary:
 277:Generated_Source\PSoC4/cyfitter_cfg.c **** *  Sets up the analog portions of the chip to default values based on chip
 278:Generated_Source\PSoC4/cyfitter_cfg.c **** *  configuration options from the project.
 279:Generated_Source\PSoC4/cyfitter_cfg.c **** *
 280:Generated_Source\PSoC4/cyfitter_cfg.c **** * Parameters:
 281:Generated_Source\PSoC4/cyfitter_cfg.c **** *  void
 282:Generated_Source\PSoC4/cyfitter_cfg.c **** *
 283:Generated_Source\PSoC4/cyfitter_cfg.c **** * Return:
 284:Generated_Source\PSoC4/cyfitter_cfg.c **** *  void
 285:Generated_Source\PSoC4/cyfitter_cfg.c **** *
 286:Generated_Source\PSoC4/cyfitter_cfg.c **** *******************************************************************************/
 287:Generated_Source\PSoC4/cyfitter_cfg.c **** static void AnalogSetDefault(void);
 288:Generated_Source\PSoC4/cyfitter_cfg.c **** static void AnalogSetDefault(void)
 289:Generated_Source\PSoC4/cyfitter_cfg.c **** {
 290:Generated_Source\PSoC4/cyfitter_cfg.c **** 	CY_SET_XTND_REG32((void CYFAR *)CYREG_CTBM0_DFT_CTRL, 0x00000003u);
 291:Generated_Source\PSoC4/cyfitter_cfg.c **** 	CY_SET_XTND_REG32((void CYFAR *)CYREG_CTBM1_DFT_CTRL, 0x00000003u);
 292:Generated_Source\PSoC4/cyfitter_cfg.c **** 	CY_SET_XTND_REG32((void CYFAR *)CYREG_SAR_CTRL, 0x80000000u);
 293:Generated_Source\PSoC4/cyfitter_cfg.c **** 	CY_SET_XTND_REG32((void CYFAR *)CYREG_SAR_MUX_SWITCH0, 0x00000003u);
 294:Generated_Source\PSoC4/cyfitter_cfg.c **** 	CY_SET_XTND_REG32((void CYFAR *)CYREG_SAR_MUX_SWITCH_HW_CTRL, 0x00000003u);
 295:Generated_Source\PSoC4/cyfitter_cfg.c **** 	CY_SET_XTND_REG32((void CYFAR *)CYREG_PASS_DSAB_DSAB_CTRL, 0x00000000u);
 296:Generated_Source\PSoC4/cyfitter_cfg.c **** 	SetAnalogRoutingPumps(1);
 297:Generated_Source\PSoC4/cyfitter_cfg.c **** }
 298:Generated_Source\PSoC4/cyfitter_cfg.c **** 
 299:Generated_Source\PSoC4/cyfitter_cfg.c **** 
 300:Generated_Source\PSoC4/cyfitter_cfg.c **** /*******************************************************************************
 301:Generated_Source\PSoC4/cyfitter_cfg.c **** * Function Name: SetAnalogRoutingPumps
 302:Generated_Source\PSoC4/cyfitter_cfg.c **** ********************************************************************************
 303:Generated_Source\PSoC4/cyfitter_cfg.c **** *
 304:Generated_Source\PSoC4/cyfitter_cfg.c **** * Summary:
 305:Generated_Source\PSoC4/cyfitter_cfg.c **** * Enables or disables the analog pumps feeding analog routing switches.
 306:Generated_Source\PSoC4/cyfitter_cfg.c **** * Intended to be called at startup, based on the Vdda system configuration;
 307:Generated_Source\PSoC4/cyfitter_cfg.c **** * may be called during operation when the user informs us that the Vdda voltage crossed the pump th
 308:Generated_Source\PSoC4/cyfitter_cfg.c **** *
 309:Generated_Source\PSoC4/cyfitter_cfg.c **** * Parameters:
 310:Generated_Source\PSoC4/cyfitter_cfg.c **** *  enabled - 1 to enable the pumps, 0 to disable the pumps
 311:Generated_Source\PSoC4/cyfitter_cfg.c **** *
 312:Generated_Source\PSoC4/cyfitter_cfg.c **** * Return:
 313:Generated_Source\PSoC4/cyfitter_cfg.c **** *  void
 314:Generated_Source\PSoC4/cyfitter_cfg.c **** *
 315:Generated_Source\PSoC4/cyfitter_cfg.c **** *******************************************************************************/
 316:Generated_Source\PSoC4/cyfitter_cfg.c **** void SetAnalogRoutingPumps(uint8 enabled)
 317:Generated_Source\PSoC4/cyfitter_cfg.c **** {
 296              		.loc 1 317 0
 297              		.cfi_startproc
 298              		@ args = 0, pretend = 0, frame = 0
 299              		@ frame_needed = 0, uses_anonymous_args = 0
 300              		@ link register save eliminated.
 301              	.LVL20:
 318:Generated_Source\PSoC4/cyfitter_cfg.c **** 	uint32 regValue = CY_GET_XTND_REG32((void *)(CYREG_SAR_PUMP_CTRL));
 302              		.loc 1 318 0
 303 0000 064B     		ldr	r3, .L13
ARM GAS  C:\Users\Roi\AppData\Local\Temp\cco0ItSk.s 			page 12


 304 0002 1B68     		ldr	r3, [r3]
 305              	.LVL21:
 319:Generated_Source\PSoC4/cyfitter_cfg.c **** 	if (enabled != 0u)
 306              		.loc 1 319 0
 307 0004 0028     		cmp	r0, #0
 308 0006 03D0     		beq	.L11
 320:Generated_Source\PSoC4/cyfitter_cfg.c **** 	{
 321:Generated_Source\PSoC4/cyfitter_cfg.c **** 		regValue |= 0x80000000u;
 309              		.loc 1 321 0
 310 0008 8022     		movs	r2, #128
 311 000a 1206     		lsls	r2, r2, #24
 312 000c 1343     		orrs	r3, r2
 313              	.LVL22:
 314 000e 01E0     		b	.L12
 315              	.L11:
 322:Generated_Source\PSoC4/cyfitter_cfg.c **** 	}
 323:Generated_Source\PSoC4/cyfitter_cfg.c **** 	else
 324:Generated_Source\PSoC4/cyfitter_cfg.c **** 	{
 325:Generated_Source\PSoC4/cyfitter_cfg.c **** 		regValue &= ~0x80000000u;
 316              		.loc 1 325 0
 317 0010 5B00     		lsls	r3, r3, #1
 318              	.LVL23:
 319 0012 5B08     		lsrs	r3, r3, #1
 320              	.LVL24:
 321              	.L12:
 326:Generated_Source\PSoC4/cyfitter_cfg.c **** 	}
 327:Generated_Source\PSoC4/cyfitter_cfg.c **** 	CY_SET_XTND_REG32((void *)(CYREG_SAR_PUMP_CTRL), regValue);
 322              		.loc 1 327 0
 323 0014 014A     		ldr	r2, .L13
 324 0016 1360     		str	r3, [r2]
 328:Generated_Source\PSoC4/cyfitter_cfg.c **** }
 325              		.loc 1 328 0
 326              		@ sp needed
 327 0018 7047     		bx	lr
 328              	.L14:
 329 001a C046     		.align	2
 330              	.L13:
 331 001c 80033A40 		.word	1077543808
 332              		.cfi_endproc
 333              	.LFE8:
 334              		.size	SetAnalogRoutingPumps, .-SetAnalogRoutingPumps
 335              		.section	.text.AnalogSetDefault,"ax",%progbits
 336              		.align	2
 337              		.code	16
 338              		.thumb_func
 339              		.type	AnalogSetDefault, %function
 340              	AnalogSetDefault:
 341              	.LFB7:
 289:Generated_Source\PSoC4/cyfitter_cfg.c **** 	CY_SET_XTND_REG32((void CYFAR *)CYREG_CTBM0_DFT_CTRL, 0x00000003u);
 342              		.loc 1 289 0
 343              		.cfi_startproc
 344              		@ args = 0, pretend = 0, frame = 0
 345              		@ frame_needed = 0, uses_anonymous_args = 0
 346 0000 10B5     		push	{r4, lr}
 347              		.cfi_def_cfa_offset 8
 348              		.cfi_offset 4, -8
 349              		.cfi_offset 14, -4
ARM GAS  C:\Users\Roi\AppData\Local\Temp\cco0ItSk.s 			page 13


 290:Generated_Source\PSoC4/cyfitter_cfg.c **** 	CY_SET_XTND_REG32((void CYFAR *)CYREG_CTBM1_DFT_CTRL, 0x00000003u);
 350              		.loc 1 290 0
 351 0002 0323     		movs	r3, #3
 352 0004 094A     		ldr	r2, .L16
 353 0006 1360     		str	r3, [r2]
 291:Generated_Source\PSoC4/cyfitter_cfg.c **** 	CY_SET_XTND_REG32((void CYFAR *)CYREG_SAR_CTRL, 0x80000000u);
 354              		.loc 1 291 0
 355 0008 094A     		ldr	r2, .L16+4
 356 000a 1360     		str	r3, [r2]
 292:Generated_Source\PSoC4/cyfitter_cfg.c **** 	CY_SET_XTND_REG32((void CYFAR *)CYREG_SAR_MUX_SWITCH0, 0x00000003u);
 357              		.loc 1 292 0
 358 000c 8021     		movs	r1, #128
 359 000e 0906     		lsls	r1, r1, #24
 360 0010 084A     		ldr	r2, .L16+8
 361 0012 1160     		str	r1, [r2]
 293:Generated_Source\PSoC4/cyfitter_cfg.c **** 	CY_SET_XTND_REG32((void CYFAR *)CYREG_SAR_MUX_SWITCH_HW_CTRL, 0x00000003u);
 362              		.loc 1 293 0
 363 0014 084A     		ldr	r2, .L16+12
 364 0016 1360     		str	r3, [r2]
 294:Generated_Source\PSoC4/cyfitter_cfg.c **** 	CY_SET_XTND_REG32((void CYFAR *)CYREG_PASS_DSAB_DSAB_CTRL, 0x00000000u);
 365              		.loc 1 294 0
 366 0018 084A     		ldr	r2, .L16+16
 367 001a 1360     		str	r3, [r2]
 295:Generated_Source\PSoC4/cyfitter_cfg.c **** 	SetAnalogRoutingPumps(1);
 368              		.loc 1 295 0
 369 001c 0022     		movs	r2, #0
 370 001e 084B     		ldr	r3, .L16+20
 371 0020 1A60     		str	r2, [r3]
 296:Generated_Source\PSoC4/cyfitter_cfg.c **** }
 372              		.loc 1 296 0
 373 0022 0120     		movs	r0, #1
 374 0024 FFF7FEFF 		bl	SetAnalogRoutingPumps
 375              	.LVL25:
 297:Generated_Source\PSoC4/cyfitter_cfg.c **** 
 376              		.loc 1 297 0
 377              		@ sp needed
 378 0028 10BD     		pop	{r4, pc}
 379              	.L17:
 380 002a C046     		.align	2
 381              	.L16:
 382 002c 30003040 		.word	1076887600
 383 0030 30003140 		.word	1076953136
 384 0034 00003A40 		.word	1077542912
 385 0038 00033A40 		.word	1077543680
 386 003c 40033A40 		.word	1077543744
 387 0040 000E3F40 		.word	1077874176
 388              		.cfi_endproc
 389              	.LFE7:
 390              		.size	AnalogSetDefault, .-AnalogSetDefault
 391              		.section	.psocinit
 392              		.align	2
 393              		.global	cyfitter_cfg
 394              		.code	16
 395              		.thumb_func
 396              		.type	cyfitter_cfg, %function
 397              	cyfitter_cfg:
 398              	.LFB9:
ARM GAS  C:\Users\Roi\AppData\Local\Temp\cco0ItSk.s 			page 14


 329:Generated_Source\PSoC4/cyfitter_cfg.c **** 
 330:Generated_Source\PSoC4/cyfitter_cfg.c **** 
 331:Generated_Source\PSoC4/cyfitter_cfg.c **** 
 332:Generated_Source\PSoC4/cyfitter_cfg.c **** 
 333:Generated_Source\PSoC4/cyfitter_cfg.c **** /*******************************************************************************
 334:Generated_Source\PSoC4/cyfitter_cfg.c **** * Function Name: cyfitter_cfg
 335:Generated_Source\PSoC4/cyfitter_cfg.c **** ********************************************************************************
 336:Generated_Source\PSoC4/cyfitter_cfg.c **** * Summary:
 337:Generated_Source\PSoC4/cyfitter_cfg.c **** *  This function is called by the start-up code for the selected device. It
 338:Generated_Source\PSoC4/cyfitter_cfg.c **** *  performs all of the necessary device configuration based on the design
 339:Generated_Source\PSoC4/cyfitter_cfg.c **** *  settings.  This includes settings from the Design Wide Resources (DWR) such
 340:Generated_Source\PSoC4/cyfitter_cfg.c **** *  as Clocks and Pins as well as any component configuration that is necessary.
 341:Generated_Source\PSoC4/cyfitter_cfg.c **** *
 342:Generated_Source\PSoC4/cyfitter_cfg.c **** * Parameters:
 343:Generated_Source\PSoC4/cyfitter_cfg.c **** *   void
 344:Generated_Source\PSoC4/cyfitter_cfg.c **** *
 345:Generated_Source\PSoC4/cyfitter_cfg.c **** * Return:
 346:Generated_Source\PSoC4/cyfitter_cfg.c **** *   void
 347:Generated_Source\PSoC4/cyfitter_cfg.c **** *
 348:Generated_Source\PSoC4/cyfitter_cfg.c **** *******************************************************************************/
 349:Generated_Source\PSoC4/cyfitter_cfg.c **** CY_CFG_SECTION
 350:Generated_Source\PSoC4/cyfitter_cfg.c **** void cyfitter_cfg(void)
 351:Generated_Source\PSoC4/cyfitter_cfg.c **** {
 399              		.loc 1 351 0
 400              		.cfi_startproc
 401              		@ args = 0, pretend = 0, frame = 0
 402              		@ frame_needed = 0, uses_anonymous_args = 0
 403 0118 10B5     		push	{r4, lr}
 404              		.cfi_def_cfa_offset 8
 405              		.cfi_offset 4, -8
 406              		.cfi_offset 14, -4
 352:Generated_Source\PSoC4/cyfitter_cfg.c **** 	/* Disable interrupts by default. Let user enable if/when they want. */
 353:Generated_Source\PSoC4/cyfitter_cfg.c **** 	CyGlobalIntDisable;
 407              		.loc 1 353 0
 408              		.syntax divided
 409              	@ 353 "Generated_Source\PSoC4\cyfitter_cfg.c" 1
 410 011a 72B6     		CPSID   i
 411              	@ 0 "" 2
 354:Generated_Source\PSoC4/cyfitter_cfg.c **** 
 355:Generated_Source\PSoC4/cyfitter_cfg.c **** 	CY_SET_REG32((void *)(CYREG_BLE_BLESS_LL_DSM_CTRL), 0x00000000u);
 412              		.loc 1 355 0
 413              		.thumb
 414              		.syntax unified
 415 011c 0022     		movs	r2, #0
 416 011e 314B     		ldr	r3, .L21
 417 0120 1A60     		str	r2, [r3]
 356:Generated_Source\PSoC4/cyfitter_cfg.c **** 
 357:Generated_Source\PSoC4/cyfitter_cfg.c **** 	/* Enable the clock in the interrupt controller for the routed interrupts */
 358:Generated_Source\PSoC4/cyfitter_cfg.c **** 	CY_SET_REG8((void *)CYREG_UDB_UDBIF_INT_CLK_CTL, 0x01u);
 418              		.loc 1 358 0
 419 0122 0132     		adds	r2, r2, #1
 420 0124 304B     		ldr	r3, .L21+4
 421 0126 1A70     		strb	r2, [r3]
 422              	.LVL26:
 423              	.LBB3:
 359:Generated_Source\PSoC4/cyfitter_cfg.c **** 	{
 360:Generated_Source\PSoC4/cyfitter_cfg.c **** 		static const uint32 CYCODE cy_cfg_addr_table[] = {
ARM GAS  C:\Users\Roi\AppData\Local\Temp\cco0ItSk.s 			page 15


 361:Generated_Source\PSoC4/cyfitter_cfg.c **** 			0x400F3011u, /* Base address: 0x400F3000 Count: 17 */
 362:Generated_Source\PSoC4/cyfitter_cfg.c **** 			0x400F3111u, /* Base address: 0x400F3100 Count: 17 */
 363:Generated_Source\PSoC4/cyfitter_cfg.c **** 			0x400F3304u, /* Base address: 0x400F3300 Count: 4 */
 364:Generated_Source\PSoC4/cyfitter_cfg.c **** 			0x400F4006u, /* Base address: 0x400F4000 Count: 6 */
 365:Generated_Source\PSoC4/cyfitter_cfg.c **** 			0x400F410Du, /* Base address: 0x400F4100 Count: 13 */
 366:Generated_Source\PSoC4/cyfitter_cfg.c **** 			0x400F4307u, /* Base address: 0x400F4300 Count: 7 */
 367:Generated_Source\PSoC4/cyfitter_cfg.c **** 			0x400F6002u, /* Base address: 0x400F6000 Count: 2 */
 368:Generated_Source\PSoC4/cyfitter_cfg.c **** 		};
 369:Generated_Source\PSoC4/cyfitter_cfg.c **** 
 370:Generated_Source\PSoC4/cyfitter_cfg.c **** 		static const cy_cfg_addrvalue_t CYCODE cy_cfg_data_table[] = {
 371:Generated_Source\PSoC4/cyfitter_cfg.c **** 			{0x86u, 0x04u},
 372:Generated_Source\PSoC4/cyfitter_cfg.c **** 			{0x88u, 0x08u},
 373:Generated_Source\PSoC4/cyfitter_cfg.c **** 			{0x96u, 0x03u},
 374:Generated_Source\PSoC4/cyfitter_cfg.c **** 			{0x98u, 0x01u},
 375:Generated_Source\PSoC4/cyfitter_cfg.c **** 			{0x9Fu, 0x01u},
 376:Generated_Source\PSoC4/cyfitter_cfg.c **** 			{0xA7u, 0x02u},
 377:Generated_Source\PSoC4/cyfitter_cfg.c **** 			{0xAAu, 0x08u},
 378:Generated_Source\PSoC4/cyfitter_cfg.c **** 			{0xB0u, 0x08u},
 379:Generated_Source\PSoC4/cyfitter_cfg.c **** 			{0xB1u, 0x02u},
 380:Generated_Source\PSoC4/cyfitter_cfg.c **** 			{0xB2u, 0x04u},
 381:Generated_Source\PSoC4/cyfitter_cfg.c **** 			{0xB3u, 0x02u},
 382:Generated_Source\PSoC4/cyfitter_cfg.c **** 			{0xB4u, 0x02u},
 383:Generated_Source\PSoC4/cyfitter_cfg.c **** 			{0xB5u, 0x01u},
 384:Generated_Source\PSoC4/cyfitter_cfg.c **** 			{0xB6u, 0x01u},
 385:Generated_Source\PSoC4/cyfitter_cfg.c **** 			{0xD8u, 0x04u},
 386:Generated_Source\PSoC4/cyfitter_cfg.c **** 			{0xD9u, 0x04u},
 387:Generated_Source\PSoC4/cyfitter_cfg.c **** 			{0xDFu, 0x01u},
 388:Generated_Source\PSoC4/cyfitter_cfg.c **** 			{0x06u, 0x20u},
 389:Generated_Source\PSoC4/cyfitter_cfg.c **** 			{0x07u, 0x08u},
 390:Generated_Source\PSoC4/cyfitter_cfg.c **** 			{0x0Eu, 0x28u},
 391:Generated_Source\PSoC4/cyfitter_cfg.c **** 			{0x17u, 0x20u},
 392:Generated_Source\PSoC4/cyfitter_cfg.c **** 			{0x1Eu, 0x28u},
 393:Generated_Source\PSoC4/cyfitter_cfg.c **** 			{0x1Fu, 0x42u},
 394:Generated_Source\PSoC4/cyfitter_cfg.c **** 			{0x27u, 0x68u},
 395:Generated_Source\PSoC4/cyfitter_cfg.c **** 			{0x2Fu, 0x10u},
 396:Generated_Source\PSoC4/cyfitter_cfg.c **** 			{0x37u, 0x40u},
 397:Generated_Source\PSoC4/cyfitter_cfg.c **** 			{0x87u, 0x02u},
 398:Generated_Source\PSoC4/cyfitter_cfg.c **** 			{0x8Bu, 0x40u},
 399:Generated_Source\PSoC4/cyfitter_cfg.c **** 			{0xC0u, 0x60u},
 400:Generated_Source\PSoC4/cyfitter_cfg.c **** 			{0xC2u, 0x60u},
 401:Generated_Source\PSoC4/cyfitter_cfg.c **** 			{0xC4u, 0x40u},
 402:Generated_Source\PSoC4/cyfitter_cfg.c **** 			{0xCAu, 0x40u},
 403:Generated_Source\PSoC4/cyfitter_cfg.c **** 			{0xCCu, 0x10u},
 404:Generated_Source\PSoC4/cyfitter_cfg.c **** 			{0xE6u, 0x80u},
 405:Generated_Source\PSoC4/cyfitter_cfg.c **** 			{0xAEu, 0x20u},
 406:Generated_Source\PSoC4/cyfitter_cfg.c **** 			{0xAFu, 0x10u},
 407:Generated_Source\PSoC4/cyfitter_cfg.c **** 			{0xE2u, 0x10u},
 408:Generated_Source\PSoC4/cyfitter_cfg.c **** 			{0xE6u, 0x10u},
 409:Generated_Source\PSoC4/cyfitter_cfg.c **** 			{0x0Bu, 0x40u},
 410:Generated_Source\PSoC4/cyfitter_cfg.c **** 			{0x0Fu, 0x10u},
 411:Generated_Source\PSoC4/cyfitter_cfg.c **** 			{0x84u, 0x02u},
 412:Generated_Source\PSoC4/cyfitter_cfg.c **** 			{0x89u, 0x01u},
 413:Generated_Source\PSoC4/cyfitter_cfg.c **** 			{0xC2u, 0x30u},
 414:Generated_Source\PSoC4/cyfitter_cfg.c **** 			{0xE2u, 0x10u},
 415:Generated_Source\PSoC4/cyfitter_cfg.c **** 			{0x69u, 0x01u},
 416:Generated_Source\PSoC4/cyfitter_cfg.c **** 			{0x6Cu, 0x02u},
 417:Generated_Source\PSoC4/cyfitter_cfg.c **** 			{0x76u, 0x04u},
ARM GAS  C:\Users\Roi\AppData\Local\Temp\cco0ItSk.s 			page 16


 418:Generated_Source\PSoC4/cyfitter_cfg.c **** 			{0x78u, 0x80u},
 419:Generated_Source\PSoC4/cyfitter_cfg.c **** 			{0x8Cu, 0x80u},
 420:Generated_Source\PSoC4/cyfitter_cfg.c **** 			{0x8Eu, 0x04u},
 421:Generated_Source\PSoC4/cyfitter_cfg.c **** 			{0x91u, 0x01u},
 422:Generated_Source\PSoC4/cyfitter_cfg.c **** 			{0xA0u, 0x02u},
 423:Generated_Source\PSoC4/cyfitter_cfg.c **** 			{0xAFu, 0x50u},
 424:Generated_Source\PSoC4/cyfitter_cfg.c **** 			{0xDAu, 0x80u},
 425:Generated_Source\PSoC4/cyfitter_cfg.c **** 			{0xDCu, 0xE0u},
 426:Generated_Source\PSoC4/cyfitter_cfg.c **** 			{0xE8u, 0x10u},
 427:Generated_Source\PSoC4/cyfitter_cfg.c **** 			{0xECu, 0x40u},
 428:Generated_Source\PSoC4/cyfitter_cfg.c **** 			{0x11u, 0x02u},
 429:Generated_Source\PSoC4/cyfitter_cfg.c **** 			{0x16u, 0x80u},
 430:Generated_Source\PSoC4/cyfitter_cfg.c **** 			{0x8Du, 0x01u},
 431:Generated_Source\PSoC4/cyfitter_cfg.c **** 			{0x8Eu, 0x80u},
 432:Generated_Source\PSoC4/cyfitter_cfg.c **** 			{0xC4u, 0x0Cu},
 433:Generated_Source\PSoC4/cyfitter_cfg.c **** 			{0xE2u, 0x08u},
 434:Generated_Source\PSoC4/cyfitter_cfg.c **** 			{0xE6u, 0x08u},
 435:Generated_Source\PSoC4/cyfitter_cfg.c **** 			{0x01u, 0x01u},
 436:Generated_Source\PSoC4/cyfitter_cfg.c **** 			{0x10u, 0x01u},
 437:Generated_Source\PSoC4/cyfitter_cfg.c **** 		};
 438:Generated_Source\PSoC4/cyfitter_cfg.c **** 
 439:Generated_Source\PSoC4/cyfitter_cfg.c **** 
 440:Generated_Source\PSoC4/cyfitter_cfg.c **** 
 441:Generated_Source\PSoC4/cyfitter_cfg.c **** 		CYPACKED typedef struct {
 442:Generated_Source\PSoC4/cyfitter_cfg.c **** 			void CYFAR *address;
 443:Generated_Source\PSoC4/cyfitter_cfg.c **** 			uint16 size;
 444:Generated_Source\PSoC4/cyfitter_cfg.c **** 		} CYPACKED_ATTR cfg_memset_t;
 445:Generated_Source\PSoC4/cyfitter_cfg.c **** 
 446:Generated_Source\PSoC4/cyfitter_cfg.c **** 		static const cfg_memset_t CYCODE cfg_memset_list[] = {
 447:Generated_Source\PSoC4/cyfitter_cfg.c **** 			/* address, size */
 448:Generated_Source\PSoC4/cyfitter_cfg.c **** 			{(void CYFAR *)(CYDEV_UDB_P0_U0_BASE), 1024u},
 449:Generated_Source\PSoC4/cyfitter_cfg.c **** 			{(void CYFAR *)(CYDEV_UDB_DSI0_BASE), 1024u},
 450:Generated_Source\PSoC4/cyfitter_cfg.c **** 		};
 451:Generated_Source\PSoC4/cyfitter_cfg.c **** 
 452:Generated_Source\PSoC4/cyfitter_cfg.c **** 		uint8 CYDATA i;
 453:Generated_Source\PSoC4/cyfitter_cfg.c **** 
 454:Generated_Source\PSoC4/cyfitter_cfg.c **** 		/* Zero out critical memory blocks before beginning configuration */
 455:Generated_Source\PSoC4/cyfitter_cfg.c **** 		for (i = 0u; i < (sizeof(cfg_memset_list)/sizeof(cfg_memset_list[0])); i++)
 424              		.loc 1 455 0
 425 0128 0024     		movs	r4, #0
 426 012a 0FE0     		b	.L19
 427              	.LVL27:
 428              	.L20:
 429              	.LBB4:
 456:Generated_Source\PSoC4/cyfitter_cfg.c **** 		{
 457:Generated_Source\PSoC4/cyfitter_cfg.c **** 			const cfg_memset_t CYCODE * CYDATA ms = &cfg_memset_list[i];
 458:Generated_Source\PSoC4/cyfitter_cfg.c **** 			CYMEMZERO(ms->address, (size_t)(uint32)(ms->size));
 430              		.loc 1 458 0 discriminator 3
 431 012c 2F48     		ldr	r0, .L21+8
 432 012e 6200     		lsls	r2, r4, #1
 433 0130 1319     		adds	r3, r2, r4
 434 0132 5900     		lsls	r1, r3, #1
 435 0134 0B00     		movs	r3, r1
 436 0136 4118     		adds	r1, r0, r1
 437 0138 8988     		ldrh	r1, [r1, #4]
 438 013a 1A5A     		ldrh	r2, [r3, r0]
 439 013c C318     		adds	r3, r0, r3
ARM GAS  C:\Users\Roi\AppData\Local\Temp\cco0ItSk.s 			page 17


 440 013e 5888     		ldrh	r0, [r3, #2]
 441 0140 0004     		lsls	r0, r0, #16
 442 0142 1043     		orrs	r0, r2
 443 0144 FFF7FEFF 		bl	CYMEMZERO
 444              	.LVL28:
 445              	.LBE4:
 455:Generated_Source\PSoC4/cyfitter_cfg.c **** 		{
 446              		.loc 1 455 0 discriminator 3
 447 0148 0134     		adds	r4, r4, #1
 448              	.LVL29:
 449 014a E4B2     		uxtb	r4, r4
 450              	.LVL30:
 451              	.L19:
 455:Generated_Source\PSoC4/cyfitter_cfg.c **** 		{
 452              		.loc 1 455 0 is_stmt 0 discriminator 1
 453 014c 012C     		cmp	r4, #1
 454 014e EDD9     		bls	.L20
 459:Generated_Source\PSoC4/cyfitter_cfg.c **** 		}
 460:Generated_Source\PSoC4/cyfitter_cfg.c **** 
 461:Generated_Source\PSoC4/cyfitter_cfg.c **** 		cfg_write_bytes32(cy_cfg_addr_table, cy_cfg_data_table);
 455              		.loc 1 461 0 is_stmt 1
 456 0150 2649     		ldr	r1, .L21+8
 457 0152 0C31     		adds	r1, r1, #12
 458 0154 2648     		ldr	r0, .L21+12
 459 0156 1030     		adds	r0, r0, #16
 460 0158 FFF7FEFF 		bl	cfg_write_bytes32
 461              	.LVL31:
 462:Generated_Source\PSoC4/cyfitter_cfg.c **** 
 463:Generated_Source\PSoC4/cyfitter_cfg.c **** 		/* HSIOM Starting address: CYDEV_HSIOM_BASE */
 464:Generated_Source\PSoC4/cyfitter_cfg.c **** 		CY_SET_REG32((void *)(CYDEV_HSIOM_BASE), 0xEE000000u);
 462              		.loc 1 464 0
 463 015c EE22     		movs	r2, #238
 464 015e 1206     		lsls	r2, r2, #24
 465 0160 244B     		ldr	r3, .L21+16
 466 0162 1A60     		str	r2, [r3]
 465:Generated_Source\PSoC4/cyfitter_cfg.c **** 
 466:Generated_Source\PSoC4/cyfitter_cfg.c **** 		/* UDB_PA_0 Starting address: CYDEV_UDB_PA0_BASE */
 467:Generated_Source\PSoC4/cyfitter_cfg.c **** 		CY_SET_REG32((void *)(CYDEV_UDB_PA0_BASE), 0x00990000u);
 467              		.loc 1 467 0
 468 0164 9923     		movs	r3, #153
 469 0166 1B04     		lsls	r3, r3, #16
 470 0168 234A     		ldr	r2, .L21+20
 471 016a 1360     		str	r3, [r2]
 468:Generated_Source\PSoC4/cyfitter_cfg.c **** 
 469:Generated_Source\PSoC4/cyfitter_cfg.c **** 		/* UDB_PA_1 Starting address: CYDEV_UDB_PA1_BASE */
 470:Generated_Source\PSoC4/cyfitter_cfg.c **** 		CY_SET_REG32((void *)(CYDEV_UDB_PA1_BASE), 0x00990000u);
 472              		.loc 1 470 0
 473 016c 234A     		ldr	r2, .L21+24
 474 016e 1360     		str	r3, [r2]
 471:Generated_Source\PSoC4/cyfitter_cfg.c **** 
 472:Generated_Source\PSoC4/cyfitter_cfg.c **** 		/* UDB_PA_2 Starting address: CYDEV_UDB_PA2_BASE */
 473:Generated_Source\PSoC4/cyfitter_cfg.c **** 		CY_SET_REG32((void *)(CYDEV_UDB_PA2_BASE), 0x00990000u);
 475              		.loc 1 473 0
 476 0170 234A     		ldr	r2, .L21+28
 477 0172 1360     		str	r3, [r2]
 474:Generated_Source\PSoC4/cyfitter_cfg.c **** 
 475:Generated_Source\PSoC4/cyfitter_cfg.c **** 		/* UDB_PA_3 Starting address: CYDEV_UDB_PA3_BASE */
ARM GAS  C:\Users\Roi\AppData\Local\Temp\cco0ItSk.s 			page 18


 476:Generated_Source\PSoC4/cyfitter_cfg.c **** 		CY_SET_REG32((void *)(CYDEV_UDB_PA3_BASE), 0x00990000u);
 478              		.loc 1 476 0
 479 0174 234A     		ldr	r2, .L21+32
 480 0176 1360     		str	r3, [r2]
 477:Generated_Source\PSoC4/cyfitter_cfg.c **** 
 478:Generated_Source\PSoC4/cyfitter_cfg.c **** 		/* INT_SELECT Starting address: CYDEV_CPUSS_INT_SEL */
 479:Generated_Source\PSoC4/cyfitter_cfg.c **** 		CY_SET_REG32((void *)(CYREG_CPUSS_INT_SEL), 0x0000001Eu);
 481              		.loc 1 479 0
 482 0178 1E22     		movs	r2, #30
 483 017a 234B     		ldr	r3, .L21+36
 484 017c 1A60     		str	r2, [r3]
 480:Generated_Source\PSoC4/cyfitter_cfg.c **** 
 481:Generated_Source\PSoC4/cyfitter_cfg.c **** 		/* INT_CONFIG Starting address: CYDEV_UDB_INT_CFG */
 482:Generated_Source\PSoC4/cyfitter_cfg.c **** 		CY_SET_REG32((void *)(CYREG_UDB_INT_CFG), 0x00000006u);
 485              		.loc 1 482 0
 486 017e 183A     		subs	r2, r2, #24
 487 0180 224B     		ldr	r3, .L21+40
 488 0182 1A60     		str	r2, [r3]
 483:Generated_Source\PSoC4/cyfitter_cfg.c **** 
 484:Generated_Source\PSoC4/cyfitter_cfg.c **** 		/* Enable UDB array and digital routing */
 485:Generated_Source\PSoC4/cyfitter_cfg.c **** 		CY_SET_XTND_REG8((void *)CYREG_UDB_UDBIF_WAIT_CFG, (uint8)((CY_GET_XTND_REG8((void *)CYREG_UDB_UD
 489              		.loc 1 485 0
 490 0184 2249     		ldr	r1, .L21+44
 491 0186 0B78     		ldrb	r3, [r1]
 492 0188 3632     		adds	r2, r2, #54
 493 018a 9343     		bics	r3, r2
 494 018c 1422     		movs	r2, #20
 495 018e 1343     		orrs	r3, r2
 496 0190 DBB2     		uxtb	r3, r3
 497 0192 0B70     		strb	r3, [r1]
 486:Generated_Source\PSoC4/cyfitter_cfg.c **** 		CY_SET_XTND_REG8((void *)CYREG_UDB_UDBIF_BANK_CTL, (uint8)(CY_GET_XTND_REG8((void *)CYREG_UDB_UDB
 498              		.loc 1 486 0
 499 0194 1F4A     		ldr	r2, .L21+48
 500 0196 1178     		ldrb	r1, [r2]
 501 0198 1623     		movs	r3, #22
 502 019a 0B43     		orrs	r3, r1
 503 019c DBB2     		uxtb	r3, r3
 504 019e 1370     		strb	r3, [r2]
 505              	.LBE3:
 487:Generated_Source\PSoC4/cyfitter_cfg.c **** 	}
 488:Generated_Source\PSoC4/cyfitter_cfg.c **** 
 489:Generated_Source\PSoC4/cyfitter_cfg.c **** 	/* Perform second pass device configuration. These items must be configured in specific order afte
 490:Generated_Source\PSoC4/cyfitter_cfg.c **** 	/* IOPINS0_0 Starting address: CYDEV_GPIO_PRT0_BASE */
 491:Generated_Source\PSoC4/cyfitter_cfg.c **** 	CY_SET_REG32((void *)(CYDEV_GPIO_PRT0_BASE), 0x00000030u);
 506              		.loc 1 491 0
 507 01a0 3022     		movs	r2, #48
 508 01a2 1D4B     		ldr	r3, .L21+52
 509 01a4 1A60     		str	r2, [r3]
 492:Generated_Source\PSoC4/cyfitter_cfg.c **** 	CY_SET_REG32((void *)(CYREG_GPIO_PRT0_PC), 0x00D92000u);
 510              		.loc 1 492 0
 511 01a6 1D4A     		ldr	r2, .L21+56
 512 01a8 1D4B     		ldr	r3, .L21+60
 513 01aa 1A60     		str	r2, [r3]
 493:Generated_Source\PSoC4/cyfitter_cfg.c **** 	CY_SET_REG32((void *)(CYREG_GPIO_PRT0_INTR_CFG), 0x00000A00u);
 514              		.loc 1 493 0
 515 01ac A022     		movs	r2, #160
 516 01ae 1201     		lsls	r2, r2, #4
ARM GAS  C:\Users\Roi\AppData\Local\Temp\cco0ItSk.s 			page 19


 517 01b0 1C4B     		ldr	r3, .L21+64
 518 01b2 1A60     		str	r2, [r3]
 494:Generated_Source\PSoC4/cyfitter_cfg.c **** 
 495:Generated_Source\PSoC4/cyfitter_cfg.c **** 	/* IOPINS0_1 Starting address: CYDEV_GPIO_PRT1_BASE */
 496:Generated_Source\PSoC4/cyfitter_cfg.c **** 	CY_SET_REG32((void *)(CYREG_GPIO_PRT1_PC), 0x001B6DB6u);
 519              		.loc 1 496 0
 520 01b4 1C4A     		ldr	r2, .L21+68
 521 01b6 1D4B     		ldr	r3, .L21+72
 522 01b8 1A60     		str	r2, [r3]
 497:Generated_Source\PSoC4/cyfitter_cfg.c **** 
 498:Generated_Source\PSoC4/cyfitter_cfg.c **** 	/* IOPINS0_2 Starting address: CYDEV_GPIO_PRT2_BASE */
 499:Generated_Source\PSoC4/cyfitter_cfg.c **** 	CY_SET_REG32((void *)(CYDEV_GPIO_PRT2_BASE), 0x00000040u);
 523              		.loc 1 499 0
 524 01ba 4022     		movs	r2, #64
 525 01bc 1C4B     		ldr	r3, .L21+76
 526 01be 1A60     		str	r2, [r3]
 500:Generated_Source\PSoC4/cyfitter_cfg.c **** 	CY_SET_REG32((void *)(CYREG_GPIO_PRT2_PC), 0x00180000u);
 527              		.loc 1 500 0
 528 01c0 C022     		movs	r2, #192
 529 01c2 5203     		lsls	r2, r2, #13
 530 01c4 1B4B     		ldr	r3, .L21+80
 531 01c6 1A60     		str	r2, [r3]
 501:Generated_Source\PSoC4/cyfitter_cfg.c **** 
 502:Generated_Source\PSoC4/cyfitter_cfg.c **** 	/* IOPINS0_3 Starting address: CYDEV_GPIO_PRT3_BASE */
 503:Generated_Source\PSoC4/cyfitter_cfg.c **** 	CY_SET_REG32((void *)(CYDEV_GPIO_PRT3_BASE), 0x000000C3u);
 532              		.loc 1 503 0
 533 01c8 C322     		movs	r2, #195
 534 01ca 1B4B     		ldr	r3, .L21+84
 535 01cc 1A60     		str	r2, [r3]
 504:Generated_Source\PSoC4/cyfitter_cfg.c **** 	CY_SET_REG32((void *)(CYREG_GPIO_PRT3_PC), 0x00D80009u);
 536              		.loc 1 504 0
 537 01ce 1B4A     		ldr	r2, .L21+88
 538 01d0 1B4B     		ldr	r3, .L21+92
 539 01d2 1A60     		str	r2, [r3]
 505:Generated_Source\PSoC4/cyfitter_cfg.c **** 	CY_SET_REG32((void *)(CYREG_GPIO_PRT3_PC2), 0x00000003u);
 540              		.loc 1 505 0
 541 01d4 0322     		movs	r2, #3
 542 01d6 1B4B     		ldr	r3, .L21+96
 543 01d8 1A60     		str	r2, [r3]
 506:Generated_Source\PSoC4/cyfitter_cfg.c **** 
 507:Generated_Source\PSoC4/cyfitter_cfg.c **** 
 508:Generated_Source\PSoC4/cyfitter_cfg.c **** 	/* Setup clocks based on selections from Clock DWR */
 509:Generated_Source\PSoC4/cyfitter_cfg.c **** 	ClockSetup();
 544              		.loc 1 509 0
 545 01da FFF711FF 		bl	ClockSetup
 546              	.LVL32:
 510:Generated_Source\PSoC4/cyfitter_cfg.c **** 
 511:Generated_Source\PSoC4/cyfitter_cfg.c **** 	/* Perform basic analog initialization to defaults */
 512:Generated_Source\PSoC4/cyfitter_cfg.c **** 	AnalogSetDefault();
 547              		.loc 1 512 0
 548 01de FFF7FEFF 		bl	AnalogSetDefault
 549              	.LVL33:
 513:Generated_Source\PSoC4/cyfitter_cfg.c **** 
 514:Generated_Source\PSoC4/cyfitter_cfg.c **** }
 550              		.loc 1 514 0
 551              		@ sp needed
 552              	.LVL34:
ARM GAS  C:\Users\Roi\AppData\Local\Temp\cco0ItSk.s 			page 20


 553 01e2 10BD     		pop	{r4, pc}
 554              	.L22:
 555              		.align	2
 556              	.L21:
 557 01e4 6CF02E40 		.word	1076818028
 558 01e8 1C700F40 		.word	1074753564
 559 01ec 00000000 		.word	.LANCHOR0
 560 01f0 80000000 		.word	.LANCHOR1
 561 01f4 00000240 		.word	1073872896
 562 01f8 00500F40 		.word	1074745344
 563 01fc 10500F40 		.word	1074745360
 564 0200 20500F40 		.word	1074745376
 565 0204 30500F40 		.word	1074745392
 566 0208 20001040 		.word	1074790432
 567 020c 00800F40 		.word	1074757632
 568 0210 01700F40 		.word	1074753537
 569 0214 00700F40 		.word	1074753536
 570 0218 00000440 		.word	1074003968
 571 021c 0020D900 		.word	14229504
 572 0220 08000440 		.word	1074003976
 573 0224 0C000440 		.word	1074003980
 574 0228 B66D1B00 		.word	1797558
 575 022c 08010440 		.word	1074004232
 576 0230 00020440 		.word	1074004480
 577 0234 08020440 		.word	1074004488
 578 0238 00030440 		.word	1074004736
 579 023c 0900D800 		.word	14155785
 580 0240 08030440 		.word	1074004744
 581 0244 18030440 		.word	1074004760
 582              		.cfi_endproc
 583              	.LFE9:
 584              		.size	cyfitter_cfg, .-cyfitter_cfg
 585              		.section	.rodata
 586              		.align	2
 587              		.set	.LANCHOR0,. + 0
 588              		.set	.LANCHOR1,. + 128
 589              		.type	cfg_memset_list.4922, %object
 590              		.size	cfg_memset_list.4922, 12
 591              	cfg_memset_list.4922:
 592 0000 00300F40 		.word	1074737152
 593 0004 0004     		.short	1024
 594 0006 00400F40 		.4byte	1074741248
 595 000a 0004     		.short	1024
 596              		.type	cy_cfg_data_table.4917, %object
 597              		.size	cy_cfg_data_table.4917, 132
 598              	cy_cfg_data_table.4917:
 599 000c 86       		.byte	-122
 600 000d 04       		.byte	4
 601 000e 88       		.byte	-120
 602 000f 08       		.byte	8
 603 0010 96       		.byte	-106
 604 0011 03       		.byte	3
 605 0012 98       		.byte	-104
 606 0013 01       		.byte	1
 607 0014 9F       		.byte	-97
 608 0015 01       		.byte	1
 609 0016 A7       		.byte	-89
ARM GAS  C:\Users\Roi\AppData\Local\Temp\cco0ItSk.s 			page 21


 610 0017 02       		.byte	2
 611 0018 AA       		.byte	-86
 612 0019 08       		.byte	8
 613 001a B0       		.byte	-80
 614 001b 08       		.byte	8
 615 001c B1       		.byte	-79
 616 001d 02       		.byte	2
 617 001e B2       		.byte	-78
 618 001f 04       		.byte	4
 619 0020 B3       		.byte	-77
 620 0021 02       		.byte	2
 621 0022 B4       		.byte	-76
 622 0023 02       		.byte	2
 623 0024 B5       		.byte	-75
 624 0025 01       		.byte	1
 625 0026 B6       		.byte	-74
 626 0027 01       		.byte	1
 627 0028 D8       		.byte	-40
 628 0029 04       		.byte	4
 629 002a D9       		.byte	-39
 630 002b 04       		.byte	4
 631 002c DF       		.byte	-33
 632 002d 01       		.byte	1
 633 002e 06       		.byte	6
 634 002f 20       		.byte	32
 635 0030 07       		.byte	7
 636 0031 08       		.byte	8
 637 0032 0E       		.byte	14
 638 0033 28       		.byte	40
 639 0034 17       		.byte	23
 640 0035 20       		.byte	32
 641 0036 1E       		.byte	30
 642 0037 28       		.byte	40
 643 0038 1F       		.byte	31
 644 0039 42       		.byte	66
 645 003a 27       		.byte	39
 646 003b 68       		.byte	104
 647 003c 2F       		.byte	47
 648 003d 10       		.byte	16
 649 003e 37       		.byte	55
 650 003f 40       		.byte	64
 651 0040 87       		.byte	-121
 652 0041 02       		.byte	2
 653 0042 8B       		.byte	-117
 654 0043 40       		.byte	64
 655 0044 C0       		.byte	-64
 656 0045 60       		.byte	96
 657 0046 C2       		.byte	-62
 658 0047 60       		.byte	96
 659 0048 C4       		.byte	-60
 660 0049 40       		.byte	64
 661 004a CA       		.byte	-54
 662 004b 40       		.byte	64
 663 004c CC       		.byte	-52
 664 004d 10       		.byte	16
 665 004e E6       		.byte	-26
 666 004f 80       		.byte	-128
ARM GAS  C:\Users\Roi\AppData\Local\Temp\cco0ItSk.s 			page 22


 667 0050 AE       		.byte	-82
 668 0051 20       		.byte	32
 669 0052 AF       		.byte	-81
 670 0053 10       		.byte	16
 671 0054 E2       		.byte	-30
 672 0055 10       		.byte	16
 673 0056 E6       		.byte	-26
 674 0057 10       		.byte	16
 675 0058 0B       		.byte	11
 676 0059 40       		.byte	64
 677 005a 0F       		.byte	15
 678 005b 10       		.byte	16
 679 005c 84       		.byte	-124
 680 005d 02       		.byte	2
 681 005e 89       		.byte	-119
 682 005f 01       		.byte	1
 683 0060 C2       		.byte	-62
 684 0061 30       		.byte	48
 685 0062 E2       		.byte	-30
 686 0063 10       		.byte	16
 687 0064 69       		.byte	105
 688 0065 01       		.byte	1
 689 0066 6C       		.byte	108
 690 0067 02       		.byte	2
 691 0068 76       		.byte	118
 692 0069 04       		.byte	4
 693 006a 78       		.byte	120
 694 006b 80       		.byte	-128
 695 006c 8C       		.byte	-116
 696 006d 80       		.byte	-128
 697 006e 8E       		.byte	-114
 698 006f 04       		.byte	4
 699 0070 91       		.byte	-111
 700 0071 01       		.byte	1
 701 0072 A0       		.byte	-96
 702 0073 02       		.byte	2
 703 0074 AF       		.byte	-81
 704 0075 50       		.byte	80
 705 0076 DA       		.byte	-38
 706 0077 80       		.byte	-128
 707 0078 DC       		.byte	-36
 708 0079 E0       		.byte	-32
 709 007a E8       		.byte	-24
 710 007b 10       		.byte	16
 711 007c EC       		.byte	-20
 712 007d 40       		.byte	64
 713 007e 11       		.byte	17
 714 007f 02       		.byte	2
 715 0080 16       		.byte	22
 716 0081 80       		.byte	-128
 717 0082 8D       		.byte	-115
 718 0083 01       		.byte	1
 719 0084 8E       		.byte	-114
 720 0085 80       		.byte	-128
 721 0086 C4       		.byte	-60
 722 0087 0C       		.byte	12
 723 0088 E2       		.byte	-30
ARM GAS  C:\Users\Roi\AppData\Local\Temp\cco0ItSk.s 			page 23


 724 0089 08       		.byte	8
 725 008a E6       		.byte	-26
 726 008b 08       		.byte	8
 727 008c 01       		.byte	1
 728 008d 01       		.byte	1
 729 008e 10       		.byte	16
 730 008f 01       		.byte	1
 731              		.type	cy_cfg_addr_table.4916, %object
 732              		.size	cy_cfg_addr_table.4916, 28
 733              	cy_cfg_addr_table.4916:
 734 0090 11300F40 		.word	1074737169
 735 0094 11310F40 		.word	1074737425
 736 0098 04330F40 		.word	1074737924
 737 009c 06400F40 		.word	1074741254
 738 00a0 0D410F40 		.word	1074741517
 739 00a4 07430F40 		.word	1074742023
 740 00a8 02600F40 		.word	1074749442
 741              		.text
 742              	.Letext0:
 743              		.file 2 "c:\\program files (x86)\\cypress\\psoc creator\\4.2\\psoc creator\\import\\gnu\\arm\\5.4.
 744              		.file 3 "Generated_Source\\PSoC4\\cytypes.h"
 745              		.file 4 "Generated_Source\\PSoC4\\CyLib.h"