ARM GAS  C:\Users\Kozak\AppData\Local\Temp\ccg0CDh3.s 			page 1


   1              		.syntax unified
   2              		.cpu cortex-m0
   3              		.fpu softvfp
   4              		.eabi_attribute 20, 1
   5              		.eabi_attribute 21, 1
   6              		.eabi_attribute 23, 3
   7              		.eabi_attribute 24, 1
   8              		.eabi_attribute 25, 1
   9              		.eabi_attribute 26, 1
  10              		.eabi_attribute 30, 1
  11              		.eabi_attribute 34, 0
  12              		.eabi_attribute 18, 4
  13              		.thumb
  14              		.syntax unified
  15              		.file	"goal_devices.c"
  16              		.text
  17              	.Ltext0:
  18              		.cfi_sections	.debug_frame
  19              		.section	.text.get_uuids_amount_of_device,"ax",%progbits
  20              		.align	2
  21              		.global	get_uuids_amount_of_device
  22              		.code	16
  23              		.thumb_func
  24              		.type	get_uuids_amount_of_device, %function
  25              	get_uuids_amount_of_device:
  26              	.LFB62:
  27              		.file 1 "goal_devices.c"
   1:goal_devices.c **** #include "smartboy.h"
   2:goal_devices.c **** 
   3:goal_devices.c **** uint16 goal_kitchen_uuids[GOAL_KITCHEN_UUIDS] = {
   4:goal_devices.c ****     0xB1B1
   5:goal_devices.c **** };
   6:goal_devices.c **** 
   7:goal_devices.c **** uint8 get_uuids_amount_of_device(uint8 connectedDeviceID) {
  28              		.loc 1 7 0
  29              		.cfi_startproc
  30              		@ args = 0, pretend = 0, frame = 0
  31              		@ frame_needed = 0, uses_anonymous_args = 0
  32              		@ link register save eliminated.
  33              	.LVL0:
   8:goal_devices.c ****     uint8 uuids = 1;
   9:goal_devices.c ****     
  10:goal_devices.c ****     switch(connectedDeviceID) {
  11:goal_devices.c ****         case GOAL_KITCHEN:
  12:goal_devices.c ****             uuids = GOAL_KITCHEN_UUIDS;
  13:goal_devices.c ****             break;
  14:goal_devices.c ****         default:
  15:goal_devices.c **** 		    break;
  16:goal_devices.c ****     }
  17:goal_devices.c ****     
  18:goal_devices.c ****     return uuids;
  19:goal_devices.c **** }
  34              		.loc 1 19 0
  35 0000 0120     		movs	r0, #1
  36              	.LVL1:
  37              		@ sp needed
  38 0002 7047     		bx	lr
ARM GAS  C:\Users\Kozak\AppData\Local\Temp\ccg0CDh3.s 			page 2


  39              		.cfi_endproc
  40              	.LFE62:
  41              		.size	get_uuids_amount_of_device, .-get_uuids_amount_of_device
  42              		.section	.text.get_characteristic_name,"ax",%progbits
  43              		.align	2
  44              		.global	get_characteristic_name
  45              		.code	16
  46              		.thumb_func
  47              		.type	get_characteristic_name, %function
  48              	get_characteristic_name:
  49              	.LFB63:
  20:goal_devices.c **** 
  21:goal_devices.c **** char * get_characteristic_name(uint16 characteristicUUID) {
  50              		.loc 1 21 0
  51              		.cfi_startproc
  52              		@ args = 0, pretend = 0, frame = 0
  53              		@ frame_needed = 0, uses_anonymous_args = 0
  54              		@ link register save eliminated.
  55              	.LVL2:
  22:goal_devices.c ****     char * characteristicName;
  23:goal_devices.c ****     
  24:goal_devices.c ****     switch(characteristicUUID) {
  25:goal_devices.c ****         case GAS_UUID:
  26:goal_devices.c ****             characteristicName = "Gas value";
  27:goal_devices.c ****             break;
  28:goal_devices.c ****         default:
  29:goal_devices.c **** 		    break;
  30:goal_devices.c ****     }
  31:goal_devices.c ****     
  32:goal_devices.c ****     return characteristicName;
  33:goal_devices.c **** }
  56              		.loc 1 33 0
  57 0000 0048     		ldr	r0, .L3
  58              	.LVL3:
  59              		@ sp needed
  60 0002 7047     		bx	lr
  61              	.L4:
  62              		.align	2
  63              	.L3:
  64 0004 00000000 		.word	.LC0
  65              		.cfi_endproc
  66              	.LFE63:
  67              		.size	get_characteristic_name, .-get_characteristic_name
  68              		.section	.text.get_current_uuid,"ax",%progbits
  69              		.align	2
  70              		.global	get_current_uuid
  71              		.code	16
  72              		.thumb_func
  73              		.type	get_current_uuid, %function
  74              	get_current_uuid:
  75              	.LFB64:
  34:goal_devices.c **** 
  35:goal_devices.c **** uint16 get_current_uuid(uint8 connectedDeviceID, uint8 position) {
  76              		.loc 1 35 0
  77              		.cfi_startproc
  78              		@ args = 0, pretend = 0, frame = 0
  79              		@ frame_needed = 0, uses_anonymous_args = 0
ARM GAS  C:\Users\Kozak\AppData\Local\Temp\ccg0CDh3.s 			page 3


  80              		@ link register save eliminated.
  81              	.LVL4:
  36:goal_devices.c ****     uint16 uuid;
  37:goal_devices.c ****     
  38:goal_devices.c ****     switch(connectedDeviceID) {
  82              		.loc 1 38 0
  83 0000 0028     		cmp	r0, #0
  84 0002 02D1     		bne	.L6
  39:goal_devices.c ****         case GOAL_KITCHEN:
  40:goal_devices.c ****             uuid = goal_kitchen_uuids[position];
  85              		.loc 1 40 0
  86 0004 4900     		lsls	r1, r1, #1
  87              	.LVL5:
  88 0006 024B     		ldr	r3, .L8
  89 0008 CB5A     		ldrh	r3, [r1, r3]
  90              	.LVL6:
  91              	.L6:
  41:goal_devices.c ****             break;
  42:goal_devices.c ****         default:
  43:goal_devices.c **** 		    break;
  44:goal_devices.c ****     }
  45:goal_devices.c ****     
  46:goal_devices.c ****     return uuid;
  47:goal_devices.c **** }
  92              		.loc 1 47 0
  93 000a 1800     		movs	r0, r3
  94              	.LVL7:
  95              		@ sp needed
  96 000c 7047     		bx	lr
  97              	.L9:
  98 000e C046     		.align	2
  99              	.L8:
 100 0010 00000000 		.word	.LANCHOR0
 101              		.cfi_endproc
 102              	.LFE64:
 103              		.size	get_current_uuid, .-get_current_uuid
 104              		.section	.text.request_characteristic_value,"ax",%progbits
 105              		.align	2
 106              		.global	request_characteristic_value
 107              		.code	16
 108              		.thumb_func
 109              		.type	request_characteristic_value, %function
 110              	request_characteristic_value:
 111              	.LFB65:
  48:goal_devices.c **** 
  49:goal_devices.c **** void request_characteristic_value(uint16 characteristicUUID) {
 112              		.loc 1 49 0
 113              		.cfi_startproc
 114              		@ args = 0, pretend = 0, frame = 48
 115              		@ frame_needed = 0, uses_anonymous_args = 0
 116              	.LVL8:
 117 0000 30B5     		push	{r4, r5, lr}
 118              		.cfi_def_cfa_offset 12
 119              		.cfi_offset 4, -12
 120              		.cfi_offset 5, -8
 121              		.cfi_offset 14, -4
 122 0002 8DB0     		sub	sp, sp, #52
ARM GAS  C:\Users\Kozak\AppData\Local\Temp\ccg0CDh3.s 			page 4


 123              		.cfi_def_cfa_offset 64
  50:goal_devices.c **** 	CYBLE_API_RESULT_T 			apiResult;
  51:goal_devices.c ****     CYBLE_GATTC_READ_BY_TYPE_REQ_T readByTypeReqParam;
  52:goal_devices.c **** 	CYBLE_GATT_ATTR_HANDLE_RANGE_T range;
  53:goal_devices.c ****     CYBLE_UUID_T uuid;
  54:goal_devices.c ****     CYBLE_GATTC_READ_BY_GRP_RSP_PARAM_T readResponse;
  55:goal_devices.c ****     
  56:goal_devices.c ****     isDataRead = false;
 124              		.loc 1 56 0
 125 0004 0022     		movs	r2, #0
 126 0006 0F4B     		ldr	r3, .L11
 127 0008 1A70     		strb	r2, [r3]
  57:goal_devices.c ****     
  58:goal_devices.c ****     /* This event is generated whenever the discovery procedure is complete*/
  59:goal_devices.c ****     range.startHandle   = 0x0001;
 128              		.loc 1 59 0
 129 000a 05AB     		add	r3, sp, #20
 130 000c 0132     		adds	r2, r2, #1
 131 000e 1A80     		strh	r2, [r3]
  60:goal_devices.c ****     range.endHandle     = 0xFFFF;
 132              		.loc 1 60 0
 133 0010 023A     		subs	r2, r2, #2
 134 0012 5A80     		strh	r2, [r3, #2]
  61:goal_devices.c ****     uuid.uuid16         = characteristicUUID;       //uuid of the characteristic to be read.
 135              		.loc 1 61 0
 136 0014 01AA     		add	r2, sp, #4
 137 0016 1080     		strh	r0, [r2]
  62:goal_devices.c **** 
  63:goal_devices.c ****     readByTypeReqParam.range = range;
 138              		.loc 1 63 0
 139 0018 06A9     		add	r1, sp, #24
 140 001a 059B     		ldr	r3, [sp, #20]
 141 001c 0693     		str	r3, [sp, #24]
  64:goal_devices.c ****     readByTypeReqParam.uuid = uuid;
 142              		.loc 1 64 0
 143 001e 07AB     		add	r3, sp, #28
 144 0020 31CA     		ldmia	r2!, {r0, r4, r5}
 145 0022 31C3     		stmia	r3!, {r0, r4, r5}
 146              	.LVL9:
 147 0024 1268     		ldr	r2, [r2]
 148              	.LVL10:
 149 0026 1A60     		str	r2, [r3]
  65:goal_devices.c ****     readByTypeReqParam.uuidFormat = 0x01;
 150              		.loc 1 65 0
 151 0028 0123     		movs	r3, #1
 152 002a 0B75     		strb	r3, [r1, #20]
  66:goal_devices.c **** 
  67:goal_devices.c ****     apiResult = CyBle_GattcReadUsingCharacteristicUuid(connHandle, &readByTypeReqParam);
 153              		.loc 1 67 0
 154 002c 064A     		ldr	r2, .L11+4
 155 002e 1378     		ldrb	r3, [r2]
 156 0030 5078     		ldrb	r0, [r2, #1]
 157 0032 0002     		lsls	r0, r0, #8
 158 0034 1843     		orrs	r0, r3
 159 0036 FFF7FEFF 		bl	CyBle_GattcReadUsingCharacteristicUuid
 160              	.LVL11:
  68:goal_devices.c ****     
ARM GAS  C:\Users\Kozak\AppData\Local\Temp\ccg0CDh3.s 			page 5


  69:goal_devices.c ****     if ( apiResult != CYBLE_ERROR_OK ) {
  70:goal_devices.c ****         // TODO Error handling
  71:goal_devices.c ****     }
  72:goal_devices.c ****     
  73:goal_devices.c ****     CyBle_ProcessEvents();
 161              		.loc 1 73 0
 162 003a FFF7FEFF 		bl	CyBle_ProcessEvents
 163              	.LVL12:
  74:goal_devices.c ****     
  75:goal_devices.c ****     /*while(!isDataRead) {
  76:goal_devices.c ****         // Wait for data read
  77:goal_devices.c ****     }*/
  78:goal_devices.c ****     
  79:goal_devices.c ****     //uint8 data = get_data();
  80:goal_devices.c ****     //return data;
  81:goal_devices.c **** }
 164              		.loc 1 81 0
 165 003e 0DB0     		add	sp, sp, #52
 166              		@ sp needed
 167 0040 30BD     		pop	{r4, r5, pc}
 168              	.L12:
 169 0042 C046     		.align	2
 170              	.L11:
 171 0044 00000000 		.word	isDataRead
 172 0048 00000000 		.word	connHandle
 173              		.cfi_endproc
 174              	.LFE65:
 175              		.size	request_characteristic_value, .-request_characteristic_value
 176              		.global	goal_kitchen_uuids
 177              		.data
 178              		.align	2
 179              		.set	.LANCHOR0,. + 0
 180              		.type	goal_kitchen_uuids, %object
 181              		.size	goal_kitchen_uuids, 2
 182              	goal_kitchen_uuids:
 183 0000 B1B1     		.short	-20047
 184              		.section	.rodata.str1.4,"aMS",%progbits,1
 185              		.align	2
 186              	.LC0:
 187 0000 47617320 		.ascii	"Gas value\000"
 187      76616C75 
 187      6500
 188              		.text
 189              	.Letext0:
 190              		.file 2 "Generated_Source\\PSoC4/cytypes.h"
 191              		.file 3 "Generated_Source\\PSoC4/BLE_Stack.h"
 192              		.file 4 "Generated_Source\\PSoC4/BLE_StackGatt.h"
 193              		.file 5 "Generated_Source\\PSoC4/BLE_StackGattClient.h"
 194              		.file 6 "Generated_Source\\PSoC4/BLE_eventHandler.h"
 195              		.file 7 "ble_client.h"