ARM GAS  C:\Users\Roi\AppData\Local\Temp\cc9jkSOT.s 			page 1


   1              		.syntax unified
   2              		.cpu cortex-m0
   3              		.fpu softvfp
   4              		.eabi_attribute 20, 1
   5              		.eabi_attribute 21, 1
   6              		.eabi_attribute 23, 3
   7              		.eabi_attribute 24, 1
   8              		.eabi_attribute 25, 1
   9              		.eabi_attribute 26, 1
  10              		.eabi_attribute 30, 1
  11              		.eabi_attribute 34, 0
  12              		.eabi_attribute 18, 4
  13              		.thumb
  14              		.syntax unified
  15              		.file	"lcd_smartboy.c"
  16              		.text
  17              	.Ltext0:
  18              		.cfi_sections	.debug_frame
  19              		.section	.text.lcd_init,"ax",%progbits
  20              		.align	2
  21              		.global	lcd_init
  22              		.code	16
  23              		.thumb_func
  24              		.type	lcd_init, %function
  25              	lcd_init:
  26              	.LFB37:
  27              		.file 1 "lcd_smartboy.c"
   1:lcd_smartboy.c **** #include "smartboy.h"
   2:lcd_smartboy.c **** 
   3:lcd_smartboy.c **** CY_ISR(Timer_Update_Int_Handler) {
   4:lcd_smartboy.c ****     lcd_data_screen();
   5:lcd_smartboy.c **** }
   6:lcd_smartboy.c **** 
   7:lcd_smartboy.c **** char first_data_buffer[16u];
   8:lcd_smartboy.c **** char second_data_buffer[16u];
   9:lcd_smartboy.c **** 
  10:lcd_smartboy.c **** void lcd_init(void) {
  28              		.loc 1 10 0
  29              		.cfi_startproc
  30              		@ args = 0, pretend = 0, frame = 0
  31              		@ frame_needed = 0, uses_anonymous_args = 0
  32 0000 10B5     		push	{r4, lr}
  33              		.cfi_def_cfa_offset 8
  34              		.cfi_offset 4, -8
  35              		.cfi_offset 14, -4
  11:lcd_smartboy.c ****     LCD_Start();
  36              		.loc 1 11 0
  37 0002 FFF7FEFF 		bl	LCD_Start
  38              	.LVL0:
  12:lcd_smartboy.c **** }
  39              		.loc 1 12 0
  40              		@ sp needed
  41 0006 10BD     		pop	{r4, pc}
  42              		.cfi_endproc
  43              	.LFE37:
  44              		.size	lcd_init, .-lcd_init
  45              		.section	.text.lcd_data_screen,"ax",%progbits
ARM GAS  C:\Users\Roi\AppData\Local\Temp\cc9jkSOT.s 			page 2


  46              		.align	2
  47              		.global	lcd_data_screen
  48              		.code	16
  49              		.thumb_func
  50              		.type	lcd_data_screen, %function
  51              	lcd_data_screen:
  52              	.LFB38:
  13:lcd_smartboy.c **** 
  14:lcd_smartboy.c **** void lcd_data_screen(void) {
  53              		.loc 1 14 0
  54              		.cfi_startproc
  55              		@ args = 0, pretend = 0, frame = 0
  56              		@ frame_needed = 0, uses_anonymous_args = 0
  57 0000 70B5     		push	{r4, r5, r6, lr}
  58              		.cfi_def_cfa_offset 16
  59              		.cfi_offset 4, -16
  60              		.cfi_offset 5, -12
  61              		.cfi_offset 6, -8
  62              		.cfi_offset 14, -4
  15:lcd_smartboy.c ****     LCD_ClearDisplay();
  63              		.loc 1 15 0
  64 0002 0120     		movs	r0, #1
  65 0004 FFF7FEFF 		bl	LCD_WriteControl
  66              	.LVL1:
  16:lcd_smartboy.c ****     
  17:lcd_smartboy.c ****     uint16 *adc_data_list = get_adc_list();
  67              		.loc 1 17 0
  68 0008 FFF7FEFF 		bl	get_adc_list
  69              	.LVL2:
  70 000c 0400     		movs	r4, r0
  71              	.LVL3:
  18:lcd_smartboy.c ****     sprintf(first_data_buffer, "%u", get_adc_by_channel(0));
  72              		.loc 1 18 0
  73 000e 0020     		movs	r0, #0
  74              	.LVL4:
  75 0010 FFF7FEFF 		bl	get_adc_by_channel
  76              	.LVL5:
  77 0014 0200     		movs	r2, r0
  78 0016 0F4E     		ldr	r6, .L3
  79 0018 0F49     		ldr	r1, .L3+4
  80 001a 3000     		movs	r0, r6
  81 001c FFF7FEFF 		bl	sprintf
  82              	.LVL6:
  19:lcd_smartboy.c ****     sprintf(second_data_buffer, "%u:%u", adc_data_list[0], adc_data_list[1]);
  83              		.loc 1 19 0
  84 0020 2288     		ldrh	r2, [r4]
  85 0022 6388     		ldrh	r3, [r4, #2]
  86 0024 0D4D     		ldr	r5, .L3+8
  87 0026 0E49     		ldr	r1, .L3+12
  88 0028 2800     		movs	r0, r5
  89 002a FFF7FEFF 		bl	sprintf
  90              	.LVL7:
  20:lcd_smartboy.c ****     
  21:lcd_smartboy.c ****     LCD_Position(0, 0);
  91              		.loc 1 21 0
  92 002e 0021     		movs	r1, #0
  93 0030 0020     		movs	r0, #0
ARM GAS  C:\Users\Roi\AppData\Local\Temp\cc9jkSOT.s 			page 3


  94 0032 FFF7FEFF 		bl	LCD_Position
  95              	.LVL8:
  22:lcd_smartboy.c ****     LCD_PrintString(first_data_buffer);
  96              		.loc 1 22 0
  97 0036 3000     		movs	r0, r6
  98 0038 FFF7FEFF 		bl	LCD_PrintString
  99              	.LVL9:
  23:lcd_smartboy.c ****     LCD_Position(1, 0);
 100              		.loc 1 23 0
 101 003c 0021     		movs	r1, #0
 102 003e 0120     		movs	r0, #1
 103 0040 FFF7FEFF 		bl	LCD_Position
 104              	.LVL10:
  24:lcd_smartboy.c ****     LCD_PrintString(second_data_buffer);
 105              		.loc 1 24 0
 106 0044 2800     		movs	r0, r5
 107 0046 FFF7FEFF 		bl	LCD_PrintString
 108              	.LVL11:
  25:lcd_smartboy.c ****     free(adc_data_list);
 109              		.loc 1 25 0
 110 004a 2000     		movs	r0, r4
 111 004c FFF7FEFF 		bl	free
 112              	.LVL12:
  26:lcd_smartboy.c **** }
 113              		.loc 1 26 0
 114              		@ sp needed
 115              	.LVL13:
 116 0050 70BD     		pop	{r4, r5, r6, pc}
 117              	.L4:
 118 0052 C046     		.align	2
 119              	.L3:
 120 0054 00000000 		.word	first_data_buffer
 121 0058 00000000 		.word	.LC0
 122 005c 00000000 		.word	second_data_buffer
 123 0060 04000000 		.word	.LC3
 124              		.cfi_endproc
 125              	.LFE38:
 126              		.size	lcd_data_screen, .-lcd_data_screen
 127              		.section	.text.Timer_Update_Int_Handler,"ax",%progbits
 128              		.align	2
 129              		.global	Timer_Update_Int_Handler
 130              		.code	16
 131              		.thumb_func
 132              		.type	Timer_Update_Int_Handler, %function
 133              	Timer_Update_Int_Handler:
 134              	.LFB36:
   3:lcd_smartboy.c ****     lcd_data_screen();
 135              		.loc 1 3 0
 136              		.cfi_startproc
 137              		@ args = 0, pretend = 0, frame = 0
 138              		@ frame_needed = 0, uses_anonymous_args = 0
 139 0000 10B5     		push	{r4, lr}
 140              		.cfi_def_cfa_offset 8
 141              		.cfi_offset 4, -8
 142              		.cfi_offset 14, -4
   4:lcd_smartboy.c **** }
 143              		.loc 1 4 0
ARM GAS  C:\Users\Roi\AppData\Local\Temp\cc9jkSOT.s 			page 4


 144 0002 FFF7FEFF 		bl	lcd_data_screen
 145              	.LVL14:
   5:lcd_smartboy.c **** 
 146              		.loc 1 5 0
 147              		@ sp needed
 148 0006 10BD     		pop	{r4, pc}
 149              		.cfi_endproc
 150              	.LFE36:
 151              		.size	Timer_Update_Int_Handler, .-Timer_Update_Int_Handler
 152              		.comm	second_data_buffer,16,4
 153              		.comm	first_data_buffer,16,4
 154              		.section	.rodata.str1.4,"aMS",%progbits,1
 155              		.align	2
 156              	.LC0:
 157 0000 257500   		.ascii	"%u\000"
 158 0003 00       		.space	1
 159              	.LC3:
 160 0004 25753A25 		.ascii	"%u:%u\000"
 160      7500
 161              		.text
 162              	.Letext0:
 163              		.file 2 "Generated_Source\\PSoC4/BLE_Stack.h"
 164              		.file 3 "Generated_Source\\PSoC4/BLE_eventHandler.h"
 165              		.file 4 "Generated_Source\\PSoC4/LCD.h"
 166              		.file 5 "adc_read.h"
 167              		.file 6 "c:\\program files (x86)\\cypress\\psoc creator\\4.2\\psoc creator\\import\\gnu\\arm\\5.4.
 168              		.file 7 "c:\\program files (x86)\\cypress\\psoc creator\\4.2\\psoc creator\\import\\gnu\\arm\\5.4.
 169              		.file 8 "Generated_Source\\PSoC4/cytypes.h"