ARM GAS  C:\Users\Kozak\AppData\Local\Temp\ccRtSGUf.s 			page 1


   1              		.syntax unified
   2              		.cpu cortex-m0
   3              		.fpu softvfp
   4              		.eabi_attribute 20, 1
   5              		.eabi_attribute 21, 1
   6              		.eabi_attribute 23, 3
   7              		.eabi_attribute 24, 1
   8              		.eabi_attribute 25, 1
   9              		.eabi_attribute 26, 1
  10              		.eabi_attribute 30, 1
  11              		.eabi_attribute 34, 0
  12              		.eabi_attribute 18, 4
  13              		.thumb
  14              		.syntax unified
  15              		.file	"lcd_bipboy.c"
  16              		.text
  17              	.Ltext0:
  18              		.cfi_sections	.debug_frame
  19              		.section	.text.lcd_init,"ax",%progbits
  20              		.align	2
  21              		.global	lcd_init
  22              		.code	16
  23              		.thumb_func
  24              		.type	lcd_init, %function
  25              	lcd_init:
  26              	.LFB62:
  27              		.file 1 "lcd_bipboy.c"
   1:lcd_bipboy.c  **** #include "bipboy.h"
   2:lcd_bipboy.c  **** 
   3:lcd_bipboy.c  **** bool arrayScreens[8];
   4:lcd_bipboy.c  **** uint8 numberOfPages[8] = {
   5:lcd_bipboy.c  ****  //MAIN_SCREEN  MENU_SCREEN   SENSORS_SCREEN
   6:lcd_bipboy.c  ****    ONE_PAGE,    MENU_STRINGS, SENSORS_STRINGS,
   7:lcd_bipboy.c  ****  //DATE_SCREEN   HOME_SCREEN PHONE_SCREEN
   8:lcd_bipboy.c  ****    DATE_STRINGS, ONE_PAGE,   ONE_PAGE,
   9:lcd_bipboy.c  ****  //SET_TIME_SCREEN   SET_DATE_SCREEN  
  10:lcd_bipboy.c  ****    SET_TIME_STRINGS, SET_DATE_STRINGS      
  11:lcd_bipboy.c  **** };
  12:lcd_bipboy.c  **** 
  13:lcd_bipboy.c  **** // Buffers for Time and Date strings
  14:lcd_bipboy.c  **** char timeBuffer[16u];
  15:lcd_bipboy.c  **** char dateBuffer[16u];
  16:lcd_bipboy.c  **** 
  17:lcd_bipboy.c  **** uint8 lengthArray = sizeof(arrayScreens);
  18:lcd_bipboy.c  **** 
  19:lcd_bipboy.c  **** const char * menuStrings[MENU_STRINGS][2] = {
  20:lcd_bipboy.c  ****     { "Sensors data", "" },
  21:lcd_bipboy.c  ****     { "Date & Time", "" },
  22:lcd_bipboy.c  ****     { "Home control", "(Inactive)" },
  23:lcd_bipboy.c  ****     { "Phone", "connection" }
  24:lcd_bipboy.c  **** };
  25:lcd_bipboy.c  **** 
  26:lcd_bipboy.c  **** const char * dateStrings[DATE_STRINGS][2] = {
  27:lcd_bipboy.c  ****     { "Set Time", "" },
  28:lcd_bipboy.c  ****     { "Set Date", "" },
  29:lcd_bipboy.c  ****     { "Alarm", "" },
  30:lcd_bipboy.c  ****     { "Stopwatch", "" },
ARM GAS  C:\Users\Kozak\AppData\Local\Temp\ccRtSGUf.s 			page 2


  31:lcd_bipboy.c  ****     { "Timer", "" },
  32:lcd_bipboy.c  ****     { "Time Settings", "" }
  33:lcd_bipboy.c  **** };
  34:lcd_bipboy.c  **** 
  35:lcd_bipboy.c  **** const char * sensorsStrings[SENSORS_STRINGS][2] = {
  36:lcd_bipboy.c  ****     { "Weather", "T"},
  37:lcd_bipboy.c  ****     { "Pulse", "" }
  38:lcd_bipboy.c  **** };
  39:lcd_bipboy.c  **** 
  40:lcd_bipboy.c  **** void lcd_init(void) {
  28              		.loc 1 40 0
  29              		.cfi_startproc
  30              		@ args = 0, pretend = 0, frame = 0
  31              		@ frame_needed = 0, uses_anonymous_args = 0
  32 0000 10B5     		push	{r4, lr}
  33              		.cfi_def_cfa_offset 8
  34              		.cfi_offset 4, -8
  35              		.cfi_offset 14, -4
  41:lcd_bipboy.c  ****     LCD_Start();
  36              		.loc 1 41 0
  37 0002 FFF7FEFF 		bl	LCD_Start
  38              	.LVL0:
  42:lcd_bipboy.c  ****     LCD_Position(0, 4);
  39              		.loc 1 42 0
  40 0006 0421     		movs	r1, #4
  41 0008 0020     		movs	r0, #0
  42 000a FFF7FEFF 		bl	LCD_Position
  43              	.LVL1:
  43:lcd_bipboy.c  ****     LCD_PrintString("SmartBoy");
  44              		.loc 1 43 0
  45 000e 0448     		ldr	r0, .L2
  46 0010 FFF7FEFF 		bl	LCD_PrintString
  47              	.LVL2:
  44:lcd_bipboy.c  ****     CyDelay(2000); //5000
  48              		.loc 1 44 0
  49 0014 FA20     		movs	r0, #250
  50 0016 C000     		lsls	r0, r0, #3
  51 0018 FFF7FEFF 		bl	CyDelay
  52              	.LVL3:
  45:lcd_bipboy.c  **** }
  53              		.loc 1 45 0
  54              		@ sp needed
  55 001c 10BD     		pop	{r4, pc}
  56              	.L3:
  57 001e C046     		.align	2
  58              	.L2:
  59 0020 00000000 		.word	.LC0
  60              		.cfi_endproc
  61              	.LFE62:
  62              		.size	lcd_init, .-lcd_init
  63              		.section	.text.lcd_position_brackets,"ax",%progbits
  64              		.align	2
  65              		.global	lcd_position_brackets
  66              		.code	16
  67              		.thumb_func
  68              		.type	lcd_position_brackets, %function
  69              	lcd_position_brackets:
ARM GAS  C:\Users\Kozak\AppData\Local\Temp\ccRtSGUf.s 			page 3


  70              	.LFB66:
  46:lcd_bipboy.c  **** 
  47:lcd_bipboy.c  **** void lcd_main_screen(void) {
  48:lcd_bipboy.c  ****     LCD_ClearDisplay();
  49:lcd_bipboy.c  ****     set_active_screen(MAIN_SCREEN);
  50:lcd_bipboy.c  ****     
  51:lcd_bipboy.c  ****     uint32 time;
  52:lcd_bipboy.c  ****     uint32 date;
  53:lcd_bipboy.c  ****     
  54:lcd_bipboy.c  ****     time = RTC_GetTime();
  55:lcd_bipboy.c  ****     date = RTC_GetDate();
  56:lcd_bipboy.c  ****     
  57:lcd_bipboy.c  ****     sprintf(timeBuffer, "%02lu:%02lu:%02lu", RTC_GetHours(time), 
  58:lcd_bipboy.c  ****         RTC_GetMinutes(time), RTC_GetSecond(time));
  59:lcd_bipboy.c  ****     sprintf(dateBuffer, "%02lu/%02lu/%02lu", RTC_GetDay(date), 
  60:lcd_bipboy.c  ****         RTC_GetMonth(date), RTC_GetYear(date));
  61:lcd_bipboy.c  ****     
  62:lcd_bipboy.c  ****     LCD_Position(0, 0);
  63:lcd_bipboy.c  ****     LCD_PrintString(timeBuffer);
  64:lcd_bipboy.c  ****     LCD_Position(0, 11);
  65:lcd_bipboy.c  ****     LCD_PrintString("100%");
  66:lcd_bipboy.c  ****     LCD_Position(0, 15);
  67:lcd_bipboy.c  ****     LCD_PutChar(LCD_CUSTOM_1);
  68:lcd_bipboy.c  ****     LCD_Position(1, 0);
  69:lcd_bipboy.c  ****     LCD_PrintString(dateBuffer);
  70:lcd_bipboy.c  **** }
  71:lcd_bipboy.c  **** 
  72:lcd_bipboy.c  **** void lcd_set_date_screen(void) {
  73:lcd_bipboy.c  ****     LCD_ClearDisplay();
  74:lcd_bipboy.c  ****     set_active_screen(SET_DATE_SCREEN);
  75:lcd_bipboy.c  ****     
  76:lcd_bipboy.c  ****     set_date();
  77:lcd_bipboy.c  ****     
  78:lcd_bipboy.c  ****     int8 day = get_day();
  79:lcd_bipboy.c  ****     int8 month = get_month();
  80:lcd_bipboy.c  ****     int16 year = get_year();
  81:lcd_bipboy.c  ****     
  82:lcd_bipboy.c  ****     sprintf(dateBuffer, "%02u/%02u/%02u", day, month, year);
  83:lcd_bipboy.c  ****     LCD_Position(0, 0);
  84:lcd_bipboy.c  ****     LCD_PrintString(dateBuffer);
  85:lcd_bipboy.c  ****     LCD_Position(0, 14);
  86:lcd_bipboy.c  ****     LCD_PrintString("OK");
  87:lcd_bipboy.c  ****     lcd_position_brackets();
  88:lcd_bipboy.c  **** }
  89:lcd_bipboy.c  **** 
  90:lcd_bipboy.c  **** void lcd_set_time_screen(void) {
  91:lcd_bipboy.c  ****     LCD_ClearDisplay();
  92:lcd_bipboy.c  ****     set_active_screen(SET_TIME_SCREEN);
  93:lcd_bipboy.c  ****     
  94:lcd_bipboy.c  ****     set_time();
  95:lcd_bipboy.c  ****     
  96:lcd_bipboy.c  ****     int8 hour = get_hour();
  97:lcd_bipboy.c  ****     int8 minute = get_minute();
  98:lcd_bipboy.c  ****     int8 second = get_second();    
  99:lcd_bipboy.c  ****     
 100:lcd_bipboy.c  ****     sprintf(timeBuffer, "%02u:%02u:%02u", hour, minute, second);
 101:lcd_bipboy.c  ****     LCD_Position(0, 0);
ARM GAS  C:\Users\Kozak\AppData\Local\Temp\ccRtSGUf.s 			page 4


 102:lcd_bipboy.c  ****     LCD_PrintString(timeBuffer);
 103:lcd_bipboy.c  ****     LCD_Position(0, 14);
 104:lcd_bipboy.c  ****     LCD_PrintString("OK");
 105:lcd_bipboy.c  ****     lcd_position_brackets();
 106:lcd_bipboy.c  **** }
 107:lcd_bipboy.c  **** 
 108:lcd_bipboy.c  **** void lcd_position_brackets(void) {
  71              		.loc 1 108 0
  72              		.cfi_startproc
  73              		@ args = 0, pretend = 0, frame = 0
  74              		@ frame_needed = 0, uses_anonymous_args = 0
  75 0000 10B5     		push	{r4, lr}
  76              		.cfi_def_cfa_offset 8
  77              		.cfi_offset 4, -8
  78              		.cfi_offset 14, -4
 109:lcd_bipboy.c  ****     uint8 position = get_counter_ok_back();
  79              		.loc 1 109 0
  80 0002 FFF7FEFF 		bl	get_counter_ok_back
  81              	.LVL4:
 110:lcd_bipboy.c  ****     if(position == 1){
  82              		.loc 1 110 0
  83 0006 0128     		cmp	r0, #1
  84 0008 06D1     		bne	.L5
 111:lcd_bipboy.c  ****         LCD_Position(1, 0);
  85              		.loc 1 111 0
  86 000a 0021     		movs	r1, #0
  87 000c FFF7FEFF 		bl	LCD_Position
  88              	.LVL5:
 112:lcd_bipboy.c  ****         LCD_PrintString("^^");
  89              		.loc 1 112 0
  90 0010 1048     		ldr	r0, .L9
  91 0012 FFF7FEFF 		bl	LCD_PrintString
  92              	.LVL6:
  93 0016 1CE0     		b	.L4
  94              	.LVL7:
  95              	.L5:
 113:lcd_bipboy.c  ****     } else if(position == 2){
  96              		.loc 1 113 0
  97 0018 0228     		cmp	r0, #2
  98 001a 07D1     		bne	.L7
 114:lcd_bipboy.c  ****         LCD_Position(1, 3);
  99              		.loc 1 114 0
 100 001c 0321     		movs	r1, #3
 101 001e 0138     		subs	r0, r0, #1
 102              	.LVL8:
 103 0020 FFF7FEFF 		bl	LCD_Position
 104              	.LVL9:
 115:lcd_bipboy.c  ****         LCD_PrintString("^^");
 105              		.loc 1 115 0
 106 0024 0B48     		ldr	r0, .L9
 107 0026 FFF7FEFF 		bl	LCD_PrintString
 108              	.LVL10:
 109 002a 12E0     		b	.L4
 110              	.LVL11:
 111              	.L7:
 116:lcd_bipboy.c  ****     } else if(position == 3){
 112              		.loc 1 116 0
ARM GAS  C:\Users\Kozak\AppData\Local\Temp\ccRtSGUf.s 			page 5


 113 002c 0328     		cmp	r0, #3
 114 002e 07D1     		bne	.L8
 117:lcd_bipboy.c  ****         LCD_Position(1, 6);
 115              		.loc 1 117 0
 116 0030 0621     		movs	r1, #6
 117 0032 0238     		subs	r0, r0, #2
 118              	.LVL12:
 119 0034 FFF7FEFF 		bl	LCD_Position
 120              	.LVL13:
 118:lcd_bipboy.c  ****         LCD_PrintString("^^");
 121              		.loc 1 118 0
 122 0038 0648     		ldr	r0, .L9
 123 003a FFF7FEFF 		bl	LCD_PrintString
 124              	.LVL14:
 125 003e 08E0     		b	.L4
 126              	.LVL15:
 127              	.L8:
 119:lcd_bipboy.c  ****     }else if(position == 4){
 128              		.loc 1 119 0
 129 0040 0428     		cmp	r0, #4
 130 0042 06D1     		bne	.L4
 120:lcd_bipboy.c  ****         LCD_Position(1, 14);
 131              		.loc 1 120 0
 132 0044 0E21     		movs	r1, #14
 133 0046 0338     		subs	r0, r0, #3
 134              	.LVL16:
 135 0048 FFF7FEFF 		bl	LCD_Position
 136              	.LVL17:
 121:lcd_bipboy.c  ****         LCD_PrintString("^^");
 137              		.loc 1 121 0
 138 004c 0148     		ldr	r0, .L9
 139 004e FFF7FEFF 		bl	LCD_PrintString
 140              	.LVL18:
 141              	.L4:
 122:lcd_bipboy.c  ****     }
 123:lcd_bipboy.c  **** }
 142              		.loc 1 123 0
 143              		@ sp needed
 144 0052 10BD     		pop	{r4, pc}
 145              	.L10:
 146              		.align	2
 147              	.L9:
 148 0054 0C000000 		.word	.LC2
 149              		.cfi_endproc
 150              	.LFE66:
 151              		.size	lcd_position_brackets, .-lcd_position_brackets
 152              		.section	.text.set_active_screen,"ax",%progbits
 153              		.align	2
 154              		.global	set_active_screen
 155              		.code	16
 156              		.thumb_func
 157              		.type	set_active_screen, %function
 158              	set_active_screen:
 159              	.LFB70:
 124:lcd_bipboy.c  **** 
 125:lcd_bipboy.c  **** void lcd_sensors_screen(uint8 stringToDisplay) {
 126:lcd_bipboy.c  ****     LCD_ClearDisplay();
ARM GAS  C:\Users\Kozak\AppData\Local\Temp\ccRtSGUf.s 			page 6


 127:lcd_bipboy.c  ****     set_active_screen(SENSORS_SCREEN);
 128:lcd_bipboy.c  ****     LCD_Position(0, 0);
 129:lcd_bipboy.c  ****     LCD_PrintString(sensorsStrings[stringToDisplay][0]);
 130:lcd_bipboy.c  ****     LCD_Position(1, 0);
 131:lcd_bipboy.c  ****     LCD_PrintString(sensorsStrings[stringToDisplay][1]);
 132:lcd_bipboy.c  **** }
 133:lcd_bipboy.c  **** 
 134:lcd_bipboy.c  **** void lcd_menu_screen(uint8 stringToDisplay) {
 135:lcd_bipboy.c  ****     LCD_ClearDisplay();
 136:lcd_bipboy.c  ****     set_active_screen(MENU_SCREEN);
 137:lcd_bipboy.c  ****     LCD_Position(0, 0);
 138:lcd_bipboy.c  ****     LCD_PrintString(menuStrings[stringToDisplay][0]);
 139:lcd_bipboy.c  ****     LCD_Position(1, 0);
 140:lcd_bipboy.c  ****     LCD_PrintString(menuStrings[stringToDisplay][1]);
 141:lcd_bipboy.c  **** }
 142:lcd_bipboy.c  **** 
 143:lcd_bipboy.c  **** void lcd_date_screen(uint8 stringToDisplay) {
 144:lcd_bipboy.c  ****     LCD_ClearDisplay();
 145:lcd_bipboy.c  ****     set_active_screen(DATE_SCREEN);
 146:lcd_bipboy.c  ****     LCD_Position(0, 0);
 147:lcd_bipboy.c  ****     LCD_PrintString(dateStrings[stringToDisplay][0]);
 148:lcd_bipboy.c  ****     LCD_Position(1, 0);
 149:lcd_bipboy.c  ****     LCD_PrintString(dateStrings[stringToDisplay][1]);
 150:lcd_bipboy.c  **** }
 151:lcd_bipboy.c  **** 
 152:lcd_bipboy.c  **** void set_active_screen(uint8 screen) {
 160              		.loc 1 152 0
 161              		.cfi_startproc
 162              		@ args = 0, pretend = 0, frame = 0
 163              		@ frame_needed = 0, uses_anonymous_args = 0
 164              		@ link register save eliminated.
 165              	.LVL19:
 166              	.LBB14:
 153:lcd_bipboy.c  ****     for(uint8 currentScreen = 0; currentScreen < lengthArray; currentScreen++) {
 167              		.loc 1 153 0
 168 0000 0023     		movs	r3, #0
 169 0002 0AE0     		b	.L12
 170              	.LVL20:
 171              	.L15:
 154:lcd_bipboy.c  ****         if(currentScreen == screen) {
 172              		.loc 1 154 0
 173 0004 8342     		cmp	r3, r0
 174 0006 03D1     		bne	.L13
 155:lcd_bipboy.c  ****             arrayScreens[currentScreen] = true;
 175              		.loc 1 155 0
 176 0008 0121     		movs	r1, #1
 177 000a 064A     		ldr	r2, .L16
 178 000c D154     		strb	r1, [r2, r3]
 179 000e 02E0     		b	.L14
 180              	.L13:
 156:lcd_bipboy.c  ****         } else {
 157:lcd_bipboy.c  ****             arrayScreens[currentScreen] = false;
 181              		.loc 1 157 0
 182 0010 0021     		movs	r1, #0
 183 0012 044A     		ldr	r2, .L16
 184 0014 D154     		strb	r1, [r2, r3]
 185              	.L14:
ARM GAS  C:\Users\Kozak\AppData\Local\Temp\ccRtSGUf.s 			page 7


 153:lcd_bipboy.c  ****         if(currentScreen == screen) {
 186              		.loc 1 153 0 discriminator 2
 187 0016 0133     		adds	r3, r3, #1
 188              	.LVL21:
 189 0018 DBB2     		uxtb	r3, r3
 190              	.LVL22:
 191              	.L12:
 153:lcd_bipboy.c  ****         if(currentScreen == screen) {
 192              		.loc 1 153 0 is_stmt 0 discriminator 1
 193 001a 034A     		ldr	r2, .L16+4
 194 001c 1278     		ldrb	r2, [r2]
 195 001e 9342     		cmp	r3, r2
 196 0020 F0D3     		bcc	.L15
 197              	.LBE14:
 158:lcd_bipboy.c  ****         }
 159:lcd_bipboy.c  ****     }
 160:lcd_bipboy.c  **** }
 198              		.loc 1 160 0 is_stmt 1
 199              		@ sp needed
 200 0022 7047     		bx	lr
 201              	.L17:
 202              		.align	2
 203              	.L16:
 204 0024 00000000 		.word	arrayScreens
 205 0028 00000000 		.word	.LANCHOR0
 206              		.cfi_endproc
 207              	.LFE70:
 208              		.size	set_active_screen, .-set_active_screen
 209              		.section	.text.lcd_main_screen,"ax",%progbits
 210              		.align	2
 211              		.global	lcd_main_screen
 212              		.code	16
 213              		.thumb_func
 214              		.type	lcd_main_screen, %function
 215              	lcd_main_screen:
 216              	.LFB63:
  47:lcd_bipboy.c  ****     LCD_ClearDisplay();
 217              		.loc 1 47 0
 218              		.cfi_startproc
 219              		@ args = 0, pretend = 0, frame = 0
 220              		@ frame_needed = 0, uses_anonymous_args = 0
 221 0000 F0B5     		push	{r4, r5, r6, r7, lr}
 222              		.cfi_def_cfa_offset 20
 223              		.cfi_offset 4, -20
 224              		.cfi_offset 5, -16
 225              		.cfi_offset 6, -12
 226              		.cfi_offset 7, -8
 227              		.cfi_offset 14, -4
 228 0002 4746     		mov	r7, r8
 229 0004 80B4     		push	{r7}
 230              		.cfi_def_cfa_offset 24
 231              		.cfi_offset 8, -24
 232 0006 82B0     		sub	sp, sp, #8
 233              		.cfi_def_cfa_offset 32
  48:lcd_bipboy.c  ****     set_active_screen(MAIN_SCREEN);
 234              		.loc 1 48 0
 235 0008 0120     		movs	r0, #1
ARM GAS  C:\Users\Kozak\AppData\Local\Temp\ccRtSGUf.s 			page 8


 236 000a FFF7FEFF 		bl	LCD_WriteControl
 237              	.LVL23:
  49:lcd_bipboy.c  ****     
 238              		.loc 1 49 0
 239 000e 0020     		movs	r0, #0
 240 0010 FFF7FEFF 		bl	set_active_screen
 241              	.LVL24:
  54:lcd_bipboy.c  ****     date = RTC_GetDate();
 242              		.loc 1 54 0
 243 0014 FFF7FEFF 		bl	RTC_GetTime
 244              	.LVL25:
 245 0018 0500     		movs	r5, r0
 246              	.LVL26:
  55:lcd_bipboy.c  ****     
 247              		.loc 1 55 0
 248 001a FFF7FEFF 		bl	RTC_GetDate
 249              	.LVL27:
 250 001e 0400     		movs	r4, r0
 251              	.LVL28:
 252              	.LBB15:
 253              	.LBB16:
 254              		.file 2 "Generated_Source\\PSoC4/RTC.h"
   1:Generated_Source\PSoC4/RTC.h **** /***************************************************************************//**
   2:Generated_Source\PSoC4/RTC.h **** * \file Name: RTC.h
   3:Generated_Source\PSoC4/RTC.h **** * \version 1.10
   4:Generated_Source\PSoC4/RTC.h **** *
   5:Generated_Source\PSoC4/RTC.h **** * \brief
   6:Generated_Source\PSoC4/RTC.h **** *  This file provides constants and parameter values for the RTC_P4 Component.
   7:Generated_Source\PSoC4/RTC.h **** *
   8:Generated_Source\PSoC4/RTC.h **** ********************************************************************************
   9:Generated_Source\PSoC4/RTC.h **** * Copyright 2015-2016, Cypress Semiconductor Corporation.  All rights reserved.
  10:Generated_Source\PSoC4/RTC.h **** * You may use this file only in accordance with the license, terms, conditions,
  11:Generated_Source\PSoC4/RTC.h **** * disclaimers, and limitations in the end user license agreement accompanying
  12:Generated_Source\PSoC4/RTC.h **** * the software package with which this file was provided.
  13:Generated_Source\PSoC4/RTC.h **** *******************************************************************************/
  14:Generated_Source\PSoC4/RTC.h **** 
  15:Generated_Source\PSoC4/RTC.h **** #if !defined(CY_RTC_P4_RTC_H)
  16:Generated_Source\PSoC4/RTC.h **** #define CY_RTC_P4_RTC_H
  17:Generated_Source\PSoC4/RTC.h **** 
  18:Generated_Source\PSoC4/RTC.h **** #include <cytypes.h>
  19:Generated_Source\PSoC4/RTC.h **** #include <CyLib.h>
  20:Generated_Source\PSoC4/RTC.h **** 
  21:Generated_Source\PSoC4/RTC.h **** 
  22:Generated_Source\PSoC4/RTC.h **** /*******************************************************************************
  23:Generated_Source\PSoC4/RTC.h **** *    Data types definition
  24:Generated_Source\PSoC4/RTC.h **** *******************************************************************************/
  25:Generated_Source\PSoC4/RTC.h **** 
  26:Generated_Source\PSoC4/RTC.h **** typedef enum
  27:Generated_Source\PSoC4/RTC.h **** {
  28:Generated_Source\PSoC4/RTC.h ****     RTC_DST_DATE_RELATIVE = 0u,
  29:Generated_Source\PSoC4/RTC.h ****     RTC_DST_DATE_FIXED = 1u
  30:Generated_Source\PSoC4/RTC.h **** }RTC_DST_DATETYPE_ENUM;
  31:Generated_Source\PSoC4/RTC.h **** 
  32:Generated_Source\PSoC4/RTC.h **** /**
  33:Generated_Source\PSoC4/RTC.h **** * \addtogroup group_structures
  34:Generated_Source\PSoC4/RTC.h **** * @{
  35:Generated_Source\PSoC4/RTC.h **** */
ARM GAS  C:\Users\Kozak\AppData\Local\Temp\ccRtSGUf.s 			page 9


  36:Generated_Source\PSoC4/RTC.h **** 
  37:Generated_Source\PSoC4/RTC.h **** /**
  38:Generated_Source\PSoC4/RTC.h **** * This is the data structure that is used to save the current time and date 
  39:Generated_Source\PSoC4/RTC.h **** * (RTC_currentTimeDate), and Alarm time and date (RTC_alarmCfgTimeDate).
  40:Generated_Source\PSoC4/RTC.h **** */
  41:Generated_Source\PSoC4/RTC.h **** typedef struct
  42:Generated_Source\PSoC4/RTC.h **** {
  43:Generated_Source\PSoC4/RTC.h ****     uint32 time;
  44:Generated_Source\PSoC4/RTC.h ****     uint32 date;
  45:Generated_Source\PSoC4/RTC.h ****     uint32 dayOfWeek;
  46:Generated_Source\PSoC4/RTC.h ****     uint32 status;
  47:Generated_Source\PSoC4/RTC.h **** }RTC_DATE_TIME;
  48:Generated_Source\PSoC4/RTC.h **** 
  49:Generated_Source\PSoC4/RTC.h **** /**
  50:Generated_Source\PSoC4/RTC.h **** * This is the data structure that is used to save time and date values for 
  51:Generated_Source\PSoC4/RTC.h **** * Daylight Savings Time Start and Stop (RTC_dstTimeDateStart and 
  52:Generated_Source\PSoC4/RTC.h **** * RTC_dstTimeDateStop).
  53:Generated_Source\PSoC4/RTC.h **** */
  54:Generated_Source\PSoC4/RTC.h **** typedef struct
  55:Generated_Source\PSoC4/RTC.h **** {
  56:Generated_Source\PSoC4/RTC.h ****     uint32 hour;
  57:Generated_Source\PSoC4/RTC.h ****     uint32 dayOfWeek;
  58:Generated_Source\PSoC4/RTC.h ****     uint32 dayOfMonth;
  59:Generated_Source\PSoC4/RTC.h ****     uint32 weekOfMonth;
  60:Generated_Source\PSoC4/RTC.h ****     uint32 month;
  61:Generated_Source\PSoC4/RTC.h ****     uint8  timeFormat;
  62:Generated_Source\PSoC4/RTC.h **** }RTC_DST_TIME;
  63:Generated_Source\PSoC4/RTC.h **** 
  64:Generated_Source\PSoC4/RTC.h **** /** @} structures */
  65:Generated_Source\PSoC4/RTC.h **** 
  66:Generated_Source\PSoC4/RTC.h **** /*******************************************************************************
  67:Generated_Source\PSoC4/RTC.h **** *    Enumerated Types and Parameters
  68:Generated_Source\PSoC4/RTC.h **** *******************************************************************************/
  69:Generated_Source\PSoC4/RTC.h **** /* Time Format setting constants */
  70:Generated_Source\PSoC4/RTC.h **** #define RTC__HOUR_12 1
  71:Generated_Source\PSoC4/RTC.h **** #define RTC__HOUR_24 0
  72:Generated_Source\PSoC4/RTC.h **** 
  73:Generated_Source\PSoC4/RTC.h **** /*  Date Format setting constants */
  74:Generated_Source\PSoC4/RTC.h **** #define RTC__MM_DD_YYYY 0
  75:Generated_Source\PSoC4/RTC.h **** #define RTC__DD_MM_YYYY 1
  76:Generated_Source\PSoC4/RTC.h **** #define RTC__YYYY_MM_DD 2
  77:Generated_Source\PSoC4/RTC.h **** 
  78:Generated_Source\PSoC4/RTC.h **** /* Date Type setting constants */
  79:Generated_Source\PSoC4/RTC.h **** #define RTC__RELATIVE 0
  80:Generated_Source\PSoC4/RTC.h **** #define RTC__FIXED 1
  81:Generated_Source\PSoC4/RTC.h **** 
  82:Generated_Source\PSoC4/RTC.h **** /* DST Hour setting constants */
  83:Generated_Source\PSoC4/RTC.h **** #define RTC__H0000 0
  84:Generated_Source\PSoC4/RTC.h **** #define RTC__H0100 1
  85:Generated_Source\PSoC4/RTC.h **** #define RTC__H0200 2
  86:Generated_Source\PSoC4/RTC.h **** #define RTC__H0300 3
  87:Generated_Source\PSoC4/RTC.h **** #define RTC__H0400 4
  88:Generated_Source\PSoC4/RTC.h **** #define RTC__H0500 5
  89:Generated_Source\PSoC4/RTC.h **** #define RTC__H0600 6
  90:Generated_Source\PSoC4/RTC.h **** #define RTC__H0700 7
  91:Generated_Source\PSoC4/RTC.h **** #define RTC__H0800 8
  92:Generated_Source\PSoC4/RTC.h **** #define RTC__H0900 9
ARM GAS  C:\Users\Kozak\AppData\Local\Temp\ccRtSGUf.s 			page 10


  93:Generated_Source\PSoC4/RTC.h **** #define RTC__H1000 10
  94:Generated_Source\PSoC4/RTC.h **** #define RTC__H1100 11
  95:Generated_Source\PSoC4/RTC.h **** #define RTC__H1200 12
  96:Generated_Source\PSoC4/RTC.h **** #define RTC__H1300 13
  97:Generated_Source\PSoC4/RTC.h **** #define RTC__H1400 14
  98:Generated_Source\PSoC4/RTC.h **** #define RTC__H1500 15
  99:Generated_Source\PSoC4/RTC.h **** #define RTC__H1600 16
 100:Generated_Source\PSoC4/RTC.h **** #define RTC__H1700 17
 101:Generated_Source\PSoC4/RTC.h **** #define RTC__H1800 18
 102:Generated_Source\PSoC4/RTC.h **** #define RTC__H1900 19
 103:Generated_Source\PSoC4/RTC.h **** #define RTC__H2000 20
 104:Generated_Source\PSoC4/RTC.h **** #define RTC__H2100 21
 105:Generated_Source\PSoC4/RTC.h **** #define RTC__H2200 22
 106:Generated_Source\PSoC4/RTC.h **** #define RTC__H2300 23
 107:Generated_Source\PSoC4/RTC.h **** 
 108:Generated_Source\PSoC4/RTC.h **** /* DST DayOfWeek setting constants */
 109:Generated_Source\PSoC4/RTC.h **** #define RTC__SUNDAY 1
 110:Generated_Source\PSoC4/RTC.h **** #define RTC__MONDAY 2
 111:Generated_Source\PSoC4/RTC.h **** #define RTC__TUESDAY 3
 112:Generated_Source\PSoC4/RTC.h **** #define RTC__WEDNESDAY 4
 113:Generated_Source\PSoC4/RTC.h **** #define RTC__THURSDAY 5
 114:Generated_Source\PSoC4/RTC.h **** #define RTC__FRIDAY 6
 115:Generated_Source\PSoC4/RTC.h **** #define RTC__SATURDAY 7
 116:Generated_Source\PSoC4/RTC.h **** 
 117:Generated_Source\PSoC4/RTC.h **** /* DST Month setting constants */
 118:Generated_Source\PSoC4/RTC.h **** #define RTC__JAN 1
 119:Generated_Source\PSoC4/RTC.h **** #define RTC__FEB 2
 120:Generated_Source\PSoC4/RTC.h **** #define RTC__MAR 3
 121:Generated_Source\PSoC4/RTC.h **** #define RTC__APR 4
 122:Generated_Source\PSoC4/RTC.h **** #define RTC__MAY 5
 123:Generated_Source\PSoC4/RTC.h **** #define RTC__JUN 6
 124:Generated_Source\PSoC4/RTC.h **** #define RTC__JUL 7
 125:Generated_Source\PSoC4/RTC.h **** #define RTC__AUG 8
 126:Generated_Source\PSoC4/RTC.h **** #define RTC__SEP 9
 127:Generated_Source\PSoC4/RTC.h **** #define RTC__OCT 10
 128:Generated_Source\PSoC4/RTC.h **** #define RTC__NOV 11
 129:Generated_Source\PSoC4/RTC.h **** #define RTC__DEC 12
 130:Generated_Source\PSoC4/RTC.h **** 
 131:Generated_Source\PSoC4/RTC.h **** /* DST WeekOfMonth setting constants */
 132:Generated_Source\PSoC4/RTC.h **** #define RTC__FIRST 1
 133:Generated_Source\PSoC4/RTC.h **** #define RTC__SECOND 2
 134:Generated_Source\PSoC4/RTC.h **** #define RTC__THIRD 3
 135:Generated_Source\PSoC4/RTC.h **** #define RTC__FOURTH 4
 136:Generated_Source\PSoC4/RTC.h **** #define RTC__FIFTH 5
 137:Generated_Source\PSoC4/RTC.h **** #define RTC__LAST 6
 138:Generated_Source\PSoC4/RTC.h **** 
 139:Generated_Source\PSoC4/RTC.h **** 
 140:Generated_Source\PSoC4/RTC.h **** #define RTC_INITIAL_DATA_FORMAT     (0u)
 141:Generated_Source\PSoC4/RTC.h **** #define RTC_INITIAL_TIME_FORMAT     (0u)
 142:Generated_Source\PSoC4/RTC.h **** #define RTC_INITIAL_UPDATE_MODE     (0u)
 143:Generated_Source\PSoC4/RTC.h **** #define RTC_INITIAL_SECOND          (0u)
 144:Generated_Source\PSoC4/RTC.h **** #define RTC_INITIAL_MINUTE          (0u)
 145:Generated_Source\PSoC4/RTC.h **** #define RTC_INITIAL_HOUR            (0u)
 146:Generated_Source\PSoC4/RTC.h **** #define RTC_INITIAL_DAY             (1u)
 147:Generated_Source\PSoC4/RTC.h **** #define RTC_INITIAL_MONTH           (1u)
 148:Generated_Source\PSoC4/RTC.h **** #define RTC_INITIAL_YEAR            (2019u)
 149:Generated_Source\PSoC4/RTC.h **** 
ARM GAS  C:\Users\Kozak\AppData\Local\Temp\ccRtSGUf.s 			page 11


 150:Generated_Source\PSoC4/RTC.h **** #define RTC_INITIAL_ALARM_STATUS    (0u)
 151:Generated_Source\PSoC4/RTC.h **** 
 152:Generated_Source\PSoC4/RTC.h **** #define RTC_INITIAL_DST_STATUS      (1u)
 153:Generated_Source\PSoC4/RTC.h **** #define RTC_INITIAL_DST_DATE_TYPE   (1u)
 154:Generated_Source\PSoC4/RTC.h **** #define RTC_INITIAL_DST_START_MONTH (3uL)
 155:Generated_Source\PSoC4/RTC.h **** #define RTC_INITIAL_DST_START_WOM   (6uL)
 156:Generated_Source\PSoC4/RTC.h **** #define RTC_INITIAL_DST_START_DOM   (22uL)
 157:Generated_Source\PSoC4/RTC.h **** #define RTC_INITIAL_DST_START_DOW   (1uL)
 158:Generated_Source\PSoC4/RTC.h **** #define RTC_INITIAL_DST_START_HRS   (3uL)
 159:Generated_Source\PSoC4/RTC.h **** #define RTC_INITIAL_DST_STOP_MONTH  (10uL)
 160:Generated_Source\PSoC4/RTC.h **** #define RTC_INITIAL_DST_STOP_DOM    (22uL)
 161:Generated_Source\PSoC4/RTC.h **** #define RTC_INITIAL_DST_STOP_DOW    (1uL)
 162:Generated_Source\PSoC4/RTC.h **** #define RTC_INITIAL_DST_STOP_WOM    (6uL)
 163:Generated_Source\PSoC4/RTC.h **** #define RTC_INITIAL_DST_STOP_HRS    (3uL)
 164:Generated_Source\PSoC4/RTC.h **** 
 165:Generated_Source\PSoC4/RTC.h **** /* Day of week definitions */
 166:Generated_Source\PSoC4/RTC.h **** #define RTC_SUNDAY     (RTC__SUNDAY)
 167:Generated_Source\PSoC4/RTC.h **** #define RTC_MONDAY     (RTC__MONDAY)
 168:Generated_Source\PSoC4/RTC.h **** #define RTC_TUESDAY    (RTC__TUESDAY)
 169:Generated_Source\PSoC4/RTC.h **** #define RTC_WEDNESDAY  (RTC__WEDNESDAY)
 170:Generated_Source\PSoC4/RTC.h **** #define RTC_THURSDAY   (RTC__THURSDAY)
 171:Generated_Source\PSoC4/RTC.h **** #define RTC_FRIDAY     (RTC__FRIDAY)
 172:Generated_Source\PSoC4/RTC.h **** #define RTC_SATURDAY   (RTC__SATURDAY)
 173:Generated_Source\PSoC4/RTC.h **** 
 174:Generated_Source\PSoC4/RTC.h **** /* DST WeekOfMonth setting constants definitions */
 175:Generated_Source\PSoC4/RTC.h **** #define RTC_FIRST      (RTC__FIRST)
 176:Generated_Source\PSoC4/RTC.h **** #define RTC_SECOND     (RTC__SECOND)
 177:Generated_Source\PSoC4/RTC.h **** #define RTC_THIRD      (RTC__THIRD)
 178:Generated_Source\PSoC4/RTC.h **** #define RTC_FOURTH     (RTC__FOURTH)
 179:Generated_Source\PSoC4/RTC.h **** #define RTC_FIFTH      (RTC__FIFTH)
 180:Generated_Source\PSoC4/RTC.h **** #define RTC_LAST       (RTC__LAST)
 181:Generated_Source\PSoC4/RTC.h **** 
 182:Generated_Source\PSoC4/RTC.h **** /* Month definitions */
 183:Generated_Source\PSoC4/RTC.h **** #define RTC_JANUARY    (RTC__JAN)
 184:Generated_Source\PSoC4/RTC.h **** #define RTC_FEBRUARY   (RTC__FEB)
 185:Generated_Source\PSoC4/RTC.h **** #define RTC_MARCH      (RTC__MAR)
 186:Generated_Source\PSoC4/RTC.h **** #define RTC_APRIL      (RTC__APR)
 187:Generated_Source\PSoC4/RTC.h **** #define RTC_MAY        (RTC__MAY)
 188:Generated_Source\PSoC4/RTC.h **** #define RTC_JUNE       (RTC__JUN)
 189:Generated_Source\PSoC4/RTC.h **** #define RTC_JULY       (RTC__JUL)
 190:Generated_Source\PSoC4/RTC.h **** #define RTC_AUGUST     (RTC__AUG)
 191:Generated_Source\PSoC4/RTC.h **** #define RTC_SEPTEMBER  (RTC__SEP)
 192:Generated_Source\PSoC4/RTC.h **** #define RTC_OCTOBER    (RTC__OCT)
 193:Generated_Source\PSoC4/RTC.h **** #define RTC_NOVEMBER   (RTC__NOV)
 194:Generated_Source\PSoC4/RTC.h **** #define RTC_DECEMBER   (RTC__DEC)
 195:Generated_Source\PSoC4/RTC.h **** 
 196:Generated_Source\PSoC4/RTC.h **** #define RTC_DAYS_PER_WEEK       (7u)
 197:Generated_Source\PSoC4/RTC.h **** 
 198:Generated_Source\PSoC4/RTC.h **** /* Number of days in month definitions */
 199:Generated_Source\PSoC4/RTC.h **** #define RTC_DAYS_IN_JANUARY     (31u)
 200:Generated_Source\PSoC4/RTC.h **** #define RTC_DAYS_IN_FEBRUARY    (28u)
 201:Generated_Source\PSoC4/RTC.h **** #define RTC_DAYS_IN_MARCH       (31u)
 202:Generated_Source\PSoC4/RTC.h **** #define RTC_DAYS_IN_APRIL       (30u)
 203:Generated_Source\PSoC4/RTC.h **** #define RTC_DAYS_IN_MAY         (31u)
 204:Generated_Source\PSoC4/RTC.h **** #define RTC_DAYS_IN_JUNE        (30u)
 205:Generated_Source\PSoC4/RTC.h **** #define RTC_DAYS_IN_JULY        (31u)
 206:Generated_Source\PSoC4/RTC.h **** #define RTC_DAYS_IN_AUGUST      (31u)
ARM GAS  C:\Users\Kozak\AppData\Local\Temp\ccRtSGUf.s 			page 12


 207:Generated_Source\PSoC4/RTC.h **** #define RTC_DAYS_IN_SEPTEMBER   (30u)
 208:Generated_Source\PSoC4/RTC.h **** #define RTC_DAYS_IN_OCTOBER     (31u)
 209:Generated_Source\PSoC4/RTC.h **** #define RTC_DAYS_IN_NOVEMBER    (30u)
 210:Generated_Source\PSoC4/RTC.h **** #define RTC_DAYS_IN_DECEMBER    (31u)
 211:Generated_Source\PSoC4/RTC.h **** 
 212:Generated_Source\PSoC4/RTC.h **** #define RTC_MONTHS_PER_YEAR     (12uL)
 213:Generated_Source\PSoC4/RTC.h **** 
 214:Generated_Source\PSoC4/RTC.h **** #define RTC_HOURS_PER_DAY       (24uL)
 215:Generated_Source\PSoC4/RTC.h **** #define RTC_HOURS_PER_HALF_DAY  (12uL)
 216:Generated_Source\PSoC4/RTC.h **** 
 217:Generated_Source\PSoC4/RTC.h **** #define RTC_SECONDS_PER_MINUTE  (60uL)
 218:Generated_Source\PSoC4/RTC.h **** #define RTC_SECONDS_PER_HOUR    (3600uL)
 219:Generated_Source\PSoC4/RTC.h **** #define RTC_SECONDS_PER_DAY     (24uL * 3600uL)
 220:Generated_Source\PSoC4/RTC.h **** 
 221:Generated_Source\PSoC4/RTC.h **** #define RTC_SECONDS_PER_LEAP_YEAR    (366uL * 24uL * 3600uL)
 222:Generated_Source\PSoC4/RTC.h **** #define RTC_SECONDS_PER_NONLEAP_YEAR (365uL * 24uL * 3600uL)
 223:Generated_Source\PSoC4/RTC.h **** 
 224:Generated_Source\PSoC4/RTC.h **** #define RTC_UNIX_TIME_PM   ((12uL * 3600uL) + 1uL)
 225:Generated_Source\PSoC4/RTC.h **** 
 226:Generated_Source\PSoC4/RTC.h **** /* AM/PM status definitions */
 227:Generated_Source\PSoC4/RTC.h **** #define RTC_AM                 (0u)
 228:Generated_Source\PSoC4/RTC.h **** #define RTC_PM                 (1u)
 229:Generated_Source\PSoC4/RTC.h **** 
 230:Generated_Source\PSoC4/RTC.h **** /* Time format definitions */
 231:Generated_Source\PSoC4/RTC.h **** #define RTC_12_HOURS_FORMAT    (RTC__HOUR_12)
 232:Generated_Source\PSoC4/RTC.h **** #define RTC_24_HOURS_FORMAT    (RTC__HOUR_24)
 233:Generated_Source\PSoC4/RTC.h **** 
 234:Generated_Source\PSoC4/RTC.h **** /* UNIX time begins in 1970 year.  */
 235:Generated_Source\PSoC4/RTC.h **** #define RTC_YEAR_0             (1970u)
 236:Generated_Source\PSoC4/RTC.h **** 
 237:Generated_Source\PSoC4/RTC.h **** /* Definition of date register fields */
 238:Generated_Source\PSoC4/RTC.h **** #if(RTC_INITIAL_DATA_FORMAT == RTC__MM_DD_YYYY)
 239:Generated_Source\PSoC4/RTC.h ****     #define RTC_10_MONTH_OFFSET   (28u)
 240:Generated_Source\PSoC4/RTC.h ****     #define RTC_MONTH_OFFSET      (24u)
 241:Generated_Source\PSoC4/RTC.h ****     #define RTC_10_DAY_OFFSET     (20u)
 242:Generated_Source\PSoC4/RTC.h ****     #define RTC_DAY_OFFSET        (16u)
 243:Generated_Source\PSoC4/RTC.h ****     #define RTC_1000_YEAR_OFFSET  (12u)
 244:Generated_Source\PSoC4/RTC.h ****     #define RTC_100_YEAR_OFFSET   (8u)
 245:Generated_Source\PSoC4/RTC.h ****     #define RTC_10_YEAR_OFFSET    (4u)
 246:Generated_Source\PSoC4/RTC.h ****     #define RTC_YEAR_OFFSET       (0u)
 247:Generated_Source\PSoC4/RTC.h **** #elif(RTC_INITIAL_DATA_FORMAT == RTC__DD_MM_YYYY)
 248:Generated_Source\PSoC4/RTC.h ****     #define RTC_10_MONTH_OFFSET   (20u)
 249:Generated_Source\PSoC4/RTC.h ****     #define RTC_MONTH_OFFSET      (16u)
 250:Generated_Source\PSoC4/RTC.h ****     #define RTC_10_DAY_OFFSET     (28u)
 251:Generated_Source\PSoC4/RTC.h ****     #define RTC_DAY_OFFSET        (24u)
 252:Generated_Source\PSoC4/RTC.h ****     #define RTC_1000_YEAR_OFFSET  (12u)
 253:Generated_Source\PSoC4/RTC.h ****     #define RTC_100_YEAR_OFFSET   (8u)
 254:Generated_Source\PSoC4/RTC.h ****     #define RTC_10_YEAR_OFFSET    (4u)
 255:Generated_Source\PSoC4/RTC.h ****     #define RTC_YEAR_OFFSET       (0u)
 256:Generated_Source\PSoC4/RTC.h **** #else
 257:Generated_Source\PSoC4/RTC.h ****     #define RTC_10_MONTH_OFFSET   (12u)
 258:Generated_Source\PSoC4/RTC.h ****     #define RTC_MONTH_OFFSET      (8u)
 259:Generated_Source\PSoC4/RTC.h ****     #define RTC_10_DAY_OFFSET     (4u)
 260:Generated_Source\PSoC4/RTC.h ****     #define RTC_DAY_OFFSET        (0u)
 261:Generated_Source\PSoC4/RTC.h ****     #define RTC_1000_YEAR_OFFSET  (28u)
 262:Generated_Source\PSoC4/RTC.h ****     #define RTC_100_YEAR_OFFSET   (24u)
 263:Generated_Source\PSoC4/RTC.h ****     #define RTC_10_YEAR_OFFSET    (20u)
ARM GAS  C:\Users\Kozak\AppData\Local\Temp\ccRtSGUf.s 			page 13


 264:Generated_Source\PSoC4/RTC.h ****     #define RTC_YEAR_OFFSET       (16u)
 265:Generated_Source\PSoC4/RTC.h **** #endif /* (RTC_INITIAL_DATA_FORMAT == RTC__MM_DD_YYYY) */
 266:Generated_Source\PSoC4/RTC.h **** 
 267:Generated_Source\PSoC4/RTC.h **** #define RTC_10_MONTH_MASK          (0x00000001uL << RTC_10_MONTH_OFFSET)
 268:Generated_Source\PSoC4/RTC.h **** #define RTC_MONTH_MASK             (0x0000000FuL << RTC_MONTH_OFFSET)
 269:Generated_Source\PSoC4/RTC.h **** #define RTC_10_DAY_MASK            (0x00000003uL << RTC_10_DAY_OFFSET)
 270:Generated_Source\PSoC4/RTC.h **** #define RTC_DAY_MASK               (0x0000000FuL << RTC_DAY_OFFSET)
 271:Generated_Source\PSoC4/RTC.h **** #define RTC_1000_YEAR_MASK         (0x00000003uL << RTC_1000_YEAR_OFFSET)
 272:Generated_Source\PSoC4/RTC.h **** #define RTC_100_YEAR_MASK          (0x0000000FuL << RTC_100_YEAR_OFFSET)
 273:Generated_Source\PSoC4/RTC.h **** #define RTC_10_YEAR_MASK           (0x0000000FuL << RTC_10_YEAR_OFFSET)
 274:Generated_Source\PSoC4/RTC.h **** #define RTC_YEAR_MASK              (0x0000000FuL << RTC_YEAR_OFFSET)
 275:Generated_Source\PSoC4/RTC.h **** 
 276:Generated_Source\PSoC4/RTC.h **** #define  RTC_MONTH_FULL_MASK       (RTC_10_MONTH_MASK  | RTC_MONTH_MASK)
 277:Generated_Source\PSoC4/RTC.h **** #define  RTC_DAY_FULL_MASK         (RTC_10_DAY_MASK    | RTC_DAY_MASK)
 278:Generated_Source\PSoC4/RTC.h **** #define  RTC_YEAR_FULL_MASK        (RTC_1000_YEAR_MASK | RTC_100_YEAR_MASK |\
 279:Generated_Source\PSoC4/RTC.h ****                                                  RTC_10_YEAR_MASK   | RTC_YEAR_MASK)
 280:Generated_Source\PSoC4/RTC.h **** 
 281:Generated_Source\PSoC4/RTC.h **** 
 282:Generated_Source\PSoC4/RTC.h **** /* Definition of time register fields */
 283:Generated_Source\PSoC4/RTC.h **** #define RTC_TIME_FORMAT_OFFSET     (23u)
 284:Generated_Source\PSoC4/RTC.h **** #define RTC_PERIOD_OF_DAY_OFFSET   (22u)
 285:Generated_Source\PSoC4/RTC.h **** #define RTC_10_HOURS_OFFSET        (20u)
 286:Generated_Source\PSoC4/RTC.h **** #define RTC_HOURS_OFFSET           (16u)
 287:Generated_Source\PSoC4/RTC.h **** #define RTC_10_MINUTES_OFFSET      (12u)
 288:Generated_Source\PSoC4/RTC.h **** #define RTC_MINUTES_OFFSET         (8u)
 289:Generated_Source\PSoC4/RTC.h **** #define RTC_10_SECONDS_OFFSET      (4u)
 290:Generated_Source\PSoC4/RTC.h **** #define RTC_SECONDS_OFFSET         (0u)
 291:Generated_Source\PSoC4/RTC.h **** 
 292:Generated_Source\PSoC4/RTC.h **** #define RTC_TIME_FORMAT_MASK       (0x00000001uL << RTC_TIME_FORMAT_OFFSET)
 293:Generated_Source\PSoC4/RTC.h **** #define RTC_PERIOD_OF_DAY_MASK     (0x00000001uL << RTC_PERIOD_OF_DAY_OFFSET)
 294:Generated_Source\PSoC4/RTC.h **** #define RTC_10_HOURS_MASK          (0x00000003uL << RTC_10_HOURS_OFFSET)
 295:Generated_Source\PSoC4/RTC.h **** #define RTC_HOURS_MASK             (0x0000000FuL << RTC_HOURS_OFFSET)
 296:Generated_Source\PSoC4/RTC.h **** #define RTC_10_MINUTES_MASK        (0x00000007uL << RTC_10_MINUTES_OFFSET)
 297:Generated_Source\PSoC4/RTC.h **** #define RTC_MINUTES_MASK           (0x0000000FuL << RTC_MINUTES_OFFSET)
 298:Generated_Source\PSoC4/RTC.h **** #define RTC_10_SECONDS_MASK        (0x00000007uL << RTC_10_SECONDS_OFFSET)
 299:Generated_Source\PSoC4/RTC.h **** #define RTC_SECONDS_MASK           (0x0000000FuL << RTC_SECONDS_OFFSET)
 300:Generated_Source\PSoC4/RTC.h **** 
 301:Generated_Source\PSoC4/RTC.h **** #define RTC_HOURS_FULL_MASK        (RTC_10_HOURS_MASK   | RTC_HOURS_MASK)
 302:Generated_Source\PSoC4/RTC.h **** #define RTC_MINUTES_FULL_MASK      (RTC_10_MINUTES_MASK | RTC_MINUTES_MASK)
 303:Generated_Source\PSoC4/RTC.h **** #define RTC_SECONDS_FULL_MASK      (RTC_10_SECONDS_MASK | RTC_SECONDS_MASK)
 304:Generated_Source\PSoC4/RTC.h **** 
 305:Generated_Source\PSoC4/RTC.h **** #define RTC_ALARM_SEC_MASK         (0x00000001uL)
 306:Generated_Source\PSoC4/RTC.h **** #define RTC_ALARM_MIN_MASK         (0x00000002uL)
 307:Generated_Source\PSoC4/RTC.h **** #define RTC_ALARM_HOUR_MASK        (0x00000004uL)
 308:Generated_Source\PSoC4/RTC.h **** #define RTC_ALARM_DAYOFWEEK_MASK   (0x00000008uL)
 309:Generated_Source\PSoC4/RTC.h **** #define RTC_ALARM_DAYOFMONTH_MASK  (0x00000010uL)
 310:Generated_Source\PSoC4/RTC.h **** #define RTC_ALARM_MONTH_MASK       (0x00000020uL)
 311:Generated_Source\PSoC4/RTC.h **** #define RTC_ALARM_YEAR_MASK        (0x00000040uL)
 312:Generated_Source\PSoC4/RTC.h **** 
 313:Generated_Source\PSoC4/RTC.h **** #define RTC_STATUS_DST_OFFSET      (1u)
 314:Generated_Source\PSoC4/RTC.h **** #define RTC_STATUS_ALARM_OFFSET    (2u)
 315:Generated_Source\PSoC4/RTC.h **** #define RTC_STATUS_LY_OFFSET       (3u)
 316:Generated_Source\PSoC4/RTC.h **** #define RTC_STATUS_AM_PM_OFFSET    (4u)
 317:Generated_Source\PSoC4/RTC.h **** 
 318:Generated_Source\PSoC4/RTC.h **** /* Definition of the RTC status values. */
 319:Generated_Source\PSoC4/RTC.h **** #define RTC_STATUS_DST             (1uL << RTC_STATUS_DST_OFFSET)
 320:Generated_Source\PSoC4/RTC.h **** #define RTC_STATUS_LY              (1uL << RTC_STATUS_LY_OFFSET)
ARM GAS  C:\Users\Kozak\AppData\Local\Temp\ccRtSGUf.s 			page 14


 321:Generated_Source\PSoC4/RTC.h **** #define RTC_STATUS_AM_PM           (1uL << RTC_STATUS_AM_PM_OFFSET)
 322:Generated_Source\PSoC4/RTC.h **** 
 323:Generated_Source\PSoC4/RTC.h **** /* Number of bits per one BCD digit. */
 324:Generated_Source\PSoC4/RTC.h **** #define RTC_BCD_NUMBER_SIZE        (4u)
 325:Generated_Source\PSoC4/RTC.h **** #define RTC_BCD_ONE_DIGIT_MASK     (0x0000000FuL)
 326:Generated_Source\PSoC4/RTC.h **** 
 327:Generated_Source\PSoC4/RTC.h **** /*******************************************************************************
 328:Generated_Source\PSoC4/RTC.h **** *    Function Prototypes
 329:Generated_Source\PSoC4/RTC.h **** *******************************************************************************/
 330:Generated_Source\PSoC4/RTC.h **** /**
 331:Generated_Source\PSoC4/RTC.h **** * \addtogroup group_api
 332:Generated_Source\PSoC4/RTC.h **** * @{
 333:Generated_Source\PSoC4/RTC.h **** */
 334:Generated_Source\PSoC4/RTC.h **** void   RTC_Start(void);
 335:Generated_Source\PSoC4/RTC.h **** void   RTC_Stop(void);
 336:Generated_Source\PSoC4/RTC.h **** void   RTC_Init(void);
 337:Generated_Source\PSoC4/RTC.h **** void   RTC_SetUnixTime(uint64 unixTime);
 338:Generated_Source\PSoC4/RTC.h **** uint64 RTC_GetUnixTime(void);
 339:Generated_Source\PSoC4/RTC.h **** void   RTC_SetPeriod(uint32 ticks, uint32 refOneSecTicks);
 340:Generated_Source\PSoC4/RTC.h **** uint32 RTC_GetPeriod(void);
 341:Generated_Source\PSoC4/RTC.h **** uint32 RTC_GetRefOneSec(void);
 342:Generated_Source\PSoC4/RTC.h **** void   RTC_SetDateAndTime(uint32 inputTime, uint32 inputDate);
 343:Generated_Source\PSoC4/RTC.h **** void   RTC_GetDateAndTime(RTC_DATE_TIME* dateTime);
 344:Generated_Source\PSoC4/RTC.h **** uint32 RTC_GetTime(void);
 345:Generated_Source\PSoC4/RTC.h **** uint32 RTC_GetDate(void);
 346:Generated_Source\PSoC4/RTC.h **** void   RTC_SetAlarmDateAndTime(const RTC_DATE_TIME* alarmTime);
 347:Generated_Source\PSoC4/RTC.h **** void   RTC_GetAlarmDateAndTime(RTC_DATE_TIME* alarmTimeDate);
 348:Generated_Source\PSoC4/RTC.h **** void   RTC_SetAlarmMask(uint32 mask);
 349:Generated_Source\PSoC4/RTC.h **** uint32 RTC_GetAlarmMask(void);
 350:Generated_Source\PSoC4/RTC.h **** uint32 RTC_ReadStatus(void);
 351:Generated_Source\PSoC4/RTC.h **** uint32 RTC_GetAlarmStatus(void);
 352:Generated_Source\PSoC4/RTC.h **** void   RTC_ClearAlarmStatus(void);
 353:Generated_Source\PSoC4/RTC.h **** void   RTC_SetDSTStartTime(const RTC_DST_TIME* dstStartTime,
 354:Generated_Source\PSoC4/RTC.h ****                                               RTC_DST_DATETYPE_ENUM type);
 355:Generated_Source\PSoC4/RTC.h **** void   RTC_SetDSTStopTime(const RTC_DST_TIME* dstStopTime,
 356:Generated_Source\PSoC4/RTC.h ****                                              RTC_DST_DATETYPE_ENUM type);
 357:Generated_Source\PSoC4/RTC.h **** uint32 RTC_ConvertBCDToDec(uint32 bcdNum);
 358:Generated_Source\PSoC4/RTC.h **** uint32 RTC_ConvertDecToBCD(uint32 decNum);
 359:Generated_Source\PSoC4/RTC.h **** void   RTC_Update(void);
 360:Generated_Source\PSoC4/RTC.h **** void*  RTC_SetAlarmHandler(void (*CallbackFunction)(void));
 361:Generated_Source\PSoC4/RTC.h **** 
 362:Generated_Source\PSoC4/RTC.h **** static uint32 RTC_ConstructDate(uint32 month, uint32 day, uint32 year);
 363:Generated_Source\PSoC4/RTC.h **** static uint32 RTC_ConstructTime(uint32 timeFormat, uint32 stateAmPm, uint32 hour, uint32 min, uint3
 364:Generated_Source\PSoC4/RTC.h **** /** @} api */
 365:Generated_Source\PSoC4/RTC.h **** 
 366:Generated_Source\PSoC4/RTC.h **** static uint32 RTC_GetTimeFormat(uint32 inputTime);
 367:Generated_Source\PSoC4/RTC.h **** static uint32 RTC_SetTimeFormat(uint32 inputTime, uint32 timeFormat);
 368:Generated_Source\PSoC4/RTC.h **** 
 369:Generated_Source\PSoC4/RTC.h **** /**
 370:Generated_Source\PSoC4/RTC.h **** * \addtogroup group_api
 371:Generated_Source\PSoC4/RTC.h **** * @{
 372:Generated_Source\PSoC4/RTC.h **** */
 373:Generated_Source\PSoC4/RTC.h **** static uint32 RTC_LeapYear(uint32 year);
 374:Generated_Source\PSoC4/RTC.h **** static uint32 RTC_IsBitSet(uint32 var, uint32 mask);
 375:Generated_Source\PSoC4/RTC.h **** static uint32 RTC_GetSecond(uint32 inputTime);
 376:Generated_Source\PSoC4/RTC.h **** static uint32 RTC_GetMinutes(uint32 inputTime);
 377:Generated_Source\PSoC4/RTC.h **** static uint32 RTC_GetHours(uint32 inputTime);
ARM GAS  C:\Users\Kozak\AppData\Local\Temp\ccRtSGUf.s 			page 15


 378:Generated_Source\PSoC4/RTC.h **** static uint32 RTC_GetAmPm(uint32 inputTime);
 379:Generated_Source\PSoC4/RTC.h **** static uint32 RTC_GetDay(uint32 date);
 380:Generated_Source\PSoC4/RTC.h **** static uint32 RTC_GetMonth(uint32 date);
 381:Generated_Source\PSoC4/RTC.h **** static uint32 RTC_GetYear(uint32 date);
 382:Generated_Source\PSoC4/RTC.h **** /** @} api */
 383:Generated_Source\PSoC4/RTC.h **** 
 384:Generated_Source\PSoC4/RTC.h **** static uint32 RTC_SetSecond(uint32 inputTime, uint32 inputSecond);
 385:Generated_Source\PSoC4/RTC.h **** static uint32 RTC_SetMinutes(uint32 inputTime, uint32 inputMinute);
 386:Generated_Source\PSoC4/RTC.h **** static uint32 RTC_SetHours(uint32 inputTime, uint32 inputHours);
 387:Generated_Source\PSoC4/RTC.h **** static uint32 RTC_SetAmPm(uint32 inputTime, uint32 periodOfDay);
 388:Generated_Source\PSoC4/RTC.h **** static uint32 RTC_SetDay(uint32 inputDate, uint32 inputDay);
 389:Generated_Source\PSoC4/RTC.h **** static uint32 RTC_SetMonth(uint32 inputDate, uint32 inputMonth);
 390:Generated_Source\PSoC4/RTC.h **** static uint32 RTC_SetYear(uint32 inputDate, uint32 inputYear);
 391:Generated_Source\PSoC4/RTC.h **** 
 392:Generated_Source\PSoC4/RTC.h **** uint64 RTC_ConstructUnixAlarmTime(const RTC_DATE_TIME* alarmTime, uint8 alarmCfgMask);
 393:Generated_Source\PSoC4/RTC.h **** uint64 RTC_GetDstUnixTime(const RTC_DST_TIME* dstTime);
 394:Generated_Source\PSoC4/RTC.h **** uint64 RTC_GetNexAlarmTime(uint64 curUnixTime, uint8 alarmCfgMask);
 395:Generated_Source\PSoC4/RTC.h **** 
 396:Generated_Source\PSoC4/RTC.h **** static uint32 RTC_GetNextMinSec(uint32 curVal);
 397:Generated_Source\PSoC4/RTC.h **** static uint32 RTC_GetNextHour(uint32 curVal);
 398:Generated_Source\PSoC4/RTC.h **** static uint32 RTC_GetNextDay(uint32 curYear, uint32 curMonth, uint32 curDay, uint32 alarmCfgMask);
 399:Generated_Source\PSoC4/RTC.h **** static uint32 RTC_GetNextMonth(uint32 curMonth);
 400:Generated_Source\PSoC4/RTC.h **** static uint32 RTC_GetNextYear(uint32 curYear);
 401:Generated_Source\PSoC4/RTC.h **** static uint32 RTC_GetDayOfWeek(uint32 day, uint32 month, uint32 year);
 402:Generated_Source\PSoC4/RTC.h **** 
 403:Generated_Source\PSoC4/RTC.h **** uint32 RTC_DaysInMonth(uint32 month, uint32 year);
 404:Generated_Source\PSoC4/RTC.h **** uint32 RTC_DaysBeforeMonth(uint32 month, uint32 year);
 405:Generated_Source\PSoC4/RTC.h **** 
 406:Generated_Source\PSoC4/RTC.h **** /**
 407:Generated_Source\PSoC4/RTC.h **** * \addtogroup group_api
 408:Generated_Source\PSoC4/RTC.h **** * @{
 409:Generated_Source\PSoC4/RTC.h **** */
 410:Generated_Source\PSoC4/RTC.h **** void   RTC_UnixToDateTime(RTC_DATE_TIME* dateTime, uint64 unixTime, uint32 timeFormat);
 411:Generated_Source\PSoC4/RTC.h **** uint64 RTC_DateTimeToUnix(uint32 inputDate, uint32 inputTime);
 412:Generated_Source\PSoC4/RTC.h **** /** @} api */
 413:Generated_Source\PSoC4/RTC.h **** 
 414:Generated_Source\PSoC4/RTC.h **** uint32 RTC_RelativeToFixed(uint32 dayOfWeek, uint32 weekOfMonth, uint32 month, uint32 year);
 415:Generated_Source\PSoC4/RTC.h **** 
 416:Generated_Source\PSoC4/RTC.h **** 
 417:Generated_Source\PSoC4/RTC.h **** #if defined(CYDEV_RTC_SOURCE_WDT)
 418:Generated_Source\PSoC4/RTC.h ****     #if((0u != CYDEV_WDT_GENERATE_ISR) && (0u == RTC_INITIAL_UPDATE_MODE))
 419:Generated_Source\PSoC4/RTC.h ****         static void RTC_CySysRtcSetCallback(uint32 wdtNumber);
 420:Generated_Source\PSoC4/RTC.h ****         static void RTC_CySysRtcResetCallback(uint32 wdtNumber);
 421:Generated_Source\PSoC4/RTC.h ****     #endif /* ((0u != CYDEV_WDT_GENERATE_ISR) && (0u == RTC_INITIAL_UPDATE_MODE)) */
 422:Generated_Source\PSoC4/RTC.h **** #endif /* (CYDEV_RTC_SOURCE_WDT) */
 423:Generated_Source\PSoC4/RTC.h **** 
 424:Generated_Source\PSoC4/RTC.h **** /*******************************************************************************
 425:Generated_Source\PSoC4/RTC.h **** * Function Name: RTC_IsBitSet
 426:Generated_Source\PSoC4/RTC.h **** ****************************************************************************//**
 427:Generated_Source\PSoC4/RTC.h **** *
 428:Generated_Source\PSoC4/RTC.h **** * \brief
 429:Generated_Source\PSoC4/RTC.h **** *  Checks the state of a bit passed through parameter.
 430:Generated_Source\PSoC4/RTC.h **** *
 431:Generated_Source\PSoC4/RTC.h **** * \param
 432:Generated_Source\PSoC4/RTC.h **** *  var The variable to be checked.
 433:Generated_Source\PSoC4/RTC.h **** * \param
 434:Generated_Source\PSoC4/RTC.h **** *  mask The mask for a bit to be checked.
ARM GAS  C:\Users\Kozak\AppData\Local\Temp\ccRtSGUf.s 			page 16


 435:Generated_Source\PSoC4/RTC.h **** *
 436:Generated_Source\PSoC4/RTC.h **** * \return
 437:Generated_Source\PSoC4/RTC.h **** *  0u - Bit is not set.
 438:Generated_Source\PSoC4/RTC.h **** * \return
 439:Generated_Source\PSoC4/RTC.h **** *  1u - Bit is set.
 440:Generated_Source\PSoC4/RTC.h **** *
 441:Generated_Source\PSoC4/RTC.h **** *******************************************************************************/
 442:Generated_Source\PSoC4/RTC.h **** static CY_INLINE uint32 RTC_IsBitSet(uint32 var, uint32 mask)
 443:Generated_Source\PSoC4/RTC.h **** {
 444:Generated_Source\PSoC4/RTC.h ****     return ((mask == (var & mask)) ? 1Lu : 0Lu);
 445:Generated_Source\PSoC4/RTC.h **** }
 446:Generated_Source\PSoC4/RTC.h **** 
 447:Generated_Source\PSoC4/RTC.h **** 
 448:Generated_Source\PSoC4/RTC.h **** /*******************************************************************************
 449:Generated_Source\PSoC4/RTC.h **** * Function Name: RTC_LeapYear
 450:Generated_Source\PSoC4/RTC.h **** ****************************************************************************//**
 451:Generated_Source\PSoC4/RTC.h **** *
 452:Generated_Source\PSoC4/RTC.h **** * \brief
 453:Generated_Source\PSoC4/RTC.h **** * Checks whether the year passed through the parameter is
 454:Generated_Source\PSoC4/RTC.h **** * leap or no.
 455:Generated_Source\PSoC4/RTC.h **** *
 456:Generated_Source\PSoC4/RTC.h **** * \param
 457:Generated_Source\PSoC4/RTC.h **** *  year The year to be checked.
 458:Generated_Source\PSoC4/RTC.h **** *
 459:Generated_Source\PSoC4/RTC.h **** *
 460:Generated_Source\PSoC4/RTC.h **** * \return
 461:Generated_Source\PSoC4/RTC.h **** *  0u - The year is not leap.
 462:Generated_Source\PSoC4/RTC.h **** * \return
 463:Generated_Source\PSoC4/RTC.h **** *  1u - The year is leap.
 464:Generated_Source\PSoC4/RTC.h **** *
 465:Generated_Source\PSoC4/RTC.h **** *******************************************************************************/
 466:Generated_Source\PSoC4/RTC.h **** static CY_INLINE uint32 RTC_LeapYear(uint32 year)
 467:Generated_Source\PSoC4/RTC.h **** {
 468:Generated_Source\PSoC4/RTC.h ****     uint32 retVal;
 469:Generated_Source\PSoC4/RTC.h **** 
 470:Generated_Source\PSoC4/RTC.h ****     if(((0u == (year % 4Lu)) && (0u != (year % 100Lu))) || (0u == (year % 400Lu)))
 471:Generated_Source\PSoC4/RTC.h ****     {
 472:Generated_Source\PSoC4/RTC.h ****         retVal = 1uL;
 473:Generated_Source\PSoC4/RTC.h ****     }
 474:Generated_Source\PSoC4/RTC.h ****     else
 475:Generated_Source\PSoC4/RTC.h ****     {
 476:Generated_Source\PSoC4/RTC.h ****         retVal = 0uL;
 477:Generated_Source\PSoC4/RTC.h ****     }
 478:Generated_Source\PSoC4/RTC.h **** 
 479:Generated_Source\PSoC4/RTC.h ****     return(retVal);
 480:Generated_Source\PSoC4/RTC.h **** }
 481:Generated_Source\PSoC4/RTC.h **** 
 482:Generated_Source\PSoC4/RTC.h **** 
 483:Generated_Source\PSoC4/RTC.h **** /*******************************************************************************
 484:Generated_Source\PSoC4/RTC.h **** * Function Name: RTC_GetSecond
 485:Generated_Source\PSoC4/RTC.h **** ****************************************************************************//**
 486:Generated_Source\PSoC4/RTC.h **** *
 487:Generated_Source\PSoC4/RTC.h **** * \brief
 488:Generated_Source\PSoC4/RTC.h **** *  Returns the seconds value from the time value that is passed as a/the parameter.
 489:Generated_Source\PSoC4/RTC.h **** *
 490:Generated_Source\PSoC4/RTC.h **** * \param
 491:Generated_Source\PSoC4/RTC.h **** *  time The time value.
ARM GAS  C:\Users\Kozak\AppData\Local\Temp\ccRtSGUf.s 			page 17


 492:Generated_Source\PSoC4/RTC.h **** *
 493:Generated_Source\PSoC4/RTC.h **** * \return
 494:Generated_Source\PSoC4/RTC.h **** *  The seconds value.
 495:Generated_Source\PSoC4/RTC.h **** *
 496:Generated_Source\PSoC4/RTC.h **** *******************************************************************************/
 497:Generated_Source\PSoC4/RTC.h **** static CY_INLINE uint32 RTC_GetSecond(uint32 inputTime)
 498:Generated_Source\PSoC4/RTC.h **** {
 499:Generated_Source\PSoC4/RTC.h ****     uint32 retVal;
 500:Generated_Source\PSoC4/RTC.h **** 
 501:Generated_Source\PSoC4/RTC.h ****     retVal  = ((inputTime & RTC_10_SECONDS_MASK) >> RTC_10_SECONDS_OFFSET) * 10u;
 502:Generated_Source\PSoC4/RTC.h ****     retVal += (inputTime & RTC_SECONDS_MASK) >> RTC_SECONDS_OFFSET;
 503:Generated_Source\PSoC4/RTC.h **** 
 504:Generated_Source\PSoC4/RTC.h ****     return (retVal);
 505:Generated_Source\PSoC4/RTC.h **** }
 506:Generated_Source\PSoC4/RTC.h **** 
 507:Generated_Source\PSoC4/RTC.h **** 
 508:Generated_Source\PSoC4/RTC.h **** /*******************************************************************************
 509:Generated_Source\PSoC4/RTC.h **** * Function Name: RTC_GetMinutes
 510:Generated_Source\PSoC4/RTC.h **** ****************************************************************************//**
 511:Generated_Source\PSoC4/RTC.h **** *
 512:Generated_Source\PSoC4/RTC.h **** * \brief
 513:Generated_Source\PSoC4/RTC.h **** *  Returns the minutes value from the time value that is passed as a/the 
 514:Generated_Source\PSoC4/RTC.h **** * parameter.
 515:Generated_Source\PSoC4/RTC.h **** *
 516:Generated_Source\PSoC4/RTC.h **** * \param
 517:Generated_Source\PSoC4/RTC.h **** *  time The time value.
 518:Generated_Source\PSoC4/RTC.h **** *
 519:Generated_Source\PSoC4/RTC.h **** * \return
 520:Generated_Source\PSoC4/RTC.h **** *  The minutes value.
 521:Generated_Source\PSoC4/RTC.h **** *
 522:Generated_Source\PSoC4/RTC.h **** *******************************************************************************/
 523:Generated_Source\PSoC4/RTC.h **** static CY_INLINE uint32 RTC_GetMinutes(uint32 inputTime)
 524:Generated_Source\PSoC4/RTC.h **** {
 525:Generated_Source\PSoC4/RTC.h ****     uint32 retVal;
 526:Generated_Source\PSoC4/RTC.h **** 
 527:Generated_Source\PSoC4/RTC.h ****     retVal  = ((inputTime & RTC_10_MINUTES_MASK) >> RTC_10_MINUTES_OFFSET) * 10u;
 528:Generated_Source\PSoC4/RTC.h ****     retVal += (inputTime & RTC_MINUTES_MASK) >> RTC_MINUTES_OFFSET;
 529:Generated_Source\PSoC4/RTC.h **** 
 530:Generated_Source\PSoC4/RTC.h ****     return (retVal);
 531:Generated_Source\PSoC4/RTC.h **** }
 532:Generated_Source\PSoC4/RTC.h **** 
 533:Generated_Source\PSoC4/RTC.h **** 
 534:Generated_Source\PSoC4/RTC.h **** /*******************************************************************************
 535:Generated_Source\PSoC4/RTC.h **** * Function Name: RTC_GetHours
 536:Generated_Source\PSoC4/RTC.h **** ****************************************************************************//**
 537:Generated_Source\PSoC4/RTC.h **** *
 538:Generated_Source\PSoC4/RTC.h **** * \brief
 539:Generated_Source\PSoC4/RTC.h **** *  Returns the hours value from the time value that is passed as a/the parameter.
 540:Generated_Source\PSoC4/RTC.h **** *
 541:Generated_Source\PSoC4/RTC.h **** * \param
 542:Generated_Source\PSoC4/RTC.h **** *  time The time value.
 543:Generated_Source\PSoC4/RTC.h **** *
 544:Generated_Source\PSoC4/RTC.h **** * \return
 545:Generated_Source\PSoC4/RTC.h **** *  The hours value.
 546:Generated_Source\PSoC4/RTC.h **** *
 547:Generated_Source\PSoC4/RTC.h **** *******************************************************************************/
 548:Generated_Source\PSoC4/RTC.h **** static CY_INLINE uint32 RTC_GetHours(uint32 inputTime)
ARM GAS  C:\Users\Kozak\AppData\Local\Temp\ccRtSGUf.s 			page 18


 549:Generated_Source\PSoC4/RTC.h **** {
 550:Generated_Source\PSoC4/RTC.h ****     uint32 retVal;
 551:Generated_Source\PSoC4/RTC.h **** 
 552:Generated_Source\PSoC4/RTC.h ****     retVal  = ((inputTime & RTC_10_HOURS_MASK) >> RTC_10_HOURS_OFFSET) * 10u;
 255              		.loc 2 552 0
 256 0020 2B0D     		lsrs	r3, r5, #20
 257 0022 0322     		movs	r2, #3
 258 0024 9046     		mov	r8, r2
 259 0026 1340     		ands	r3, r2
 260 0028 9A00     		lsls	r2, r3, #2
 261 002a D318     		adds	r3, r2, r3
 262 002c 5900     		lsls	r1, r3, #1
 263              	.LVL29:
 553:Generated_Source\PSoC4/RTC.h ****     retVal += (inputTime & RTC_HOURS_MASK) >> RTC_HOURS_OFFSET;
 264              		.loc 2 553 0
 265 002e 2A0C     		lsrs	r2, r5, #16
 266 0030 0F27     		movs	r7, #15
 267 0032 3A40     		ands	r2, r7
 268 0034 8A18     		adds	r2, r1, r2
 269              	.LVL30:
 270              	.LBE16:
 271              	.LBE15:
 272              	.LBB17:
 273              	.LBB18:
 527:Generated_Source\PSoC4/RTC.h ****     retVal += (inputTime & RTC_MINUTES_MASK) >> RTC_MINUTES_OFFSET;
 274              		.loc 2 527 0
 275 0036 280B     		lsrs	r0, r5, #12
 276              	.LVL31:
 277 0038 0726     		movs	r6, #7
 278 003a 3040     		ands	r0, r6
 279 003c 8300     		lsls	r3, r0, #2
 280 003e 1818     		adds	r0, r3, r0
 281 0040 4100     		lsls	r1, r0, #1
 282              	.LVL32:
 528:Generated_Source\PSoC4/RTC.h **** 
 283              		.loc 2 528 0
 284 0042 2B0A     		lsrs	r3, r5, #8
 285 0044 3B40     		ands	r3, r7
 286 0046 CB18     		adds	r3, r1, r3
 287              	.LVL33:
 288              	.LBE18:
 289              	.LBE17:
 290              	.LBB19:
 291              	.LBB20:
 501:Generated_Source\PSoC4/RTC.h ****     retVal += (inputTime & RTC_SECONDS_MASK) >> RTC_SECONDS_OFFSET;
 292              		.loc 2 501 0
 293 0048 2909     		lsrs	r1, r5, #4
 294 004a 3140     		ands	r1, r6
 295 004c 8800     		lsls	r0, r1, #2
 296 004e 4118     		adds	r1, r0, r1
 297 0050 4800     		lsls	r0, r1, #1
 298              	.LVL34:
 502:Generated_Source\PSoC4/RTC.h **** 
 299              		.loc 2 502 0
 300 0052 3D40     		ands	r5, r7
 301              	.LVL35:
 302 0054 4519     		adds	r5, r0, r5
ARM GAS  C:\Users\Kozak\AppData\Local\Temp\ccRtSGUf.s 			page 19


 303              	.LVL36:
 304              	.LBE20:
 305              	.LBE19:
  57:lcd_bipboy.c  ****         RTC_GetMinutes(time), RTC_GetSecond(time));
 306              		.loc 1 57 0
 307 0056 294E     		ldr	r6, .L19
 308 0058 0095     		str	r5, [sp]
 309 005a 2949     		ldr	r1, .L19+4
 310 005c 3000     		movs	r0, r6
 311 005e FFF7FEFF 		bl	sprintf
 312              	.LVL37:
 313              	.LBB21:
 314              	.LBB22:
 554:Generated_Source\PSoC4/RTC.h **** 
 555:Generated_Source\PSoC4/RTC.h ****     return (retVal);
 556:Generated_Source\PSoC4/RTC.h **** }
 557:Generated_Source\PSoC4/RTC.h **** 
 558:Generated_Source\PSoC4/RTC.h **** 
 559:Generated_Source\PSoC4/RTC.h **** /*******************************************************************************
 560:Generated_Source\PSoC4/RTC.h **** * Function Name: RTC_GetAmPm
 561:Generated_Source\PSoC4/RTC.h **** ****************************************************************************//**
 562:Generated_Source\PSoC4/RTC.h **** *
 563:Generated_Source\PSoC4/RTC.h **** * \brief
 564:Generated_Source\PSoC4/RTC.h **** *  Returns the AM/PM status from the time value that is passed as parameter.
 565:Generated_Source\PSoC4/RTC.h **** *
 566:Generated_Source\PSoC4/RTC.h **** * \param
 567:Generated_Source\PSoC4/RTC.h **** *  time The time value.
 568:Generated_Source\PSoC4/RTC.h **** *
 569:Generated_Source\PSoC4/RTC.h **** * \return
 570:Generated_Source\PSoC4/RTC.h **** *  RTC_AM - AM.
 571:Generated_Source\PSoC4/RTC.h **** * \return
 572:Generated_Source\PSoC4/RTC.h **** *  RTC_PM - PM.
 573:Generated_Source\PSoC4/RTC.h **** *
 574:Generated_Source\PSoC4/RTC.h **** *******************************************************************************/
 575:Generated_Source\PSoC4/RTC.h **** static CY_INLINE uint32 RTC_GetAmPm(uint32 inputTime)
 576:Generated_Source\PSoC4/RTC.h **** {
 577:Generated_Source\PSoC4/RTC.h ****     return (RTC_IsBitSet(inputTime, RTC_PERIOD_OF_DAY_MASK));
 578:Generated_Source\PSoC4/RTC.h **** }
 579:Generated_Source\PSoC4/RTC.h **** 
 580:Generated_Source\PSoC4/RTC.h **** 
 581:Generated_Source\PSoC4/RTC.h **** /*******************************************************************************
 582:Generated_Source\PSoC4/RTC.h **** * Function Name: RTC_GetDay
 583:Generated_Source\PSoC4/RTC.h **** ****************************************************************************//**
 584:Generated_Source\PSoC4/RTC.h **** *
 585:Generated_Source\PSoC4/RTC.h **** * \brief
 586:Generated_Source\PSoC4/RTC.h **** *  Returns the day value from the date value that is passed as parameter.
 587:Generated_Source\PSoC4/RTC.h **** *
 588:Generated_Source\PSoC4/RTC.h **** * \param
 589:Generated_Source\PSoC4/RTC.h **** *  date The date value.
 590:Generated_Source\PSoC4/RTC.h **** *
 591:Generated_Source\PSoC4/RTC.h **** * \return
 592:Generated_Source\PSoC4/RTC.h **** *  The day value.
 593:Generated_Source\PSoC4/RTC.h **** *
 594:Generated_Source\PSoC4/RTC.h **** *******************************************************************************/
 595:Generated_Source\PSoC4/RTC.h **** static CY_INLINE uint32 RTC_GetDay(uint32 date)
 596:Generated_Source\PSoC4/RTC.h **** {
 597:Generated_Source\PSoC4/RTC.h ****     uint32 retVal;
ARM GAS  C:\Users\Kozak\AppData\Local\Temp\ccRtSGUf.s 			page 20


 598:Generated_Source\PSoC4/RTC.h **** 
 599:Generated_Source\PSoC4/RTC.h ****     retVal  = ((date & RTC_10_DAY_MASK) >> RTC_10_DAY_OFFSET) * 10u;
 315              		.loc 2 599 0
 316 0062 230D     		lsrs	r3, r4, #20
 317 0064 4246     		mov	r2, r8
 318 0066 1340     		ands	r3, r2
 319 0068 9A00     		lsls	r2, r3, #2
 320 006a D318     		adds	r3, r2, r3
 321 006c 5900     		lsls	r1, r3, #1
 322              	.LVL38:
 600:Generated_Source\PSoC4/RTC.h ****     retVal += (date & RTC_DAY_MASK) >> RTC_DAY_OFFSET;
 323              		.loc 2 600 0
 324 006e 220C     		lsrs	r2, r4, #16
 325 0070 3A40     		ands	r2, r7
 326 0072 8A18     		adds	r2, r1, r2
 327              	.LVL39:
 328              	.LBE22:
 329              	.LBE21:
 330              	.LBB23:
 331              	.LBB24:
 601:Generated_Source\PSoC4/RTC.h **** 
 602:Generated_Source\PSoC4/RTC.h ****     return (retVal);
 603:Generated_Source\PSoC4/RTC.h **** }
 604:Generated_Source\PSoC4/RTC.h **** 
 605:Generated_Source\PSoC4/RTC.h **** 
 606:Generated_Source\PSoC4/RTC.h **** /*******************************************************************************
 607:Generated_Source\PSoC4/RTC.h **** * Function Name: RTC_GetMonth
 608:Generated_Source\PSoC4/RTC.h **** ****************************************************************************//**
 609:Generated_Source\PSoC4/RTC.h **** *
 610:Generated_Source\PSoC4/RTC.h **** * \brief
 611:Generated_Source\PSoC4/RTC.h **** *  Returns the month value from the date value that is passed as parameter.
 612:Generated_Source\PSoC4/RTC.h **** *
 613:Generated_Source\PSoC4/RTC.h **** * \param
 614:Generated_Source\PSoC4/RTC.h **** *  date The date value.
 615:Generated_Source\PSoC4/RTC.h **** *
 616:Generated_Source\PSoC4/RTC.h **** * \return
 617:Generated_Source\PSoC4/RTC.h **** *  The month value.
 618:Generated_Source\PSoC4/RTC.h **** *
 619:Generated_Source\PSoC4/RTC.h **** *******************************************************************************/
 620:Generated_Source\PSoC4/RTC.h **** static CY_INLINE uint32 RTC_GetMonth(uint32 date)
 621:Generated_Source\PSoC4/RTC.h **** {
 622:Generated_Source\PSoC4/RTC.h ****     uint32 retVal;
 623:Generated_Source\PSoC4/RTC.h **** 
 624:Generated_Source\PSoC4/RTC.h ****     retVal  = ((date & RTC_10_MONTH_MASK) >> RTC_10_MONTH_OFFSET) * 10u;
 332              		.loc 2 624 0
 333 0074 230F     		lsrs	r3, r4, #28
 334 0076 0121     		movs	r1, #1
 335 0078 1940     		ands	r1, r3
 336 007a 8B00     		lsls	r3, r1, #2
 337 007c 5918     		adds	r1, r3, r1
 338 007e 4800     		lsls	r0, r1, #1
 339              	.LVL40:
 625:Generated_Source\PSoC4/RTC.h ****     retVal += (date & RTC_MONTH_MASK) >> RTC_MONTH_OFFSET;
 340              		.loc 2 625 0
 341 0080 230E     		lsrs	r3, r4, #24
 342 0082 3B40     		ands	r3, r7
 343 0084 C318     		adds	r3, r0, r3
ARM GAS  C:\Users\Kozak\AppData\Local\Temp\ccRtSGUf.s 			page 21


 344              	.LVL41:
 345              	.LBE24:
 346              	.LBE23:
 347              	.LBB25:
 348              	.LBB26:
 626:Generated_Source\PSoC4/RTC.h **** 
 627:Generated_Source\PSoC4/RTC.h ****     return (retVal);
 628:Generated_Source\PSoC4/RTC.h **** }
 629:Generated_Source\PSoC4/RTC.h **** 
 630:Generated_Source\PSoC4/RTC.h **** 
 631:Generated_Source\PSoC4/RTC.h **** /*******************************************************************************
 632:Generated_Source\PSoC4/RTC.h **** * Function Name: RTC_GetYear
 633:Generated_Source\PSoC4/RTC.h **** ****************************************************************************//**
 634:Generated_Source\PSoC4/RTC.h **** *
 635:Generated_Source\PSoC4/RTC.h **** * \brief
 636:Generated_Source\PSoC4/RTC.h **** *  Returns the year value from the date value that is passed as parameter.
 637:Generated_Source\PSoC4/RTC.h **** *
 638:Generated_Source\PSoC4/RTC.h **** * \param
 639:Generated_Source\PSoC4/RTC.h **** *  date The date value.
 640:Generated_Source\PSoC4/RTC.h **** *
 641:Generated_Source\PSoC4/RTC.h **** * \return
 642:Generated_Source\PSoC4/RTC.h **** *  The year value.
 643:Generated_Source\PSoC4/RTC.h **** *
 644:Generated_Source\PSoC4/RTC.h **** *******************************************************************************/
 645:Generated_Source\PSoC4/RTC.h **** static CY_INLINE uint32 RTC_GetYear(uint32 date)
 646:Generated_Source\PSoC4/RTC.h **** {
 647:Generated_Source\PSoC4/RTC.h ****     uint32 retVal;
 648:Generated_Source\PSoC4/RTC.h **** 
 649:Generated_Source\PSoC4/RTC.h ****     retVal  = ((date & RTC_1000_YEAR_MASK) >> RTC_1000_YEAR_OFFSET) * 1000u;
 349              		.loc 2 649 0
 350 0086 200B     		lsrs	r0, r4, #12
 351 0088 4146     		mov	r1, r8
 352 008a 0840     		ands	r0, r1
 353 008c FA25     		movs	r5, #250
 354 008e AD00     		lsls	r5, r5, #2
 355 0090 2900     		movs	r1, r5
 356 0092 4143     		muls	r1, r0
 357              	.LVL42:
 650:Generated_Source\PSoC4/RTC.h ****     retVal += ((date & RTC_100_YEAR_MASK) >> RTC_100_YEAR_OFFSET) * 100u;
 358              		.loc 2 650 0
 359 0094 200A     		lsrs	r0, r4, #8
 360 0096 3840     		ands	r0, r7
 361 0098 6425     		movs	r5, #100
 362 009a 6843     		muls	r0, r5
 363 009c 4018     		adds	r0, r0, r1
 364              	.LVL43:
 651:Generated_Source\PSoC4/RTC.h ****     retVal += ((date & RTC_10_YEAR_MASK) >> RTC_10_YEAR_OFFSET) * 10u;
 365              		.loc 2 651 0
 366 009e 2109     		lsrs	r1, r4, #4
 367 00a0 3940     		ands	r1, r7
 368 00a2 8D00     		lsls	r5, r1, #2
 369 00a4 6918     		adds	r1, r5, r1
 370 00a6 4D00     		lsls	r5, r1, #1
 371 00a8 4019     		adds	r0, r0, r5
 372              	.LVL44:
 652:Generated_Source\PSoC4/RTC.h ****     retVal += (date & RTC_YEAR_MASK) >> RTC_YEAR_OFFSET;
 373              		.loc 2 652 0
ARM GAS  C:\Users\Kozak\AppData\Local\Temp\ccRtSGUf.s 			page 22


 374 00aa 3C40     		ands	r4, r7
 375              	.LVL45:
 376 00ac 0419     		adds	r4, r0, r4
 377              	.LVL46:
 378              	.LBE26:
 379              	.LBE25:
  59:lcd_bipboy.c  ****         RTC_GetMonth(date), RTC_GetYear(date));
 380              		.loc 1 59 0
 381 00ae 154D     		ldr	r5, .L19+8
 382 00b0 0094     		str	r4, [sp]
 383 00b2 1549     		ldr	r1, .L19+12
 384 00b4 2800     		movs	r0, r5
 385 00b6 FFF7FEFF 		bl	sprintf
 386              	.LVL47:
  62:lcd_bipboy.c  ****     LCD_PrintString(timeBuffer);
 387              		.loc 1 62 0
 388 00ba 0021     		movs	r1, #0
 389 00bc 0020     		movs	r0, #0
 390 00be FFF7FEFF 		bl	LCD_Position
 391              	.LVL48:
  63:lcd_bipboy.c  ****     LCD_Position(0, 11);
 392              		.loc 1 63 0
 393 00c2 3000     		movs	r0, r6
 394 00c4 FFF7FEFF 		bl	LCD_PrintString
 395              	.LVL49:
  64:lcd_bipboy.c  ****     LCD_PrintString("100%");
 396              		.loc 1 64 0
 397 00c8 0B21     		movs	r1, #11
 398 00ca 0020     		movs	r0, #0
 399 00cc FFF7FEFF 		bl	LCD_Position
 400              	.LVL50:
  65:lcd_bipboy.c  ****     LCD_Position(0, 15);
 401              		.loc 1 65 0
 402 00d0 0E48     		ldr	r0, .L19+16
 403 00d2 FFF7FEFF 		bl	LCD_PrintString
 404              	.LVL51:
  66:lcd_bipboy.c  ****     LCD_PutChar(LCD_CUSTOM_1);
 405              		.loc 1 66 0
 406 00d6 0F21     		movs	r1, #15
 407 00d8 0020     		movs	r0, #0
 408 00da FFF7FEFF 		bl	LCD_Position
 409              	.LVL52:
  67:lcd_bipboy.c  ****     LCD_Position(1, 0);
 410              		.loc 1 67 0
 411 00de 0120     		movs	r0, #1
 412 00e0 FFF7FEFF 		bl	LCD_PutChar
 413              	.LVL53:
  68:lcd_bipboy.c  ****     LCD_PrintString(dateBuffer);
 414              		.loc 1 68 0
 415 00e4 0021     		movs	r1, #0
 416 00e6 0120     		movs	r0, #1
 417 00e8 FFF7FEFF 		bl	LCD_Position
 418              	.LVL54:
  69:lcd_bipboy.c  **** }
 419              		.loc 1 69 0
 420 00ec 2800     		movs	r0, r5
 421 00ee FFF7FEFF 		bl	LCD_PrintString
ARM GAS  C:\Users\Kozak\AppData\Local\Temp\ccRtSGUf.s 			page 23


 422              	.LVL55:
  70:lcd_bipboy.c  **** 
 423              		.loc 1 70 0
 424 00f2 02B0     		add	sp, sp, #8
 425              		@ sp needed
 426 00f4 04BC     		pop	{r2}
 427 00f6 9046     		mov	r8, r2
 428 00f8 F0BD     		pop	{r4, r5, r6, r7, pc}
 429              	.L20:
 430 00fa C046     		.align	2
 431              	.L19:
 432 00fc 00000000 		.word	timeBuffer
 433 0100 10000000 		.word	.LC6
 434 0104 00000000 		.word	dateBuffer
 435 0108 24000000 		.word	.LC9
 436 010c 38000000 		.word	.LC12
 437              		.cfi_endproc
 438              	.LFE63:
 439              		.size	lcd_main_screen, .-lcd_main_screen
 440              		.section	.text.lcd_set_date_screen,"ax",%progbits
 441              		.align	2
 442              		.global	lcd_set_date_screen
 443              		.code	16
 444              		.thumb_func
 445              		.type	lcd_set_date_screen, %function
 446              	lcd_set_date_screen:
 447              	.LFB64:
  72:lcd_bipboy.c  ****     LCD_ClearDisplay();
 448              		.loc 1 72 0
 449              		.cfi_startproc
 450              		@ args = 0, pretend = 0, frame = 0
 451              		@ frame_needed = 0, uses_anonymous_args = 0
 452 0000 70B5     		push	{r4, r5, r6, lr}
 453              		.cfi_def_cfa_offset 16
 454              		.cfi_offset 4, -16
 455              		.cfi_offset 5, -12
 456              		.cfi_offset 6, -8
 457              		.cfi_offset 14, -4
 458 0002 82B0     		sub	sp, sp, #8
 459              		.cfi_def_cfa_offset 24
  73:lcd_bipboy.c  ****     set_active_screen(SET_DATE_SCREEN);
 460              		.loc 1 73 0
 461 0004 0120     		movs	r0, #1
 462 0006 FFF7FEFF 		bl	LCD_WriteControl
 463              	.LVL56:
  74:lcd_bipboy.c  ****     
 464              		.loc 1 74 0
 465 000a 0720     		movs	r0, #7
 466 000c FFF7FEFF 		bl	set_active_screen
 467              	.LVL57:
  76:lcd_bipboy.c  ****     
 468              		.loc 1 76 0
 469 0010 FFF7FEFF 		bl	set_date
 470              	.LVL58:
  78:lcd_bipboy.c  ****     int8 month = get_month();
 471              		.loc 1 78 0
 472 0014 FFF7FEFF 		bl	get_day
ARM GAS  C:\Users\Kozak\AppData\Local\Temp\ccRtSGUf.s 			page 24


 473              	.LVL59:
 474 0018 0500     		movs	r5, r0
 475              	.LVL60:
  79:lcd_bipboy.c  ****     int16 year = get_year();
 476              		.loc 1 79 0
 477 001a FFF7FEFF 		bl	get_month
 478              	.LVL61:
 479 001e 0600     		movs	r6, r0
 480              	.LVL62:
  80:lcd_bipboy.c  ****     
 481              		.loc 1 80 0
 482 0020 FFF7FEFF 		bl	get_year
 483              	.LVL63:
  82:lcd_bipboy.c  ****     LCD_Position(0, 0);
 484              		.loc 1 82 0
 485 0024 0C4C     		ldr	r4, .L22
 486 0026 0090     		str	r0, [sp]
 487 0028 3300     		movs	r3, r6
 488 002a 2A00     		movs	r2, r5
 489 002c 0B49     		ldr	r1, .L22+4
 490 002e 2000     		movs	r0, r4
 491              	.LVL64:
 492 0030 FFF7FEFF 		bl	sprintf
 493              	.LVL65:
  83:lcd_bipboy.c  ****     LCD_PrintString(dateBuffer);
 494              		.loc 1 83 0
 495 0034 0021     		movs	r1, #0
 496 0036 0020     		movs	r0, #0
 497 0038 FFF7FEFF 		bl	LCD_Position
 498              	.LVL66:
  84:lcd_bipboy.c  ****     LCD_Position(0, 14);
 499              		.loc 1 84 0
 500 003c 2000     		movs	r0, r4
 501 003e FFF7FEFF 		bl	LCD_PrintString
 502              	.LVL67:
  85:lcd_bipboy.c  ****     LCD_PrintString("OK");
 503              		.loc 1 85 0
 504 0042 0E21     		movs	r1, #14
 505 0044 0020     		movs	r0, #0
 506 0046 FFF7FEFF 		bl	LCD_Position
 507              	.LVL68:
  86:lcd_bipboy.c  ****     lcd_position_brackets();
 508              		.loc 1 86 0
 509 004a 0548     		ldr	r0, .L22+8
 510 004c FFF7FEFF 		bl	LCD_PrintString
 511              	.LVL69:
  87:lcd_bipboy.c  **** }
 512              		.loc 1 87 0
 513 0050 FFF7FEFF 		bl	lcd_position_brackets
 514              	.LVL70:
  88:lcd_bipboy.c  **** 
 515              		.loc 1 88 0
 516 0054 02B0     		add	sp, sp, #8
 517              		@ sp needed
 518              	.LVL71:
 519              	.LVL72:
 520 0056 70BD     		pop	{r4, r5, r6, pc}
ARM GAS  C:\Users\Kozak\AppData\Local\Temp\ccRtSGUf.s 			page 25


 521              	.L23:
 522              		.align	2
 523              	.L22:
 524 0058 00000000 		.word	dateBuffer
 525 005c 40000000 		.word	.LC14
 526 0060 50000000 		.word	.LC17
 527              		.cfi_endproc
 528              	.LFE64:
 529              		.size	lcd_set_date_screen, .-lcd_set_date_screen
 530              		.section	.text.lcd_set_time_screen,"ax",%progbits
 531              		.align	2
 532              		.global	lcd_set_time_screen
 533              		.code	16
 534              		.thumb_func
 535              		.type	lcd_set_time_screen, %function
 536              	lcd_set_time_screen:
 537              	.LFB65:
  90:lcd_bipboy.c  ****     LCD_ClearDisplay();
 538              		.loc 1 90 0
 539              		.cfi_startproc
 540              		@ args = 0, pretend = 0, frame = 0
 541              		@ frame_needed = 0, uses_anonymous_args = 0
 542 0000 70B5     		push	{r4, r5, r6, lr}
 543              		.cfi_def_cfa_offset 16
 544              		.cfi_offset 4, -16
 545              		.cfi_offset 5, -12
 546              		.cfi_offset 6, -8
 547              		.cfi_offset 14, -4
 548 0002 82B0     		sub	sp, sp, #8
 549              		.cfi_def_cfa_offset 24
  91:lcd_bipboy.c  ****     set_active_screen(SET_TIME_SCREEN);
 550              		.loc 1 91 0
 551 0004 0120     		movs	r0, #1
 552 0006 FFF7FEFF 		bl	LCD_WriteControl
 553              	.LVL73:
  92:lcd_bipboy.c  ****     
 554              		.loc 1 92 0
 555 000a 0620     		movs	r0, #6
 556 000c FFF7FEFF 		bl	set_active_screen
 557              	.LVL74:
  94:lcd_bipboy.c  ****     
 558              		.loc 1 94 0
 559 0010 FFF7FEFF 		bl	set_time
 560              	.LVL75:
  96:lcd_bipboy.c  ****     int8 minute = get_minute();
 561              		.loc 1 96 0
 562 0014 FFF7FEFF 		bl	get_hour
 563              	.LVL76:
 564 0018 0500     		movs	r5, r0
 565              	.LVL77:
  97:lcd_bipboy.c  ****     int8 second = get_second();    
 566              		.loc 1 97 0
 567 001a FFF7FEFF 		bl	get_minute
 568              	.LVL78:
 569 001e 0600     		movs	r6, r0
 570              	.LVL79:
  98:lcd_bipboy.c  ****     
ARM GAS  C:\Users\Kozak\AppData\Local\Temp\ccRtSGUf.s 			page 26


 571              		.loc 1 98 0
 572 0020 FFF7FEFF 		bl	get_second
 573              	.LVL80:
 100:lcd_bipboy.c  ****     LCD_Position(0, 0);
 574              		.loc 1 100 0
 575 0024 0C4C     		ldr	r4, .L25
 576 0026 0090     		str	r0, [sp]
 577 0028 3300     		movs	r3, r6
 578 002a 2A00     		movs	r2, r5
 579 002c 0B49     		ldr	r1, .L25+4
 580 002e 2000     		movs	r0, r4
 581              	.LVL81:
 582 0030 FFF7FEFF 		bl	sprintf
 583              	.LVL82:
 101:lcd_bipboy.c  ****     LCD_PrintString(timeBuffer);
 584              		.loc 1 101 0
 585 0034 0021     		movs	r1, #0
 586 0036 0020     		movs	r0, #0
 587 0038 FFF7FEFF 		bl	LCD_Position
 588              	.LVL83:
 102:lcd_bipboy.c  ****     LCD_Position(0, 14);
 589              		.loc 1 102 0
 590 003c 2000     		movs	r0, r4
 591 003e FFF7FEFF 		bl	LCD_PrintString
 592              	.LVL84:
 103:lcd_bipboy.c  ****     LCD_PrintString("OK");
 593              		.loc 1 103 0
 594 0042 0E21     		movs	r1, #14
 595 0044 0020     		movs	r0, #0
 596 0046 FFF7FEFF 		bl	LCD_Position
 597              	.LVL85:
 104:lcd_bipboy.c  ****     lcd_position_brackets();
 598              		.loc 1 104 0
 599 004a 0548     		ldr	r0, .L25+8
 600 004c FFF7FEFF 		bl	LCD_PrintString
 601              	.LVL86:
 105:lcd_bipboy.c  **** }
 602              		.loc 1 105 0
 603 0050 FFF7FEFF 		bl	lcd_position_brackets
 604              	.LVL87:
 106:lcd_bipboy.c  **** 
 605              		.loc 1 106 0
 606 0054 02B0     		add	sp, sp, #8
 607              		@ sp needed
 608              	.LVL88:
 609              	.LVL89:
 610 0056 70BD     		pop	{r4, r5, r6, pc}
 611              	.L26:
 612              		.align	2
 613              	.L25:
 614 0058 00000000 		.word	timeBuffer
 615 005c 54000000 		.word	.LC19
 616 0060 50000000 		.word	.LC17
 617              		.cfi_endproc
 618              	.LFE65:
 619              		.size	lcd_set_time_screen, .-lcd_set_time_screen
 620              		.section	.text.lcd_sensors_screen,"ax",%progbits
ARM GAS  C:\Users\Kozak\AppData\Local\Temp\ccRtSGUf.s 			page 27


 621              		.align	2
 622              		.global	lcd_sensors_screen
 623              		.code	16
 624              		.thumb_func
 625              		.type	lcd_sensors_screen, %function
 626              	lcd_sensors_screen:
 627              	.LFB67:
 125:lcd_bipboy.c  ****     LCD_ClearDisplay();
 628              		.loc 1 125 0
 629              		.cfi_startproc
 630              		@ args = 0, pretend = 0, frame = 0
 631              		@ frame_needed = 0, uses_anonymous_args = 0
 632              	.LVL90:
 633 0000 10B5     		push	{r4, lr}
 634              		.cfi_def_cfa_offset 8
 635              		.cfi_offset 4, -8
 636              		.cfi_offset 14, -4
 637 0002 0400     		movs	r4, r0
 126:lcd_bipboy.c  ****     set_active_screen(SENSORS_SCREEN);
 638              		.loc 1 126 0
 639 0004 0120     		movs	r0, #1
 640              	.LVL91:
 641 0006 FFF7FEFF 		bl	LCD_WriteControl
 642              	.LVL92:
 127:lcd_bipboy.c  ****     LCD_Position(0, 0);
 643              		.loc 1 127 0
 644 000a 0220     		movs	r0, #2
 645 000c FFF7FEFF 		bl	set_active_screen
 646              	.LVL93:
 128:lcd_bipboy.c  ****     LCD_PrintString(sensorsStrings[stringToDisplay][0]);
 647              		.loc 1 128 0
 648 0010 0021     		movs	r1, #0
 649 0012 0020     		movs	r0, #0
 650 0014 FFF7FEFF 		bl	LCD_Position
 651              	.LVL94:
 129:lcd_bipboy.c  ****     LCD_Position(1, 0);
 652              		.loc 1 129 0
 653 0018 E400     		lsls	r4, r4, #3
 654 001a 064B     		ldr	r3, .L28
 655 001c 1C19     		adds	r4, r3, r4
 656 001e 6068     		ldr	r0, [r4, #4]
 657 0020 FFF7FEFF 		bl	LCD_PrintString
 658              	.LVL95:
 130:lcd_bipboy.c  ****     LCD_PrintString(sensorsStrings[stringToDisplay][1]);
 659              		.loc 1 130 0
 660 0024 0021     		movs	r1, #0
 661 0026 0120     		movs	r0, #1
 662 0028 FFF7FEFF 		bl	LCD_Position
 663              	.LVL96:
 131:lcd_bipboy.c  **** }
 664              		.loc 1 131 0
 665 002c A068     		ldr	r0, [r4, #8]
 666 002e FFF7FEFF 		bl	LCD_PrintString
 667              	.LVL97:
 132:lcd_bipboy.c  **** 
 668              		.loc 1 132 0
 669              		@ sp needed
ARM GAS  C:\Users\Kozak\AppData\Local\Temp\ccRtSGUf.s 			page 28


 670 0032 10BD     		pop	{r4, pc}
 671              	.L29:
 672              		.align	2
 673              	.L28:
 674 0034 00000000 		.word	.LANCHOR0
 675              		.cfi_endproc
 676              	.LFE67:
 677              		.size	lcd_sensors_screen, .-lcd_sensors_screen
 678              		.section	.text.lcd_menu_screen,"ax",%progbits
 679              		.align	2
 680              		.global	lcd_menu_screen
 681              		.code	16
 682              		.thumb_func
 683              		.type	lcd_menu_screen, %function
 684              	lcd_menu_screen:
 685              	.LFB68:
 134:lcd_bipboy.c  ****     LCD_ClearDisplay();
 686              		.loc 1 134 0
 687              		.cfi_startproc
 688              		@ args = 0, pretend = 0, frame = 0
 689              		@ frame_needed = 0, uses_anonymous_args = 0
 690              	.LVL98:
 691 0000 10B5     		push	{r4, lr}
 692              		.cfi_def_cfa_offset 8
 693              		.cfi_offset 4, -8
 694              		.cfi_offset 14, -4
 695 0002 0400     		movs	r4, r0
 135:lcd_bipboy.c  ****     set_active_screen(MENU_SCREEN);
 696              		.loc 1 135 0
 697 0004 0120     		movs	r0, #1
 698              	.LVL99:
 699 0006 FFF7FEFF 		bl	LCD_WriteControl
 700              	.LVL100:
 136:lcd_bipboy.c  ****     LCD_Position(0, 0);
 701              		.loc 1 136 0
 702 000a 0120     		movs	r0, #1
 703 000c FFF7FEFF 		bl	set_active_screen
 704              	.LVL101:
 137:lcd_bipboy.c  ****     LCD_PrintString(menuStrings[stringToDisplay][0]);
 705              		.loc 1 137 0
 706 0010 0021     		movs	r1, #0
 707 0012 0020     		movs	r0, #0
 708 0014 FFF7FEFF 		bl	LCD_Position
 709              	.LVL102:
 138:lcd_bipboy.c  ****     LCD_Position(1, 0);
 710              		.loc 1 138 0
 711 0018 E400     		lsls	r4, r4, #3
 712 001a 064B     		ldr	r3, .L31
 713 001c 1C19     		adds	r4, r3, r4
 714 001e 6069     		ldr	r0, [r4, #20]
 715 0020 FFF7FEFF 		bl	LCD_PrintString
 716              	.LVL103:
 139:lcd_bipboy.c  ****     LCD_PrintString(menuStrings[stringToDisplay][1]);
 717              		.loc 1 139 0
 718 0024 0021     		movs	r1, #0
 719 0026 0120     		movs	r0, #1
 720 0028 FFF7FEFF 		bl	LCD_Position
ARM GAS  C:\Users\Kozak\AppData\Local\Temp\ccRtSGUf.s 			page 29


 721              	.LVL104:
 140:lcd_bipboy.c  **** }
 722              		.loc 1 140 0
 723 002c A069     		ldr	r0, [r4, #24]
 724 002e FFF7FEFF 		bl	LCD_PrintString
 725              	.LVL105:
 141:lcd_bipboy.c  **** 
 726              		.loc 1 141 0
 727              		@ sp needed
 728 0032 10BD     		pop	{r4, pc}
 729              	.L32:
 730              		.align	2
 731              	.L31:
 732 0034 00000000 		.word	.LANCHOR0
 733              		.cfi_endproc
 734              	.LFE68:
 735              		.size	lcd_menu_screen, .-lcd_menu_screen
 736              		.section	.text.lcd_date_screen,"ax",%progbits
 737              		.align	2
 738              		.global	lcd_date_screen
 739              		.code	16
 740              		.thumb_func
 741              		.type	lcd_date_screen, %function
 742              	lcd_date_screen:
 743              	.LFB69:
 143:lcd_bipboy.c  ****     LCD_ClearDisplay();
 744              		.loc 1 143 0
 745              		.cfi_startproc
 746              		@ args = 0, pretend = 0, frame = 0
 747              		@ frame_needed = 0, uses_anonymous_args = 0
 748              	.LVL106:
 749 0000 10B5     		push	{r4, lr}
 750              		.cfi_def_cfa_offset 8
 751              		.cfi_offset 4, -8
 752              		.cfi_offset 14, -4
 753 0002 0400     		movs	r4, r0
 144:lcd_bipboy.c  ****     set_active_screen(DATE_SCREEN);
 754              		.loc 1 144 0
 755 0004 0120     		movs	r0, #1
 756              	.LVL107:
 757 0006 FFF7FEFF 		bl	LCD_WriteControl
 758              	.LVL108:
 145:lcd_bipboy.c  ****     LCD_Position(0, 0);
 759              		.loc 1 145 0
 760 000a 0320     		movs	r0, #3
 761 000c FFF7FEFF 		bl	set_active_screen
 762              	.LVL109:
 146:lcd_bipboy.c  ****     LCD_PrintString(dateStrings[stringToDisplay][0]);
 763              		.loc 1 146 0
 764 0010 0021     		movs	r1, #0
 765 0012 0020     		movs	r0, #0
 766 0014 FFF7FEFF 		bl	LCD_Position
 767              	.LVL110:
 147:lcd_bipboy.c  ****     LCD_Position(1, 0);
 768              		.loc 1 147 0
 769 0018 E400     		lsls	r4, r4, #3
 770 001a 064B     		ldr	r3, .L34
ARM GAS  C:\Users\Kozak\AppData\Local\Temp\ccRtSGUf.s 			page 30


 771 001c 1C19     		adds	r4, r3, r4
 772 001e 606B     		ldr	r0, [r4, #52]
 773 0020 FFF7FEFF 		bl	LCD_PrintString
 774              	.LVL111:
 148:lcd_bipboy.c  ****     LCD_PrintString(dateStrings[stringToDisplay][1]);
 775              		.loc 1 148 0
 776 0024 0021     		movs	r1, #0
 777 0026 0120     		movs	r0, #1
 778 0028 FFF7FEFF 		bl	LCD_Position
 779              	.LVL112:
 149:lcd_bipboy.c  **** }
 780              		.loc 1 149 0
 781 002c A06B     		ldr	r0, [r4, #56]
 782 002e FFF7FEFF 		bl	LCD_PrintString
 783              	.LVL113:
 150:lcd_bipboy.c  **** 
 784              		.loc 1 150 0
 785              		@ sp needed
 786 0032 10BD     		pop	{r4, pc}
 787              	.L35:
 788              		.align	2
 789              	.L34:
 790 0034 00000000 		.word	.LANCHOR0
 791              		.cfi_endproc
 792              	.LFE69:
 793              		.size	lcd_date_screen, .-lcd_date_screen
 794              		.section	.text.get_active_screen,"ax",%progbits
 795              		.align	2
 796              		.global	get_active_screen
 797              		.code	16
 798              		.thumb_func
 799              		.type	get_active_screen, %function
 800              	get_active_screen:
 801              	.LFB71:
 161:lcd_bipboy.c  **** 
 162:lcd_bipboy.c  **** uint8 get_active_screen(void) {
 802              		.loc 1 162 0
 803              		.cfi_startproc
 804              		@ args = 0, pretend = 0, frame = 0
 805              		@ frame_needed = 0, uses_anonymous_args = 0
 806              		@ link register save eliminated.
 807              	.LVL114:
 808              	.LBB27:
 163:lcd_bipboy.c  ****     uint8 activeScreen;
 164:lcd_bipboy.c  ****     
 165:lcd_bipboy.c  ****     for(uint8 currentScreen = 0; currentScreen < lengthArray; currentScreen++) {
 809              		.loc 1 165 0
 810 0000 0023     		movs	r3, #0
 811 0002 05E0     		b	.L37
 812              	.LVL115:
 813              	.L39:
 166:lcd_bipboy.c  ****         if(arrayScreens[currentScreen] == true) {
 814              		.loc 1 166 0
 815 0004 064A     		ldr	r2, .L41
 816 0006 D25C     		ldrb	r2, [r2, r3]
 817 0008 002A     		cmp	r2, #0
 818 000a 06D1     		bne	.L40
ARM GAS  C:\Users\Kozak\AppData\Local\Temp\ccRtSGUf.s 			page 31


 165:lcd_bipboy.c  ****         if(arrayScreens[currentScreen] == true) {
 819              		.loc 1 165 0 discriminator 2
 820 000c 0133     		adds	r3, r3, #1
 821              	.LVL116:
 822 000e DBB2     		uxtb	r3, r3
 823              	.LVL117:
 824              	.L37:
 165:lcd_bipboy.c  ****         if(arrayScreens[currentScreen] == true) {
 825              		.loc 1 165 0 is_stmt 0 discriminator 1
 826 0010 044A     		ldr	r2, .L41+4
 827 0012 1278     		ldrb	r2, [r2]
 828 0014 9342     		cmp	r3, r2
 829 0016 F5D3     		bcc	.L39
 830 0018 00E0     		b	.L38
 831              	.L40:
 167:lcd_bipboy.c  ****             activeScreen = currentScreen;
 832              		.loc 1 167 0 is_stmt 1
 833 001a 1800     		movs	r0, r3
 834              	.L38:
 835              	.LVL118:
 836              	.LBE27:
 168:lcd_bipboy.c  ****             break;
 169:lcd_bipboy.c  ****         }
 170:lcd_bipboy.c  ****     }
 171:lcd_bipboy.c  ****     
 172:lcd_bipboy.c  ****     return activeScreen;
 173:lcd_bipboy.c  **** }
 837              		.loc 1 173 0
 838              		@ sp needed
 839 001c 7047     		bx	lr
 840              	.L42:
 841 001e C046     		.align	2
 842              	.L41:
 843 0020 00000000 		.word	arrayScreens
 844 0024 00000000 		.word	.LANCHOR0
 845              		.cfi_endproc
 846              	.LFE71:
 847              		.size	get_active_screen, .-get_active_screen
 848              		.section	.text.lcd_scroll_brackets,"ax",%progbits
 849              		.align	2
 850              		.global	lcd_scroll_brackets
 851              		.code	16
 852              		.thumb_func
 853              		.type	lcd_scroll_brackets, %function
 854              	lcd_scroll_brackets:
 855              	.LFB72:
 174:lcd_bipboy.c  **** 
 175:lcd_bipboy.c  **** void lcd_scroll_brackets(void) {
 856              		.loc 1 175 0
 857              		.cfi_startproc
 858              		@ args = 0, pretend = 0, frame = 0
 859              		@ frame_needed = 0, uses_anonymous_args = 0
 860 0000 10B5     		push	{r4, lr}
 861              		.cfi_def_cfa_offset 8
 862              		.cfi_offset 4, -8
 863              		.cfi_offset 14, -4
 176:lcd_bipboy.c  ****     LCD_Position(0, 15);
ARM GAS  C:\Users\Kozak\AppData\Local\Temp\ccRtSGUf.s 			page 32


 864              		.loc 1 176 0
 865 0002 0F21     		movs	r1, #15
 866 0004 0020     		movs	r0, #0
 867 0006 FFF7FEFF 		bl	LCD_Position
 868              	.LVL119:
 177:lcd_bipboy.c  ****     LCD_PutChar('^');
 869              		.loc 1 177 0
 870 000a 5E20     		movs	r0, #94
 871 000c FFF7FEFF 		bl	LCD_PutChar
 872              	.LVL120:
 178:lcd_bipboy.c  ****     LCD_Position(1, 15);
 873              		.loc 1 178 0
 874 0010 0F21     		movs	r1, #15
 875 0012 0120     		movs	r0, #1
 876 0014 FFF7FEFF 		bl	LCD_Position
 877              	.LVL121:
 179:lcd_bipboy.c  ****     LCD_PutChar(LCD_CUSTOM_0);
 878              		.loc 1 179 0
 879 0018 0020     		movs	r0, #0
 880 001a FFF7FEFF 		bl	LCD_PutChar
 881              	.LVL122:
 180:lcd_bipboy.c  **** }
 882              		.loc 1 180 0
 883              		@ sp needed
 884 001e 10BD     		pop	{r4, pc}
 885              		.cfi_endproc
 886              	.LFE72:
 887              		.size	lcd_scroll_brackets, .-lcd_scroll_brackets
 888              		.section	.text.get_pages_number,"ax",%progbits
 889              		.align	2
 890              		.global	get_pages_number
 891              		.code	16
 892              		.thumb_func
 893              		.type	get_pages_number, %function
 894              	get_pages_number:
 895              	.LFB73:
 181:lcd_bipboy.c  **** 
 182:lcd_bipboy.c  **** uint8 get_pages_number(uint8 activeScreen) {
 896              		.loc 1 182 0
 897              		.cfi_startproc
 898              		@ args = 0, pretend = 0, frame = 0
 899              		@ frame_needed = 0, uses_anonymous_args = 0
 900              		@ link register save eliminated.
 901              	.LVL123:
 183:lcd_bipboy.c  ****     return numberOfPages[activeScreen];
 902              		.loc 1 183 0
 903 0000 024B     		ldr	r3, .L45
 904 0002 1818     		adds	r0, r3, r0
 905              	.LVL124:
 906 0004 6423     		movs	r3, #100
 907 0006 C05C     		ldrb	r0, [r0, r3]
 184:lcd_bipboy.c  **** }
 908              		.loc 1 184 0
 909              		@ sp needed
 910 0008 7047     		bx	lr
 911              	.L46:
 912 000a C046     		.align	2
ARM GAS  C:\Users\Kozak\AppData\Local\Temp\ccRtSGUf.s 			page 33


 913              	.L45:
 914 000c 00000000 		.word	.LANCHOR0
 915              		.cfi_endproc
 916              	.LFE73:
 917              		.size	get_pages_number, .-get_pages_number
 918              		.global	sensorsStrings
 919              		.global	dateStrings
 920              		.global	menuStrings
 921              		.global	lengthArray
 922              		.comm	dateBuffer,16,4
 923              		.comm	timeBuffer,16,4
 924              		.global	numberOfPages
 925              		.comm	arrayScreens,8,4
 926              		.data
 927              		.align	2
 928              		.set	.LANCHOR0,. + 0
 929              		.type	lengthArray, %object
 930              		.size	lengthArray, 1
 931              	lengthArray:
 932 0000 08       		.byte	8
 933 0001 000000   		.space	3
 934              		.type	sensorsStrings, %object
 935              		.size	sensorsStrings, 16
 936              	sensorsStrings:
 937 0004 64000000 		.word	.LC29
 938 0008 6C000000 		.word	.LC30
 939 000c 70000000 		.word	.LC31
 940 0010 78000000 		.word	.LC32
 941              		.type	menuStrings, %object
 942              		.size	menuStrings, 32
 943              	menuStrings:
 944 0014 C0000000 		.word	.LC39
 945 0018 78000000 		.word	.LC32
 946 001c D0000000 		.word	.LC40
 947 0020 78000000 		.word	.LC32
 948 0024 DC000000 		.word	.LC41
 949 0028 EC000000 		.word	.LC42
 950 002c F8000000 		.word	.LC43
 951 0030 00010000 		.word	.LC44
 952              		.type	dateStrings, %object
 953              		.size	dateStrings, 48
 954              	dateStrings:
 955 0034 7C000000 		.word	.LC33
 956 0038 78000000 		.word	.LC32
 957 003c 88000000 		.word	.LC34
 958 0040 78000000 		.word	.LC32
 959 0044 94000000 		.word	.LC35
 960 0048 78000000 		.word	.LC32
 961 004c 9C000000 		.word	.LC36
 962 0050 78000000 		.word	.LC32
 963 0054 A8000000 		.word	.LC37
 964 0058 78000000 		.word	.LC32
 965 005c B0000000 		.word	.LC38
 966 0060 78000000 		.word	.LC32
 967              		.type	numberOfPages, %object
 968              		.size	numberOfPages, 8
 969              	numberOfPages:
ARM GAS  C:\Users\Kozak\AppData\Local\Temp\ccRtSGUf.s 			page 34


 970 0064 01       		.byte	1
 971 0065 04       		.byte	4
 972 0066 02       		.byte	2
 973 0067 06       		.byte	6
 974 0068 01       		.byte	1
 975 0069 01       		.byte	1
 976 006a 02       		.byte	2
 977 006b 02       		.byte	2
 978              		.section	.rodata.str1.4,"aMS",%progbits,1
 979              		.align	2
 980              	.LC0:
 981 0000 536D6172 		.ascii	"SmartBoy\000"
 981      74426F79 
 981      00
 982 0009 000000   		.space	3
 983              	.LC2:
 984 000c 5E5E00   		.ascii	"^^\000"
 985 000f 00       		.space	1
 986              	.LC6:
 987 0010 2530326C 		.ascii	"%02lu:%02lu:%02lu\000"
 987      753A2530 
 987      326C753A 
 987      2530326C 
 987      7500
 988 0022 0000     		.space	2
 989              	.LC9:
 990 0024 2530326C 		.ascii	"%02lu/%02lu/%02lu\000"
 990      752F2530 
 990      326C752F 
 990      2530326C 
 990      7500
 991 0036 0000     		.space	2
 992              	.LC12:
 993 0038 31303025 		.ascii	"100%\000"
 993      00
 994 003d 000000   		.space	3
 995              	.LC14:
 996 0040 25303275 		.ascii	"%02u/%02u/%02u\000"
 996      2F253032 
 996      752F2530 
 996      327500
 997 004f 00       		.space	1
 998              	.LC17:
 999 0050 4F4B00   		.ascii	"OK\000"
 1000 0053 00       		.space	1
 1001              	.LC19:
 1002 0054 25303275 		.ascii	"%02u:%02u:%02u\000"
 1002      3A253032 
 1002      753A2530 
 1002      327500
 1003 0063 00       		.space	1
 1004              	.LC29:
 1005 0064 57656174 		.ascii	"Weather\000"
 1005      68657200 
 1006              	.LC30:
 1007 006c 5400     		.ascii	"T\000"
 1008 006e 0000     		.space	2
ARM GAS  C:\Users\Kozak\AppData\Local\Temp\ccRtSGUf.s 			page 35


 1009              	.LC31:
 1010 0070 50756C73 		.ascii	"Pulse\000"
 1010      6500
 1011 0076 0000     		.space	2
 1012              	.LC32:
 1013 0078 00       		.ascii	"\000"
 1014 0079 000000   		.space	3
 1015              	.LC33:
 1016 007c 53657420 		.ascii	"Set Time\000"
 1016      54696D65 
 1016      00
 1017 0085 000000   		.space	3
 1018              	.LC34:
 1019 0088 53657420 		.ascii	"Set Date\000"
 1019      44617465 
 1019      00
 1020 0091 000000   		.space	3
 1021              	.LC35:
 1022 0094 416C6172 		.ascii	"Alarm\000"
 1022      6D00
 1023 009a 0000     		.space	2
 1024              	.LC36:
 1025 009c 53746F70 		.ascii	"Stopwatch\000"
 1025      77617463 
 1025      6800
 1026 00a6 0000     		.space	2
 1027              	.LC37:
 1028 00a8 54696D65 		.ascii	"Timer\000"
 1028      7200
 1029 00ae 0000     		.space	2
 1030              	.LC38:
 1031 00b0 54696D65 		.ascii	"Time Settings\000"
 1031      20536574 
 1031      74696E67 
 1031      7300
 1032 00be 0000     		.space	2
 1033              	.LC39:
 1034 00c0 53656E73 		.ascii	"Sensors data\000"
 1034      6F727320 
 1034      64617461 
 1034      00
 1035 00cd 000000   		.space	3
 1036              	.LC40:
 1037 00d0 44617465 		.ascii	"Date & Time\000"
 1037      20262054 
 1037      696D6500 
 1038              	.LC41:
 1039 00dc 486F6D65 		.ascii	"Home control\000"
 1039      20636F6E 
 1039      74726F6C 
 1039      00
 1040 00e9 000000   		.space	3
 1041              	.LC42:
 1042 00ec 28496E61 		.ascii	"(Inactive)\000"
 1042      63746976 
 1042      652900
 1043 00f7 00       		.space	1
ARM GAS  C:\Users\Kozak\AppData\Local\Temp\ccRtSGUf.s 			page 36


 1044              	.LC43:
 1045 00f8 50686F6E 		.ascii	"Phone\000"
 1045      6500
 1046 00fe 0000     		.space	2
 1047              	.LC44:
 1048 0100 636F6E6E 		.ascii	"connection\000"
 1048      65637469 
 1048      6F6E00
 1049              		.text
 1050              	.Letext0:
 1051              		.file 3 "Generated_Source\\PSoC4/cytypes.h"
 1052              		.file 4 "Generated_Source\\PSoC4/LCD.h"
 1053              		.file 5 "Generated_Source\\PSoC4/CyLib.h"
 1054              		.file 6 "buttons.h"
 1055              		.file 7 "c:\\program files (x86)\\cypress\\psoc creator\\4.2\\psoc creator\\import\\gnu\\arm\\5.4.
 1056              		.file 8 "rtc_bipboy.h"