ARM GAS  C:\Users\Kozak\AppData\Local\Temp\ccca2Ooh.s 			page 1


   1              		.syntax unified
   2              		.cpu cortex-m0
   3              		.fpu softvfp
   4              		.eabi_attribute 20, 1
   5              		.eabi_attribute 21, 1
   6              		.eabi_attribute 23, 3
   7              		.eabi_attribute 24, 1
   8              		.eabi_attribute 25, 1
   9              		.eabi_attribute 26, 1
  10              		.eabi_attribute 30, 1
  11              		.eabi_attribute 34, 0
  12              		.eabi_attribute 18, 4
  13              		.thumb
  14              		.syntax unified
  15              		.file	"rtc_smartboy.c"
  16              		.text
  17              	.Ltext0:
  18              		.cfi_sections	.debug_frame
  19              		.section	.text.SysTickIsrHandler,"ax",%progbits
  20              		.align	2
  21              		.global	SysTickIsrHandler
  22              		.code	16
  23              		.thumb_func
  24              		.type	SysTickIsrHandler, %function
  25              	SysTickIsrHandler:
  26              	.LFB63:
  27              		.file 1 "rtc_smartboy.c"
   1:rtc_smartboy.c **** #include "smartboy.h"
   2:rtc_smartboy.c **** 
   3:rtc_smartboy.c **** struct Time Time;
   4:rtc_smartboy.c **** struct Date Date;
   5:rtc_smartboy.c **** 
   6:rtc_smartboy.c **** int8 hour;
   7:rtc_smartboy.c **** int8 minute;
   8:rtc_smartboy.c **** int8 second;
   9:rtc_smartboy.c **** 
  10:rtc_smartboy.c **** int8 day;
  11:rtc_smartboy.c **** int8 month = 1;
  12:rtc_smartboy.c **** int16 year;
  13:rtc_smartboy.c **** 
  14:rtc_smartboy.c **** uint32 timeHrMinSec = TIME_HR_MIN_SEC;
  15:rtc_smartboy.c **** uint32 dateMonthDayYear = DATE_MONTH_DAY_YEAR;
  16:rtc_smartboy.c **** 
  17:rtc_smartboy.c **** void rtc_init(void) {
  18:rtc_smartboy.c ****     /* Starts SysTick component */
  19:rtc_smartboy.c ****     CySysTickStart();
  20:rtc_smartboy.c **** 
  21:rtc_smartboy.c ****     /* Configure SysTick timer to generate interrupt every 100 ms */
  22:rtc_smartboy.c ****     CySysTickSetReload(SYSTICK_RELOAD);
  23:rtc_smartboy.c ****     
  24:rtc_smartboy.c ****     /* Find unused callback slot. */
  25:rtc_smartboy.c ****     for (uint32 i = 0u; i < CY_SYS_SYST_NUM_OF_CALLBACKS; ++i) {
  26:rtc_smartboy.c ****         if (CySysTickGetCallback(i) == NULL) {
  27:rtc_smartboy.c ****             /* Set callback */
  28:rtc_smartboy.c ****             CySysTickSetCallback(i, SysTickIsrHandler);
  29:rtc_smartboy.c ****             break;
  30:rtc_smartboy.c ****         }
ARM GAS  C:\Users\Kozak\AppData\Local\Temp\ccca2Ooh.s 			page 2


  31:rtc_smartboy.c ****     }
  32:rtc_smartboy.c ****     
  33:rtc_smartboy.c ****     /* Starts RTC component */
  34:rtc_smartboy.c ****     RTC_Start();
  35:rtc_smartboy.c **** 
  36:rtc_smartboy.c ****     /* Set Date and Time */
  37:rtc_smartboy.c ****     RTC_SetDateAndTime(timeHrMinSec, dateMonthDayYear);
  38:rtc_smartboy.c ****     
  39:rtc_smartboy.c ****     /* Set RTC time update period */
  40:rtc_smartboy.c ****     RTC_SetPeriod(1u, SYSTICK_EACH_1_HZ);
  41:rtc_smartboy.c **** }
  42:rtc_smartboy.c **** 
  43:rtc_smartboy.c **** uint8 counter;
  44:rtc_smartboy.c **** 
  45:rtc_smartboy.c **** CY_ISR(SysTickIsrHandler) {
  28              		.loc 1 45 0
  29              		.cfi_startproc
  30              		@ args = 0, pretend = 0, frame = 0
  31              		@ frame_needed = 0, uses_anonymous_args = 0
  32 0000 10B5     		push	{r4, lr}
  33              		.cfi_def_cfa_offset 8
  34              		.cfi_offset 4, -8
  35              		.cfi_offset 14, -4
  46:rtc_smartboy.c ****     RTC_Update(); 
  36              		.loc 1 46 0
  37 0002 FFF7FEFF 		bl	RTC_Update
  38              	.LVL0:
  47:rtc_smartboy.c **** }
  39              		.loc 1 47 0
  40              		@ sp needed
  41 0006 10BD     		pop	{r4, pc}
  42              		.cfi_endproc
  43              	.LFE63:
  44              		.size	SysTickIsrHandler, .-SysTickIsrHandler
  45              		.section	.text.rtc_init,"ax",%progbits
  46              		.align	2
  47              		.global	rtc_init
  48              		.code	16
  49              		.thumb_func
  50              		.type	rtc_init, %function
  51              	rtc_init:
  52              	.LFB62:
  17:rtc_smartboy.c ****     /* Starts SysTick component */
  53              		.loc 1 17 0
  54              		.cfi_startproc
  55              		@ args = 0, pretend = 0, frame = 0
  56              		@ frame_needed = 0, uses_anonymous_args = 0
  57 0000 10B5     		push	{r4, lr}
  58              		.cfi_def_cfa_offset 8
  59              		.cfi_offset 4, -8
  60              		.cfi_offset 14, -4
  19:rtc_smartboy.c **** 
  61              		.loc 1 19 0
  62 0002 FFF7FEFF 		bl	CySysTickStart
  63              	.LVL1:
  22:rtc_smartboy.c ****     
  64              		.loc 1 22 0
ARM GAS  C:\Users\Kozak\AppData\Local\Temp\ccca2Ooh.s 			page 3


  65 0006 0F48     		ldr	r0, .L7
  66 0008 FFF7FEFF 		bl	CySysTickSetReload
  67              	.LVL2:
  68              	.LBB2:
  25:rtc_smartboy.c ****         if (CySysTickGetCallback(i) == NULL) {
  69              		.loc 1 25 0
  70 000c 0024     		movs	r4, #0
  71 000e 0AE0     		b	.L3
  72              	.LVL3:
  73              	.L6:
  26:rtc_smartboy.c ****             /* Set callback */
  74              		.loc 1 26 0
  75 0010 2000     		movs	r0, r4
  76 0012 FFF7FEFF 		bl	CySysTickGetCallback
  77              	.LVL4:
  78 0016 0028     		cmp	r0, #0
  79 0018 04D1     		bne	.L4
  28:rtc_smartboy.c ****             break;
  80              		.loc 1 28 0
  81 001a 0B49     		ldr	r1, .L7+4
  82 001c 2000     		movs	r0, r4
  83 001e FFF7FEFF 		bl	CySysTickSetCallback
  84              	.LVL5:
  29:rtc_smartboy.c ****         }
  85              		.loc 1 29 0
  86 0022 02E0     		b	.L5
  87              	.L4:
  25:rtc_smartboy.c ****         if (CySysTickGetCallback(i) == NULL) {
  88              		.loc 1 25 0 discriminator 2
  89 0024 0134     		adds	r4, r4, #1
  90              	.LVL6:
  91              	.L3:
  25:rtc_smartboy.c ****         if (CySysTickGetCallback(i) == NULL) {
  92              		.loc 1 25 0 is_stmt 0 discriminator 1
  93 0026 042C     		cmp	r4, #4
  94 0028 F2D9     		bls	.L6
  95              	.L5:
  96              	.LBE2:
  34:rtc_smartboy.c **** 
  97              		.loc 1 34 0 is_stmt 1
  98 002a FFF7FEFF 		bl	RTC_Start
  99              	.LVL7:
  37:rtc_smartboy.c ****     
 100              		.loc 1 37 0
 101 002e 074B     		ldr	r3, .L7+8
 102 0030 1968     		ldr	r1, [r3]
 103 0032 074B     		ldr	r3, .L7+12
 104 0034 1868     		ldr	r0, [r3]
 105 0036 FFF7FEFF 		bl	RTC_SetDateAndTime
 106              	.LVL8:
  40:rtc_smartboy.c **** }
 107              		.loc 1 40 0
 108 003a 0A21     		movs	r1, #10
 109 003c 0120     		movs	r0, #1
 110 003e FFF7FEFF 		bl	RTC_SetPeriod
 111              	.LVL9:
  41:rtc_smartboy.c **** 
ARM GAS  C:\Users\Kozak\AppData\Local\Temp\ccca2Ooh.s 			page 4


 112              		.loc 1 41 0
 113              		@ sp needed
 114              	.LVL10:
 115 0042 10BD     		pop	{r4, pc}
 116              	.L8:
 117              		.align	2
 118              	.L7:
 119 0044 009F2400 		.word	2400000
 120 0048 00000000 		.word	SysTickIsrHandler
 121 004c 00000000 		.word	.LANCHOR0
 122 0050 00000000 		.word	.LANCHOR1
 123              		.cfi_endproc
 124              	.LFE62:
 125              		.size	rtc_init, .-rtc_init
 126              		.section	.text.set_time,"ax",%progbits
 127              		.align	2
 128              		.global	set_time
 129              		.code	16
 130              		.thumb_func
 131              		.type	set_time, %function
 132              	set_time:
 133              	.LFB64:
  48:rtc_smartboy.c **** 
  49:rtc_smartboy.c **** void set_time(void) {
 134              		.loc 1 49 0
 135              		.cfi_startproc
 136              		@ args = 0, pretend = 0, frame = 0
 137              		@ frame_needed = 0, uses_anonymous_args = 0
 138 0000 10B5     		push	{r4, lr}
 139              		.cfi_def_cfa_offset 8
 140              		.cfi_offset 4, -8
 141              		.cfi_offset 14, -4
  50:rtc_smartboy.c ****     uint8 position = get_counter_ok_back();
 142              		.loc 1 50 0
 143 0002 FFF7FEFF 		bl	get_counter_ok_back
 144              	.LVL11:
 145 0006 0400     		movs	r4, r0
 146              	.LVL12:
  51:rtc_smartboy.c ****     uint8 offset = get_counter_up_down();
 147              		.loc 1 51 0
 148 0008 FFF7FEFF 		bl	get_counter_up_down
 149              	.LVL13:
 150 000c C0B2     		uxtb	r0, r0
 151              	.LVL14:
  52:rtc_smartboy.c ****     
  53:rtc_smartboy.c ****     if(position == 1 && offset == 0) {
 152              		.loc 1 53 0
 153 000e 012C     		cmp	r4, #1
 154 0010 11D1     		bne	.L10
 155              		.loc 1 53 0 is_stmt 0 discriminator 1
 156 0012 0028     		cmp	r0, #0
 157 0014 0FD1     		bne	.L10
  54:rtc_smartboy.c ****         hour = Time.hour;
 158              		.loc 1 54 0 is_stmt 1
 159 0016 444B     		ldr	r3, .L20
 160 0018 0020     		movs	r0, #0
 161              	.LVL15:
ARM GAS  C:\Users\Kozak\AppData\Local\Temp\ccca2Ooh.s 			page 5


 162 001a 1856     		ldrsb	r0, [r3, r0]
 163 001c 434A     		ldr	r2, .L20+4
 164 001e 1070     		strb	r0, [r2]
  55:rtc_smartboy.c ****         Time.minute = minute;
 165              		.loc 1 55 0
 166 0020 434A     		ldr	r2, .L20+8
 167 0022 1278     		ldrb	r2, [r2]
 168 0024 5A70     		strb	r2, [r3, #1]
  56:rtc_smartboy.c ****         minute = Time.minute;
  57:rtc_smartboy.c ****         second = Time.second;
 169              		.loc 1 57 0
 170 0026 9A78     		ldrb	r2, [r3, #2]
 171 0028 424B     		ldr	r3, .L20+12
 172 002a 1A70     		strb	r2, [r3]
  58:rtc_smartboy.c ****         set_counter_up_down(hour + 2);
 173              		.loc 1 58 0
 174 002c 0230     		adds	r0, r0, #2
 175 002e 00B2     		sxth	r0, r0
 176 0030 FFF7FEFF 		bl	set_counter_up_down
 177              	.LVL16:
 178 0034 2CE0     		b	.L11
 179              	.LVL17:
 180              	.L10:
  59:rtc_smartboy.c ****     } else if(position == 2 && offset == 0) {
 181              		.loc 1 59 0
 182 0036 022C     		cmp	r4, #2
 183 0038 11D1     		bne	.L12
 184              		.loc 1 59 0 is_stmt 0 discriminator 1
 185 003a 0028     		cmp	r0, #0
 186 003c 0FD1     		bne	.L12
  60:rtc_smartboy.c ****         Time.hour = hour;
 187              		.loc 1 60 0 is_stmt 1
 188 003e 3A4B     		ldr	r3, .L20
 189 0040 3A4A     		ldr	r2, .L20+4
 190 0042 1278     		ldrb	r2, [r2]
 191 0044 1A70     		strb	r2, [r3]
  61:rtc_smartboy.c ****         minute = Time.minute;
 192              		.loc 1 61 0
 193 0046 0120     		movs	r0, #1
 194              	.LVL18:
 195 0048 1856     		ldrsb	r0, [r3, r0]
 196 004a 394A     		ldr	r2, .L20+8
 197 004c 1070     		strb	r0, [r2]
  62:rtc_smartboy.c ****         Time.second = second;
 198              		.loc 1 62 0
 199 004e 394A     		ldr	r2, .L20+12
 200 0050 1278     		ldrb	r2, [r2]
 201 0052 9A70     		strb	r2, [r3, #2]
  63:rtc_smartboy.c ****         set_counter_up_down(minute + 2);
 202              		.loc 1 63 0
 203 0054 0230     		adds	r0, r0, #2
 204 0056 00B2     		sxth	r0, r0
 205 0058 FFF7FEFF 		bl	set_counter_up_down
 206              	.LVL19:
 207 005c 18E0     		b	.L11
 208              	.LVL20:
 209              	.L12:
ARM GAS  C:\Users\Kozak\AppData\Local\Temp\ccca2Ooh.s 			page 6


  64:rtc_smartboy.c ****     } else if(position == 3 && offset == 0) {
 210              		.loc 1 64 0
 211 005e 032C     		cmp	r4, #3
 212 0060 0ED1     		bne	.L13
 213              		.loc 1 64 0 is_stmt 0 discriminator 1
 214 0062 0028     		cmp	r0, #0
 215 0064 0CD1     		bne	.L13
  65:rtc_smartboy.c ****         Time.minute = minute;
 216              		.loc 1 65 0 is_stmt 1
 217 0066 304B     		ldr	r3, .L20
 218 0068 314A     		ldr	r2, .L20+8
 219 006a 1278     		ldrb	r2, [r2]
 220 006c 5A70     		strb	r2, [r3, #1]
  66:rtc_smartboy.c ****         second = Time.second;
 221              		.loc 1 66 0
 222 006e 0220     		movs	r0, #2
 223              	.LVL21:
 224 0070 1856     		ldrsb	r0, [r3, r0]
 225 0072 304B     		ldr	r3, .L20+12
 226 0074 1870     		strb	r0, [r3]
  67:rtc_smartboy.c ****         set_counter_up_down(second + 2);
 227              		.loc 1 67 0
 228 0076 0230     		adds	r0, r0, #2
 229 0078 00B2     		sxth	r0, r0
 230 007a FFF7FEFF 		bl	set_counter_up_down
 231              	.LVL22:
 232 007e 07E0     		b	.L11
 233              	.LVL23:
 234              	.L13:
  68:rtc_smartboy.c ****     } else if(position == 4 && offset == 0) {
 235              		.loc 1 68 0
 236 0080 042C     		cmp	r4, #4
 237 0082 05D1     		bne	.L11
 238              		.loc 1 68 0 is_stmt 0 discriminator 1
 239 0084 0028     		cmp	r0, #0
 240 0086 03D1     		bne	.L11
  69:rtc_smartboy.c ****         Time.second = second;
 241              		.loc 1 69 0 is_stmt 1
 242 0088 2A4B     		ldr	r3, .L20+12
 243 008a 1A78     		ldrb	r2, [r3]
 244 008c 264B     		ldr	r3, .L20
 245 008e 9A70     		strb	r2, [r3, #2]
 246              	.LVL24:
 247              	.L11:
  70:rtc_smartboy.c **** 
  71:rtc_smartboy.c ****     }
  72:rtc_smartboy.c ****     
  73:rtc_smartboy.c ****     offset = get_counter_up_down();
 248              		.loc 1 73 0
 249 0090 FFF7FEFF 		bl	get_counter_up_down
 250              	.LVL25:
 251 0094 C0B2     		uxtb	r0, r0
 252              	.LVL26:
  74:rtc_smartboy.c ****     
  75:rtc_smartboy.c ****     if(position == 1) {
 253              		.loc 1 75 0
 254 0096 012C     		cmp	r4, #1
ARM GAS  C:\Users\Kozak\AppData\Local\Temp\ccca2Ooh.s 			page 7


 255 0098 15D1     		bne	.L14
  76:rtc_smartboy.c ****         hour = offset - 2;
 256              		.loc 1 76 0
 257 009a 0238     		subs	r0, r0, #2
 258              	.LVL27:
 259 009c 40B2     		sxtb	r0, r0
 260              	.LVL28:
 261 009e 234B     		ldr	r3, .L20+4
 262 00a0 1870     		strb	r0, [r3]
  77:rtc_smartboy.c ****         if(hour > 23) {
 263              		.loc 1 77 0
 264 00a2 1728     		cmp	r0, #23
 265 00a4 06DD     		ble	.L15
  78:rtc_smartboy.c ****             set_counter_up_down(0 + 2);
 266              		.loc 1 78 0
 267 00a6 0220     		movs	r0, #2
 268 00a8 FFF7FEFF 		bl	set_counter_up_down
 269              	.LVL29:
  79:rtc_smartboy.c ****             hour = 0;
 270              		.loc 1 79 0
 271 00ac 0022     		movs	r2, #0
 272 00ae 1F4B     		ldr	r3, .L20+4
 273 00b0 1A70     		strb	r2, [r3]
 274 00b2 37E0     		b	.L9
 275              	.L15:
  80:rtc_smartboy.c ****         } else if(hour < 0) {
 276              		.loc 1 80 0
 277 00b4 0028     		cmp	r0, #0
 278 00b6 35DA     		bge	.L9
  81:rtc_smartboy.c ****             set_counter_up_down(23 + 2);
 279              		.loc 1 81 0
 280 00b8 1920     		movs	r0, #25
 281 00ba FFF7FEFF 		bl	set_counter_up_down
 282              	.LVL30:
  82:rtc_smartboy.c ****             hour = 23;
 283              		.loc 1 82 0
 284 00be 1722     		movs	r2, #23
 285 00c0 1A4B     		ldr	r3, .L20+4
 286 00c2 1A70     		strb	r2, [r3]
 287 00c4 2EE0     		b	.L9
 288              	.LVL31:
 289              	.L14:
  83:rtc_smartboy.c ****         }
  84:rtc_smartboy.c ****     } else if(position == 2) {
 290              		.loc 1 84 0
 291 00c6 022C     		cmp	r4, #2
 292 00c8 15D1     		bne	.L17
  85:rtc_smartboy.c ****         minute = offset - 2;
 293              		.loc 1 85 0
 294 00ca 0238     		subs	r0, r0, #2
 295              	.LVL32:
 296 00cc 40B2     		sxtb	r0, r0
 297              	.LVL33:
 298 00ce 184B     		ldr	r3, .L20+8
 299 00d0 1870     		strb	r0, [r3]
  86:rtc_smartboy.c ****         if(minute > 59) {
 300              		.loc 1 86 0
ARM GAS  C:\Users\Kozak\AppData\Local\Temp\ccca2Ooh.s 			page 8


 301 00d2 3B28     		cmp	r0, #59
 302 00d4 06DD     		ble	.L18
  87:rtc_smartboy.c ****             set_counter_up_down(0 + 2);
 303              		.loc 1 87 0
 304 00d6 0220     		movs	r0, #2
 305 00d8 FFF7FEFF 		bl	set_counter_up_down
 306              	.LVL34:
  88:rtc_smartboy.c ****             minute = 0;
 307              		.loc 1 88 0
 308 00dc 0022     		movs	r2, #0
 309 00de 144B     		ldr	r3, .L20+8
 310 00e0 1A70     		strb	r2, [r3]
 311 00e2 1FE0     		b	.L9
 312              	.L18:
  89:rtc_smartboy.c ****         } else if(minute < 0) {
 313              		.loc 1 89 0
 314 00e4 0028     		cmp	r0, #0
 315 00e6 1DDA     		bge	.L9
  90:rtc_smartboy.c ****             set_counter_up_down(59 + 2);
 316              		.loc 1 90 0
 317 00e8 3D20     		movs	r0, #61
 318 00ea FFF7FEFF 		bl	set_counter_up_down
 319              	.LVL35:
  91:rtc_smartboy.c ****             minute = 59;
 320              		.loc 1 91 0
 321 00ee 3B22     		movs	r2, #59
 322 00f0 0F4B     		ldr	r3, .L20+8
 323 00f2 1A70     		strb	r2, [r3]
 324 00f4 16E0     		b	.L9
 325              	.LVL36:
 326              	.L17:
  92:rtc_smartboy.c ****         }
  93:rtc_smartboy.c ****     } else if(position == 3) {
 327              		.loc 1 93 0
 328 00f6 032C     		cmp	r4, #3
 329 00f8 14D1     		bne	.L9
  94:rtc_smartboy.c ****         second = offset - 2;
 330              		.loc 1 94 0
 331 00fa 0238     		subs	r0, r0, #2
 332              	.LVL37:
 333 00fc 40B2     		sxtb	r0, r0
 334              	.LVL38:
 335 00fe 0D4B     		ldr	r3, .L20+12
 336 0100 1870     		strb	r0, [r3]
  95:rtc_smartboy.c ****         if(second > 59) {
 337              		.loc 1 95 0
 338 0102 3B28     		cmp	r0, #59
 339 0104 06DD     		ble	.L19
  96:rtc_smartboy.c ****             set_counter_up_down(0 + 2);
 340              		.loc 1 96 0
 341 0106 0220     		movs	r0, #2
 342 0108 FFF7FEFF 		bl	set_counter_up_down
 343              	.LVL39:
  97:rtc_smartboy.c ****             second = 0;
 344              		.loc 1 97 0
 345 010c 0022     		movs	r2, #0
 346 010e 094B     		ldr	r3, .L20+12
ARM GAS  C:\Users\Kozak\AppData\Local\Temp\ccca2Ooh.s 			page 9


 347 0110 1A70     		strb	r2, [r3]
 348 0112 07E0     		b	.L9
 349              	.L19:
  98:rtc_smartboy.c ****         } else if(second < 0) {
 350              		.loc 1 98 0
 351 0114 0028     		cmp	r0, #0
 352 0116 05DA     		bge	.L9
  99:rtc_smartboy.c ****             set_counter_up_down(59 + 2);
 353              		.loc 1 99 0
 354 0118 3D20     		movs	r0, #61
 355 011a FFF7FEFF 		bl	set_counter_up_down
 356              	.LVL40:
 100:rtc_smartboy.c ****             second = 59;
 357              		.loc 1 100 0
 358 011e 3B22     		movs	r2, #59
 359 0120 044B     		ldr	r3, .L20+12
 360 0122 1A70     		strb	r2, [r3]
 361              	.L9:
 101:rtc_smartboy.c ****         }
 102:rtc_smartboy.c ****     }
 103:rtc_smartboy.c **** }
 362              		.loc 1 103 0
 363              		@ sp needed
 364              	.LVL41:
 365 0124 10BD     		pop	{r4, pc}
 366              	.L21:
 367 0126 C046     		.align	2
 368              	.L20:
 369 0128 00000000 		.word	Time
 370 012c 00000000 		.word	hour
 371 0130 00000000 		.word	minute
 372 0134 00000000 		.word	second
 373              		.cfi_endproc
 374              	.LFE64:
 375              		.size	set_time, .-set_time
 376              		.section	.text.set_date,"ax",%progbits
 377              		.align	2
 378              		.global	set_date
 379              		.code	16
 380              		.thumb_func
 381              		.type	set_date, %function
 382              	set_date:
 383              	.LFB65:
 104:rtc_smartboy.c **** 
 105:rtc_smartboy.c **** void set_date(void) {
 384              		.loc 1 105 0
 385              		.cfi_startproc
 386              		@ args = 0, pretend = 0, frame = 0
 387              		@ frame_needed = 0, uses_anonymous_args = 0
 388 0000 10B5     		push	{r4, lr}
 389              		.cfi_def_cfa_offset 8
 390              		.cfi_offset 4, -8
 391              		.cfi_offset 14, -4
 106:rtc_smartboy.c ****     uint8 position = get_counter_ok_back();
 392              		.loc 1 106 0
 393 0002 FFF7FEFF 		bl	get_counter_ok_back
 394              	.LVL42:
ARM GAS  C:\Users\Kozak\AppData\Local\Temp\ccca2Ooh.s 			page 10


 395 0006 0400     		movs	r4, r0
 396              	.LVL43:
 107:rtc_smartboy.c ****     uint16 offset = get_counter_up_down();
 397              		.loc 1 107 0
 398 0008 FFF7FEFF 		bl	get_counter_up_down
 399              	.LVL44:
 400 000c 80B2     		uxth	r0, r0
 401              	.LVL45:
 108:rtc_smartboy.c ****     
 109:rtc_smartboy.c ****     if(position == 1 && offset == 0) {
 402              		.loc 1 109 0
 403 000e 012C     		cmp	r4, #1
 404 0010 11D1     		bne	.L23
 405              		.loc 1 109 0 is_stmt 0 discriminator 1
 406 0012 0028     		cmp	r0, #0
 407 0014 0FD1     		bne	.L23
 110:rtc_smartboy.c ****         day = Date.day;
 408              		.loc 1 110 0 is_stmt 1
 409 0016 444B     		ldr	r3, .L33
 410 0018 0020     		movs	r0, #0
 411              	.LVL46:
 412 001a 1856     		ldrsb	r0, [r3, r0]
 413 001c 434A     		ldr	r2, .L33+4
 414 001e 1070     		strb	r0, [r2]
 111:rtc_smartboy.c ****         Date.month = month;
 415              		.loc 1 111 0
 416 0020 434A     		ldr	r2, .L33+8
 417 0022 1279     		ldrb	r2, [r2, #4]
 418 0024 5A70     		strb	r2, [r3, #1]
 112:rtc_smartboy.c ****         month = Date.month;
 113:rtc_smartboy.c ****         year = Date.year;
 419              		.loc 1 113 0
 420 0026 5A88     		ldrh	r2, [r3, #2]
 421 0028 424B     		ldr	r3, .L33+12
 422 002a 1A80     		strh	r2, [r3]
 114:rtc_smartboy.c ****         set_counter_up_down(day + 2);
 423              		.loc 1 114 0
 424 002c 0230     		adds	r0, r0, #2
 425 002e 00B2     		sxth	r0, r0
 426 0030 FFF7FEFF 		bl	set_counter_up_down
 427              	.LVL47:
 428 0034 2BE0     		b	.L24
 429              	.LVL48:
 430              	.L23:
 115:rtc_smartboy.c ****     } else if(position == 2 && offset == 0) {
 431              		.loc 1 115 0
 432 0036 022C     		cmp	r4, #2
 433 0038 11D1     		bne	.L25
 434              		.loc 1 115 0 is_stmt 0 discriminator 1
 435 003a 0028     		cmp	r0, #0
 436 003c 0FD1     		bne	.L25
 116:rtc_smartboy.c ****         Date.day = day;
 437              		.loc 1 116 0 is_stmt 1
 438 003e 3A4B     		ldr	r3, .L33
 439 0040 3A4A     		ldr	r2, .L33+4
 440 0042 1278     		ldrb	r2, [r2]
 441 0044 1A70     		strb	r2, [r3]
ARM GAS  C:\Users\Kozak\AppData\Local\Temp\ccca2Ooh.s 			page 11


 117:rtc_smartboy.c ****         month = Date.month;
 442              		.loc 1 117 0
 443 0046 0120     		movs	r0, #1
 444              	.LVL49:
 445 0048 1856     		ldrsb	r0, [r3, r0]
 446 004a 394A     		ldr	r2, .L33+8
 447 004c 1071     		strb	r0, [r2, #4]
 118:rtc_smartboy.c ****         Date.year = year;
 448              		.loc 1 118 0
 449 004e 394A     		ldr	r2, .L33+12
 450 0050 1288     		ldrh	r2, [r2]
 451 0052 5A80     		strh	r2, [r3, #2]
 119:rtc_smartboy.c ****         set_counter_up_down(month + 2);
 452              		.loc 1 119 0
 453 0054 0230     		adds	r0, r0, #2
 454 0056 00B2     		sxth	r0, r0
 455 0058 FFF7FEFF 		bl	set_counter_up_down
 456              	.LVL50:
 457 005c 17E0     		b	.L24
 458              	.LVL51:
 459              	.L25:
 120:rtc_smartboy.c ****     } else if(position == 3 && offset == 0) {
 460              		.loc 1 120 0
 461 005e 032C     		cmp	r4, #3
 462 0060 0DD1     		bne	.L26
 463              		.loc 1 120 0 is_stmt 0 discriminator 1
 464 0062 0028     		cmp	r0, #0
 465 0064 0BD1     		bne	.L26
 121:rtc_smartboy.c ****         Date.month = month;
 466              		.loc 1 121 0 is_stmt 1
 467 0066 304B     		ldr	r3, .L33
 468 0068 314A     		ldr	r2, .L33+8
 469 006a 1279     		ldrb	r2, [r2, #4]
 470 006c 5A70     		strb	r2, [r3, #1]
 122:rtc_smartboy.c ****         year = Date.year;
 471              		.loc 1 122 0
 472 006e 5888     		ldrh	r0, [r3, #2]
 473              	.LVL52:
 474 0070 304B     		ldr	r3, .L33+12
 475 0072 1880     		strh	r0, [r3]
 123:rtc_smartboy.c ****         set_counter_up_down(year + 2);
 476              		.loc 1 123 0
 477 0074 0230     		adds	r0, r0, #2
 478 0076 00B2     		sxth	r0, r0
 479 0078 FFF7FEFF 		bl	set_counter_up_down
 480              	.LVL53:
 481 007c 07E0     		b	.L24
 482              	.LVL54:
 483              	.L26:
 124:rtc_smartboy.c ****     } else if(position == 4 && offset == 0) {
 484              		.loc 1 124 0
 485 007e 042C     		cmp	r4, #4
 486 0080 05D1     		bne	.L24
 487              		.loc 1 124 0 is_stmt 0 discriminator 1
 488 0082 0028     		cmp	r0, #0
 489 0084 03D1     		bne	.L24
 125:rtc_smartboy.c ****         Date.year = year;
ARM GAS  C:\Users\Kozak\AppData\Local\Temp\ccca2Ooh.s 			page 12


 490              		.loc 1 125 0 is_stmt 1
 491 0086 2B4B     		ldr	r3, .L33+12
 492 0088 1A88     		ldrh	r2, [r3]
 493 008a 274B     		ldr	r3, .L33
 494 008c 5A80     		strh	r2, [r3, #2]
 495              	.LVL55:
 496              	.L24:
 126:rtc_smartboy.c **** 
 127:rtc_smartboy.c ****     }
 128:rtc_smartboy.c ****     
 129:rtc_smartboy.c ****     offset = get_counter_up_down();
 497              		.loc 1 129 0
 498 008e FFF7FEFF 		bl	get_counter_up_down
 499              	.LVL56:
 500 0092 83B2     		uxth	r3, r0
 501              	.LVL57:
 130:rtc_smartboy.c ****     
 131:rtc_smartboy.c ****     if(position == 1) {
 502              		.loc 1 131 0
 503 0094 012C     		cmp	r4, #1
 504 0096 15D1     		bne	.L27
 132:rtc_smartboy.c ****         day = offset - 2;
 505              		.loc 1 132 0
 506 0098 0238     		subs	r0, r0, #2
 507 009a 40B2     		sxtb	r0, r0
 508 009c 234B     		ldr	r3, .L33+4
 509              	.LVL58:
 510 009e 1870     		strb	r0, [r3]
 133:rtc_smartboy.c ****         if(day > 31) {
 511              		.loc 1 133 0
 512 00a0 1F28     		cmp	r0, #31
 513 00a2 06DD     		ble	.L28
 134:rtc_smartboy.c ****             set_counter_up_down(1 + 2);
 514              		.loc 1 134 0
 515 00a4 0320     		movs	r0, #3
 516 00a6 FFF7FEFF 		bl	set_counter_up_down
 517              	.LVL59:
 135:rtc_smartboy.c ****             day = 1;
 518              		.loc 1 135 0
 519 00aa 0122     		movs	r2, #1
 520 00ac 1F4B     		ldr	r3, .L33+4
 521 00ae 1A70     		strb	r2, [r3]
 522 00b0 39E0     		b	.L22
 523              	.L28:
 136:rtc_smartboy.c ****         } else if(day < 1) {
 524              		.loc 1 136 0
 525 00b2 0028     		cmp	r0, #0
 526 00b4 37DC     		bgt	.L22
 137:rtc_smartboy.c ****             set_counter_up_down(31 + 2);
 527              		.loc 1 137 0
 528 00b6 2120     		movs	r0, #33
 529 00b8 FFF7FEFF 		bl	set_counter_up_down
 530              	.LVL60:
 138:rtc_smartboy.c ****             day = 31;
 531              		.loc 1 138 0
 532 00bc 1F22     		movs	r2, #31
 533 00be 1B4B     		ldr	r3, .L33+4
ARM GAS  C:\Users\Kozak\AppData\Local\Temp\ccca2Ooh.s 			page 13


 534 00c0 1A70     		strb	r2, [r3]
 535 00c2 30E0     		b	.L22
 536              	.LVL61:
 537              	.L27:
 139:rtc_smartboy.c ****         }
 140:rtc_smartboy.c ****     } else if(position == 2) {
 538              		.loc 1 140 0
 539 00c4 022C     		cmp	r4, #2
 540 00c6 15D1     		bne	.L30
 141:rtc_smartboy.c ****         month = offset - 2;
 541              		.loc 1 141 0
 542 00c8 0238     		subs	r0, r0, #2
 543 00ca 40B2     		sxtb	r0, r0
 544 00cc 184B     		ldr	r3, .L33+8
 545              	.LVL62:
 546 00ce 1871     		strb	r0, [r3, #4]
 142:rtc_smartboy.c ****         if(month > 12) {
 547              		.loc 1 142 0
 548 00d0 0C28     		cmp	r0, #12
 549 00d2 06DD     		ble	.L31
 143:rtc_smartboy.c ****             set_counter_up_down(1 + 2);
 550              		.loc 1 143 0
 551 00d4 0320     		movs	r0, #3
 552 00d6 FFF7FEFF 		bl	set_counter_up_down
 553              	.LVL63:
 144:rtc_smartboy.c ****             month = 1;
 554              		.loc 1 144 0
 555 00da 0122     		movs	r2, #1
 556 00dc 144B     		ldr	r3, .L33+8
 557 00de 1A71     		strb	r2, [r3, #4]
 558 00e0 21E0     		b	.L22
 559              	.L31:
 145:rtc_smartboy.c ****         } else if(month < 1) {
 560              		.loc 1 145 0
 561 00e2 0028     		cmp	r0, #0
 562 00e4 1FDC     		bgt	.L22
 146:rtc_smartboy.c ****             set_counter_up_down(12 + 2);
 563              		.loc 1 146 0
 564 00e6 0E20     		movs	r0, #14
 565 00e8 FFF7FEFF 		bl	set_counter_up_down
 566              	.LVL64:
 147:rtc_smartboy.c ****             month = 12;
 567              		.loc 1 147 0
 568 00ec 0C22     		movs	r2, #12
 569 00ee 104B     		ldr	r3, .L33+8
 570 00f0 1A71     		strb	r2, [r3, #4]
 571 00f2 18E0     		b	.L22
 572              	.LVL65:
 573              	.L30:
 148:rtc_smartboy.c ****         }
 149:rtc_smartboy.c ****     } else if(position == 3) {
 574              		.loc 1 149 0
 575 00f4 032C     		cmp	r4, #3
 576 00f6 16D1     		bne	.L22
 150:rtc_smartboy.c ****         year = offset - 2;
 577              		.loc 1 150 0
 578 00f8 023B     		subs	r3, r3, #2
ARM GAS  C:\Users\Kozak\AppData\Local\Temp\ccca2Ooh.s 			page 14


 579              	.LVL66:
 580 00fa 1BB2     		sxth	r3, r3
 581              	.LVL67:
 582 00fc 0D4A     		ldr	r2, .L33+12
 583 00fe 1380     		strh	r3, [r2]
 151:rtc_smartboy.c ****         if(year > 2050) {
 584              		.loc 1 151 0
 585 0100 0D4A     		ldr	r2, .L33+16
 586 0102 9342     		cmp	r3, r2
 587 0104 06DD     		ble	.L32
 152:rtc_smartboy.c ****             set_counter_up_down(2019 + 2);
 588              		.loc 1 152 0
 589 0106 0D48     		ldr	r0, .L33+20
 590              	.LVL68:
 591 0108 FFF7FEFF 		bl	set_counter_up_down
 592              	.LVL69:
 153:rtc_smartboy.c ****             year = 2019;
 593              		.loc 1 153 0
 594 010c 0C4A     		ldr	r2, .L33+24
 595 010e 094B     		ldr	r3, .L33+12
 596 0110 1A80     		strh	r2, [r3]
 597 0112 08E0     		b	.L22
 598              	.LVL70:
 599              	.L32:
 154:rtc_smartboy.c ****         } else if(year < 2019) {
 600              		.loc 1 154 0
 601 0114 0B4A     		ldr	r2, .L33+28
 602 0116 9342     		cmp	r3, r2
 603 0118 05DC     		bgt	.L22
 155:rtc_smartboy.c ****             set_counter_up_down(2050 + 2);
 604              		.loc 1 155 0
 605 011a 0B48     		ldr	r0, .L33+32
 606              	.LVL71:
 607 011c FFF7FEFF 		bl	set_counter_up_down
 608              	.LVL72:
 156:rtc_smartboy.c ****             year = 2050;
 609              		.loc 1 156 0
 610 0120 054A     		ldr	r2, .L33+16
 611 0122 044B     		ldr	r3, .L33+12
 612 0124 1A80     		strh	r2, [r3]
 613              	.L22:
 157:rtc_smartboy.c ****         }
 158:rtc_smartboy.c ****     }
 159:rtc_smartboy.c **** }
 614              		.loc 1 159 0
 615              		@ sp needed
 616              	.LVL73:
 617 0126 10BD     		pop	{r4, pc}
 618              	.L34:
 619              		.align	2
 620              	.L33:
 621 0128 00000000 		.word	Date
 622 012c 00000000 		.word	day
 623 0130 00000000 		.word	.LANCHOR0
 624 0134 00000000 		.word	year
 625 0138 02080000 		.word	2050
 626 013c E5070000 		.word	2021
ARM GAS  C:\Users\Kozak\AppData\Local\Temp\ccca2Ooh.s 			page 15


 627 0140 E3070000 		.word	2019
 628 0144 E2070000 		.word	2018
 629 0148 04080000 		.word	2052
 630              		.cfi_endproc
 631              	.LFE65:
 632              		.size	set_date, .-set_date
 633              		.section	.text.get_hour,"ax",%progbits
 634              		.align	2
 635              		.global	get_hour
 636              		.code	16
 637              		.thumb_func
 638              		.type	get_hour, %function
 639              	get_hour:
 640              	.LFB66:
 160:rtc_smartboy.c **** 
 161:rtc_smartboy.c **** int8 get_hour(void) {
 641              		.loc 1 161 0
 642              		.cfi_startproc
 643              		@ args = 0, pretend = 0, frame = 0
 644              		@ frame_needed = 0, uses_anonymous_args = 0
 645              		@ link register save eliminated.
 162:rtc_smartboy.c ****     return hour;
 646              		.loc 1 162 0
 647 0000 014B     		ldr	r3, .L36
 648 0002 0020     		movs	r0, #0
 649 0004 1856     		ldrsb	r0, [r3, r0]
 163:rtc_smartboy.c **** }
 650              		.loc 1 163 0
 651              		@ sp needed
 652 0006 7047     		bx	lr
 653              	.L37:
 654              		.align	2
 655              	.L36:
 656 0008 00000000 		.word	hour
 657              		.cfi_endproc
 658              	.LFE66:
 659              		.size	get_hour, .-get_hour
 660              		.section	.text.get_minute,"ax",%progbits
 661              		.align	2
 662              		.global	get_minute
 663              		.code	16
 664              		.thumb_func
 665              		.type	get_minute, %function
 666              	get_minute:
 667              	.LFB67:
 164:rtc_smartboy.c **** 
 165:rtc_smartboy.c **** int8 get_minute(void) {
 668              		.loc 1 165 0
 669              		.cfi_startproc
 670              		@ args = 0, pretend = 0, frame = 0
 671              		@ frame_needed = 0, uses_anonymous_args = 0
 672              		@ link register save eliminated.
 166:rtc_smartboy.c ****     return minute;
 673              		.loc 1 166 0
 674 0000 014B     		ldr	r3, .L39
 675 0002 0020     		movs	r0, #0
 676 0004 1856     		ldrsb	r0, [r3, r0]
ARM GAS  C:\Users\Kozak\AppData\Local\Temp\ccca2Ooh.s 			page 16


 167:rtc_smartboy.c **** }
 677              		.loc 1 167 0
 678              		@ sp needed
 679 0006 7047     		bx	lr
 680              	.L40:
 681              		.align	2
 682              	.L39:
 683 0008 00000000 		.word	minute
 684              		.cfi_endproc
 685              	.LFE67:
 686              		.size	get_minute, .-get_minute
 687              		.section	.text.get_second,"ax",%progbits
 688              		.align	2
 689              		.global	get_second
 690              		.code	16
 691              		.thumb_func
 692              		.type	get_second, %function
 693              	get_second:
 694              	.LFB68:
 168:rtc_smartboy.c **** 
 169:rtc_smartboy.c **** int8 get_second(void) {
 695              		.loc 1 169 0
 696              		.cfi_startproc
 697              		@ args = 0, pretend = 0, frame = 0
 698              		@ frame_needed = 0, uses_anonymous_args = 0
 699              		@ link register save eliminated.
 170:rtc_smartboy.c ****     return second;
 700              		.loc 1 170 0
 701 0000 014B     		ldr	r3, .L42
 702 0002 0020     		movs	r0, #0
 703 0004 1856     		ldrsb	r0, [r3, r0]
 171:rtc_smartboy.c **** }
 704              		.loc 1 171 0
 705              		@ sp needed
 706 0006 7047     		bx	lr
 707              	.L43:
 708              		.align	2
 709              	.L42:
 710 0008 00000000 		.word	second
 711              		.cfi_endproc
 712              	.LFE68:
 713              		.size	get_second, .-get_second
 714              		.section	.text.get_day,"ax",%progbits
 715              		.align	2
 716              		.global	get_day
 717              		.code	16
 718              		.thumb_func
 719              		.type	get_day, %function
 720              	get_day:
 721              	.LFB69:
 172:rtc_smartboy.c **** 
 173:rtc_smartboy.c **** int8 get_day(void) {
 722              		.loc 1 173 0
 723              		.cfi_startproc
 724              		@ args = 0, pretend = 0, frame = 0
 725              		@ frame_needed = 0, uses_anonymous_args = 0
 726              		@ link register save eliminated.
ARM GAS  C:\Users\Kozak\AppData\Local\Temp\ccca2Ooh.s 			page 17


 174:rtc_smartboy.c ****     return day;
 727              		.loc 1 174 0
 728 0000 014B     		ldr	r3, .L45
 729 0002 0020     		movs	r0, #0
 730 0004 1856     		ldrsb	r0, [r3, r0]
 175:rtc_smartboy.c **** }
 731              		.loc 1 175 0
 732              		@ sp needed
 733 0006 7047     		bx	lr
 734              	.L46:
 735              		.align	2
 736              	.L45:
 737 0008 00000000 		.word	day
 738              		.cfi_endproc
 739              	.LFE69:
 740              		.size	get_day, .-get_day
 741              		.section	.text.get_month,"ax",%progbits
 742              		.align	2
 743              		.global	get_month
 744              		.code	16
 745              		.thumb_func
 746              		.type	get_month, %function
 747              	get_month:
 748              	.LFB70:
 176:rtc_smartboy.c **** 
 177:rtc_smartboy.c **** int8 get_month(void) {
 749              		.loc 1 177 0
 750              		.cfi_startproc
 751              		@ args = 0, pretend = 0, frame = 0
 752              		@ frame_needed = 0, uses_anonymous_args = 0
 753              		@ link register save eliminated.
 178:rtc_smartboy.c ****     return month;
 754              		.loc 1 178 0
 755 0000 014B     		ldr	r3, .L48
 756 0002 0420     		movs	r0, #4
 757 0004 1856     		ldrsb	r0, [r3, r0]
 179:rtc_smartboy.c **** }
 758              		.loc 1 179 0
 759              		@ sp needed
 760 0006 7047     		bx	lr
 761              	.L49:
 762              		.align	2
 763              	.L48:
 764 0008 00000000 		.word	.LANCHOR0
 765              		.cfi_endproc
 766              	.LFE70:
 767              		.size	get_month, .-get_month
 768              		.section	.text.get_year,"ax",%progbits
 769              		.align	2
 770              		.global	get_year
 771              		.code	16
 772              		.thumb_func
 773              		.type	get_year, %function
 774              	get_year:
 775              	.LFB71:
 180:rtc_smartboy.c **** 
 181:rtc_smartboy.c **** int16 get_year(void) {
ARM GAS  C:\Users\Kozak\AppData\Local\Temp\ccca2Ooh.s 			page 18


 776              		.loc 1 181 0
 777              		.cfi_startproc
 778              		@ args = 0, pretend = 0, frame = 0
 779              		@ frame_needed = 0, uses_anonymous_args = 0
 780              		@ link register save eliminated.
 182:rtc_smartboy.c ****     return year;
 781              		.loc 1 182 0
 782 0000 014B     		ldr	r3, .L51
 783 0002 0020     		movs	r0, #0
 784 0004 185E     		ldrsh	r0, [r3, r0]
 183:rtc_smartboy.c **** }
 785              		.loc 1 183 0
 786              		@ sp needed
 787 0006 7047     		bx	lr
 788              	.L52:
 789              		.align	2
 790              	.L51:
 791 0008 00000000 		.word	year
 792              		.cfi_endproc
 793              	.LFE71:
 794              		.size	get_year, .-get_year
 795              		.section	.text.rtc_update_time,"ax",%progbits
 796              		.align	2
 797              		.global	rtc_update_time
 798              		.code	16
 799              		.thumb_func
 800              		.type	rtc_update_time, %function
 801              	rtc_update_time:
 802              	.LFB72:
 184:rtc_smartboy.c **** 
 185:rtc_smartboy.c **** void rtc_update_time(void) {
 803              		.loc 1 185 0
 804              		.cfi_startproc
 805              		@ args = 0, pretend = 0, frame = 0
 806              		@ frame_needed = 0, uses_anonymous_args = 0
 807 0000 10B5     		push	{r4, lr}
 808              		.cfi_def_cfa_offset 8
 809              		.cfi_offset 4, -8
 810              		.cfi_offset 14, -4
 186:rtc_smartboy.c ****     timeHrMinSec = ((uint32)(Time.hour << RTC_HOURS_OFFSET) | 
 811              		.loc 1 186 0
 812 0002 074A     		ldr	r2, .L54
 813 0004 1078     		ldrb	r0, [r2]
 814 0006 0004     		lsls	r0, r0, #16
 187:rtc_smartboy.c ****                     (uint32)(Time.minute << RTC_MINUTES_OFFSET) |
 815              		.loc 1 187 0
 816 0008 5378     		ldrb	r3, [r2, #1]
 817 000a 1B02     		lsls	r3, r3, #8
 186:rtc_smartboy.c ****     timeHrMinSec = ((uint32)(Time.hour << RTC_HOURS_OFFSET) | 
 818              		.loc 1 186 0
 819 000c 1843     		orrs	r0, r3
 188:rtc_smartboy.c ****                              Time.second);
 820              		.loc 1 188 0
 821 000e 9378     		ldrb	r3, [r2, #2]
 187:rtc_smartboy.c ****                     (uint32)(Time.minute << RTC_MINUTES_OFFSET) |
 822              		.loc 1 187 0
 823 0010 1843     		orrs	r0, r3
ARM GAS  C:\Users\Kozak\AppData\Local\Temp\ccca2Ooh.s 			page 19


 186:rtc_smartboy.c ****     timeHrMinSec = ((uint32)(Time.hour << RTC_HOURS_OFFSET) | 
 824              		.loc 1 186 0
 825 0012 044B     		ldr	r3, .L54+4
 826 0014 1860     		str	r0, [r3]
 189:rtc_smartboy.c ****     RTC_SetDateAndTime(timeHrMinSec, dateMonthDayYear);    
 827              		.loc 1 189 0
 828 0016 044B     		ldr	r3, .L54+8
 829 0018 1968     		ldr	r1, [r3]
 830 001a FFF7FEFF 		bl	RTC_SetDateAndTime
 831              	.LVL74:
 190:rtc_smartboy.c **** }
 832              		.loc 1 190 0
 833              		@ sp needed
 834 001e 10BD     		pop	{r4, pc}
 835              	.L55:
 836              		.align	2
 837              	.L54:
 838 0020 00000000 		.word	Time
 839 0024 00000000 		.word	.LANCHOR1
 840 0028 00000000 		.word	.LANCHOR0
 841              		.cfi_endproc
 842              	.LFE72:
 843              		.size	rtc_update_time, .-rtc_update_time
 844              		.section	.text.rtc_update_date,"ax",%progbits
 845              		.align	2
 846              		.global	rtc_update_date
 847              		.code	16
 848              		.thumb_func
 849              		.type	rtc_update_date, %function
 850              	rtc_update_date:
 851              	.LFB73:
 191:rtc_smartboy.c **** 
 192:rtc_smartboy.c **** void rtc_update_date(void) {
 852              		.loc 1 192 0
 853              		.cfi_startproc
 854              		@ args = 0, pretend = 0, frame = 0
 855              		@ frame_needed = 0, uses_anonymous_args = 0
 856 0000 10B5     		push	{r4, lr}
 857              		.cfi_def_cfa_offset 8
 858              		.cfi_offset 4, -8
 859              		.cfi_offset 14, -4
 193:rtc_smartboy.c ****     dateMonthDayYear = ((uint32)(Date.month << RTC_MONTH_OFFSET)   |
 860              		.loc 1 193 0
 861 0002 074A     		ldr	r2, .L57
 862 0004 5178     		ldrb	r1, [r2, #1]
 863 0006 0906     		lsls	r1, r1, #24
 194:rtc_smartboy.c ****                         (uint32)(Date.day << RTC_DAY_OFFSET)       |
 864              		.loc 1 194 0
 865 0008 1378     		ldrb	r3, [r2]
 866 000a 1B04     		lsls	r3, r3, #16
 193:rtc_smartboy.c ****     dateMonthDayYear = ((uint32)(Date.month << RTC_MONTH_OFFSET)   |
 867              		.loc 1 193 0
 868 000c 1943     		orrs	r1, r3
 195:rtc_smartboy.c ****                         Date.year);
 869              		.loc 1 195 0
 870 000e 5388     		ldrh	r3, [r2, #2]
 194:rtc_smartboy.c ****                         (uint32)(Date.day << RTC_DAY_OFFSET)       |
ARM GAS  C:\Users\Kozak\AppData\Local\Temp\ccca2Ooh.s 			page 20


 871              		.loc 1 194 0
 872 0010 1943     		orrs	r1, r3
 193:rtc_smartboy.c ****     dateMonthDayYear = ((uint32)(Date.month << RTC_MONTH_OFFSET)   |
 873              		.loc 1 193 0
 874 0012 044B     		ldr	r3, .L57+4
 875 0014 1960     		str	r1, [r3]
 196:rtc_smartboy.c ****     RTC_SetDateAndTime(timeHrMinSec, dateMonthDayYear);
 876              		.loc 1 196 0
 877 0016 044B     		ldr	r3, .L57+8
 878 0018 1868     		ldr	r0, [r3]
 879 001a FFF7FEFF 		bl	RTC_SetDateAndTime
 880              	.LVL75:
 197:rtc_smartboy.c **** }
 881              		.loc 1 197 0
 882              		@ sp needed
 883 001e 10BD     		pop	{r4, pc}
 884              	.L58:
 885              		.align	2
 886              	.L57:
 887 0020 00000000 		.word	Date
 888 0024 00000000 		.word	.LANCHOR0
 889 0028 00000000 		.word	.LANCHOR1
 890              		.cfi_endproc
 891              	.LFE73:
 892              		.size	rtc_update_date, .-rtc_update_date
 893              		.section	.text.set_current_time,"ax",%progbits
 894              		.align	2
 895              		.global	set_current_time
 896              		.code	16
 897              		.thumb_func
 898              		.type	set_current_time, %function
 899              	set_current_time:
 900              	.LFB74:
 198:rtc_smartboy.c **** 
 199:rtc_smartboy.c **** void set_current_time(void) {
 901              		.loc 1 199 0
 902              		.cfi_startproc
 903              		@ args = 0, pretend = 0, frame = 0
 904              		@ frame_needed = 0, uses_anonymous_args = 0
 905              		@ link register save eliminated.
 200:rtc_smartboy.c ****     Time.hour = 0;
 906              		.loc 1 200 0
 907 0000 024B     		ldr	r3, .L60
 908 0002 0022     		movs	r2, #0
 909 0004 1A70     		strb	r2, [r3]
 201:rtc_smartboy.c ****     Time.minute = 0;
 910              		.loc 1 201 0
 911 0006 5A70     		strb	r2, [r3, #1]
 202:rtc_smartboy.c ****     Time.second = 0; 
 912              		.loc 1 202 0
 913 0008 9A70     		strb	r2, [r3, #2]
 203:rtc_smartboy.c **** }
 914              		.loc 1 203 0
 915              		@ sp needed
 916 000a 7047     		bx	lr
 917              	.L61:
 918              		.align	2
ARM GAS  C:\Users\Kozak\AppData\Local\Temp\ccca2Ooh.s 			page 21


 919              	.L60:
 920 000c 00000000 		.word	Time
 921              		.cfi_endproc
 922              	.LFE74:
 923              		.size	set_current_time, .-set_current_time
 924              		.section	.text.set_current_date,"ax",%progbits
 925              		.align	2
 926              		.global	set_current_date
 927              		.code	16
 928              		.thumb_func
 929              		.type	set_current_date, %function
 930              	set_current_date:
 931              	.LFB75:
 204:rtc_smartboy.c **** 
 205:rtc_smartboy.c **** void set_current_date(void) {
 932              		.loc 1 205 0
 933              		.cfi_startproc
 934              		@ args = 0, pretend = 0, frame = 0
 935              		@ frame_needed = 0, uses_anonymous_args = 0
 936              		@ link register save eliminated.
 206:rtc_smartboy.c ****     Date.day = 1;
 937              		.loc 1 206 0
 938 0000 034B     		ldr	r3, .L63
 939 0002 0122     		movs	r2, #1
 940 0004 1A70     		strb	r2, [r3]
 207:rtc_smartboy.c ****     Date.month = 1;
 941              		.loc 1 207 0
 942 0006 5A70     		strb	r2, [r3, #1]
 208:rtc_smartboy.c ****     Date.year = 2019;
 943              		.loc 1 208 0
 944 0008 024A     		ldr	r2, .L63+4
 945 000a 5A80     		strh	r2, [r3, #2]
 209:rtc_smartboy.c **** }...
 946              		.loc 1 209 0
 947              		@ sp needed
 948 000c 7047     		bx	lr
 949              	.L64:
 950 000e C046     		.align	2
 951              	.L63:
 952 0010 00000000 		.word	Date
 953 0014 E3070000 		.word	2019
 954              		.cfi_endproc
 955              	.LFE75:
 956              		.size	set_current_date, .-set_current_date
 957              		.comm	counter,1,1
 958              		.global	dateMonthDayYear
 959              		.global	timeHrMinSec
 960              		.comm	year,2,2
 961              		.global	month
 962              		.comm	day,1,1
 963              		.comm	second,1,1
 964              		.comm	minute,1,1
 965              		.comm	hour,1,1
 966              		.comm	Date,4,4
 967              		.comm	Time,3,4
 968              		.data
 969              		.align	2
ARM GAS  C:\Users\Kozak\AppData\Local\Temp\ccca2Ooh.s 			page 22


 970              		.set	.LANCHOR0,. + 0
 971              		.type	dateMonthDayYear, %object
 972              		.size	dateMonthDayYear, 4
 973              	dateMonthDayYear:
 974 0000 19200101 		.word	16850969
 975              		.type	month, %object
 976              		.size	month, 1
 977              	month:
 978 0004 01       		.byte	1
 979              		.bss
 980              		.align	2
 981              		.set	.LANCHOR1,. + 0
 982              		.type	timeHrMinSec, %object
 983              		.size	timeHrMinSec, 4
 984              	timeHrMinSec:
 985 0000 00000000 		.space	4
 986              		.text
 987              	.Letext0:
 988              		.file 2 "Generated_Source\\PSoC4/cytypes.h"
 989              		.file 3 "Generated_Source\\PSoC4/BLE_Stack.h"
 990              		.file 4 "Generated_Source\\PSoC4/BLE_eventHandler.h"
 991              		.file 5 "rtc_smartboy.h"
 992              		.file 6 "Generated_Source\\PSoC4/RTC.h"
 993              		.file 7 "Generated_Source\\PSoC4/CyLib.h"
 994              		.file 8 "buttons.h"