ARM GAS  C:\Users\Kozak\AppData\Local\Temp\ccWfzO50.s 			page 1


   1              		.syntax unified
   2              		.cpu cortex-m0
   3              		.fpu softvfp
   4              		.eabi_attribute 20, 1
   5              		.eabi_attribute 21, 1
   6              		.eabi_attribute 23, 3
   7              		.eabi_attribute 24, 1
   8              		.eabi_attribute 25, 1
   9              		.eabi_attribute 26, 1
  10              		.eabi_attribute 30, 1
  11              		.eabi_attribute 34, 0
  12              		.eabi_attribute 18, 4
  13              		.thumb
  14              		.syntax unified
  15              		.file	"rtc_bipboy.c"
  16              		.text
  17              	.Ltext0:
  18              		.cfi_sections	.debug_frame
  19              		.section	.text.rtc_init,"ax",%progbits
  20              		.align	2
  21              		.global	rtc_init
  22              		.code	16
  23              		.thumb_func
  24              		.type	rtc_init, %function
  25              	rtc_init:
  26              	.LFB62:
  27              		.file 1 "rtc_bipboy.c"
   1:rtc_bipboy.c  **** #include "bipboy.h"
   2:rtc_bipboy.c  **** 
   3:rtc_bipboy.c  **** struct Time Time;
   4:rtc_bipboy.c  **** struct Date Date;
   5:rtc_bipboy.c  **** 
   6:rtc_bipboy.c  **** int8 hour;
   7:rtc_bipboy.c  **** int8 minute;
   8:rtc_bipboy.c  **** int8 second;
   9:rtc_bipboy.c  **** 
  10:rtc_bipboy.c  **** int8 day;
  11:rtc_bipboy.c  **** int8 month = 1;
  12:rtc_bipboy.c  **** int16 year;
  13:rtc_bipboy.c  **** 
  14:rtc_bipboy.c  **** uint32 timeHrMinSec = TIME_HR_MIN_SEC;
  15:rtc_bipboy.c  **** uint32 dateMonthDayYear = DATE_MONTH_DAY_YEAR;
  16:rtc_bipboy.c  **** 
  17:rtc_bipboy.c  **** void rtc_init(void) {
  28              		.loc 1 17 0
  29              		.cfi_startproc
  30              		@ args = 0, pretend = 0, frame = 0
  31              		@ frame_needed = 0, uses_anonymous_args = 0
  32 0000 10B5     		push	{r4, lr}
  33              		.cfi_def_cfa_offset 8
  34              		.cfi_offset 4, -8
  35              		.cfi_offset 14, -4
  18:rtc_bipboy.c  ****     /* Starts SysTick component */
  19:rtc_bipboy.c  ****     CySysTickStart();
  36              		.loc 1 19 0
  37 0002 FFF7FEFF 		bl	CySysTickStart
  38              	.LVL0:
ARM GAS  C:\Users\Kozak\AppData\Local\Temp\ccWfzO50.s 			page 2


  20:rtc_bipboy.c  **** 
  21:rtc_bipboy.c  ****     /* Configure SysTick timer to generate interrupt every 100 ms */
  22:rtc_bipboy.c  ****     CySysTickSetReload(SYSTICK_RELOAD);
  39              		.loc 1 22 0
  40 0006 0F48     		ldr	r0, .L6
  41 0008 FFF7FEFF 		bl	CySysTickSetReload
  42              	.LVL1:
  43              	.LBB2:
  23:rtc_bipboy.c  ****     
  24:rtc_bipboy.c  ****     /* Find unused callback slot. */
  25:rtc_bipboy.c  ****     for (uint32 i = 0u; i < CY_SYS_SYST_NUM_OF_CALLBACKS; ++i) {
  44              		.loc 1 25 0
  45 000c 0024     		movs	r4, #0
  46 000e 0AE0     		b	.L2
  47              	.LVL2:
  48              	.L5:
  26:rtc_bipboy.c  ****         if (CySysTickGetCallback(i) == NULL) {
  49              		.loc 1 26 0
  50 0010 2000     		movs	r0, r4
  51 0012 FFF7FEFF 		bl	CySysTickGetCallback
  52              	.LVL3:
  53 0016 0028     		cmp	r0, #0
  54 0018 04D1     		bne	.L3
  27:rtc_bipboy.c  ****             /* Set callback */
  28:rtc_bipboy.c  ****             CySysTickSetCallback(i, SysTickIsrHandler);
  55              		.loc 1 28 0
  56 001a 0B49     		ldr	r1, .L6+4
  57 001c 2000     		movs	r0, r4
  58 001e FFF7FEFF 		bl	CySysTickSetCallback
  59              	.LVL4:
  29:rtc_bipboy.c  ****             break;
  60              		.loc 1 29 0
  61 0022 02E0     		b	.L4
  62              	.L3:
  25:rtc_bipboy.c  ****         if (CySysTickGetCallback(i) == NULL) {
  63              		.loc 1 25 0 discriminator 2
  64 0024 0134     		adds	r4, r4, #1
  65              	.LVL5:
  66              	.L2:
  25:rtc_bipboy.c  ****         if (CySysTickGetCallback(i) == NULL) {
  67              		.loc 1 25 0 is_stmt 0 discriminator 1
  68 0026 042C     		cmp	r4, #4
  69 0028 F2D9     		bls	.L5
  70              	.L4:
  71              	.LBE2:
  30:rtc_bipboy.c  ****         }
  31:rtc_bipboy.c  ****     }
  32:rtc_bipboy.c  ****     
  33:rtc_bipboy.c  ****     /* Starts RTC component */
  34:rtc_bipboy.c  ****     RTC_Start();
  72              		.loc 1 34 0 is_stmt 1
  73 002a FFF7FEFF 		bl	RTC_Start
  74              	.LVL6:
  35:rtc_bipboy.c  **** 
  36:rtc_bipboy.c  ****     /* Set Date and Time */
  37:rtc_bipboy.c  ****     RTC_SetDateAndTime(timeHrMinSec, dateMonthDayYear);
  75              		.loc 1 37 0
ARM GAS  C:\Users\Kozak\AppData\Local\Temp\ccWfzO50.s 			page 3


  76 002e 074B     		ldr	r3, .L6+8
  77 0030 1968     		ldr	r1, [r3]
  78 0032 074B     		ldr	r3, .L6+12
  79 0034 1868     		ldr	r0, [r3]
  80 0036 FFF7FEFF 		bl	RTC_SetDateAndTime
  81              	.LVL7:
  38:rtc_bipboy.c  ****     
  39:rtc_bipboy.c  ****     /* Set RTC time update period */
  40:rtc_bipboy.c  ****     RTC_SetPeriod(1u, SYSTICK_EACH_1_HZ);
  82              		.loc 1 40 0
  83 003a 0A21     		movs	r1, #10
  84 003c 0120     		movs	r0, #1
  85 003e FFF7FEFF 		bl	RTC_SetPeriod
  86              	.LVL8:
  41:rtc_bipboy.c  **** }
  87              		.loc 1 41 0
  88              		@ sp needed
  89              	.LVL9:
  90 0042 10BD     		pop	{r4, pc}
  91              	.L7:
  92              		.align	2
  93              	.L6:
  94 0044 009F2400 		.word	2400000
  95 0048 00000000 		.word	SysTickIsrHandler
  96 004c 00000000 		.word	.LANCHOR0
  97 0050 00000000 		.word	.LANCHOR1
  98              		.cfi_endproc
  99              	.LFE62:
 100              		.size	rtc_init, .-rtc_init
 101              		.section	.text.rtc_update_dynamic_screen,"ax",%progbits
 102              		.align	2
 103              		.global	rtc_update_dynamic_screen
 104              		.code	16
 105              		.thumb_func
 106              		.type	rtc_update_dynamic_screen, %function
 107              	rtc_update_dynamic_screen:
 108              	.LFB64:
  42:rtc_bipboy.c  **** 
  43:rtc_bipboy.c  **** uint8 counter;
  44:rtc_bipboy.c  **** 
  45:rtc_bipboy.c  **** CY_ISR(SysTickIsrHandler) {
  46:rtc_bipboy.c  ****     RTC_Update();
  47:rtc_bipboy.c  ****     
  48:rtc_bipboy.c  ****     rtc_update_dynamic_screen();   
  49:rtc_bipboy.c  **** }
  50:rtc_bipboy.c  **** 
  51:rtc_bipboy.c  **** void rtc_update_dynamic_screen(void) {
 109              		.loc 1 51 0
 110              		.cfi_startproc
 111              		@ args = 0, pretend = 0, frame = 0
 112              		@ frame_needed = 0, uses_anonymous_args = 0
 113 0000 10B5     		push	{r4, lr}
 114              		.cfi_def_cfa_offset 8
 115              		.cfi_offset 4, -8
 116              		.cfi_offset 14, -4
  52:rtc_bipboy.c  ****     uint8 activeScreen = get_active_screen();
 117              		.loc 1 52 0
ARM GAS  C:\Users\Kozak\AppData\Local\Temp\ccWfzO50.s 			page 4


 118 0002 FFF7FEFF 		bl	get_active_screen
 119              	.LVL10:
  53:rtc_bipboy.c  ****     
  54:rtc_bipboy.c  ****     switch(activeScreen) {
 120              		.loc 1 54 0
 121 0006 0028     		cmp	r0, #0
 122 0008 01D1     		bne	.L8
  55:rtc_bipboy.c  ****         case MAIN_SCREEN:
  56:rtc_bipboy.c  ****             lcd_main_screen();
 123              		.loc 1 56 0
 124 000a FFF7FEFF 		bl	lcd_main_screen
 125              	.LVL11:
 126              	.L8:
  57:rtc_bipboy.c  ****             break;
  58:rtc_bipboy.c  ****         
  59:rtc_bipboy.c  ****     }
  60:rtc_bipboy.c  **** }
 127              		.loc 1 60 0
 128              		@ sp needed
 129 000e 10BD     		pop	{r4, pc}
 130              		.cfi_endproc
 131              	.LFE64:
 132              		.size	rtc_update_dynamic_screen, .-rtc_update_dynamic_screen
 133              		.section	.text.SysTickIsrHandler,"ax",%progbits
 134              		.align	2
 135              		.global	SysTickIsrHandler
 136              		.code	16
 137              		.thumb_func
 138              		.type	SysTickIsrHandler, %function
 139              	SysTickIsrHandler:
 140              	.LFB63:
  45:rtc_bipboy.c  ****     RTC_Update();
 141              		.loc 1 45 0
 142              		.cfi_startproc
 143              		@ args = 0, pretend = 0, frame = 0
 144              		@ frame_needed = 0, uses_anonymous_args = 0
 145 0000 10B5     		push	{r4, lr}
 146              		.cfi_def_cfa_offset 8
 147              		.cfi_offset 4, -8
 148              		.cfi_offset 14, -4
  46:rtc_bipboy.c  ****     
 149              		.loc 1 46 0
 150 0002 FFF7FEFF 		bl	RTC_Update
 151              	.LVL12:
  48:rtc_bipboy.c  **** }
 152              		.loc 1 48 0
 153 0006 FFF7FEFF 		bl	rtc_update_dynamic_screen
 154              	.LVL13:
  49:rtc_bipboy.c  **** 
 155              		.loc 1 49 0
 156              		@ sp needed
 157 000a 10BD     		pop	{r4, pc}
 158              		.cfi_endproc
 159              	.LFE63:
 160              		.size	SysTickIsrHandler, .-SysTickIsrHandler
 161              		.section	.text.set_time,"ax",%progbits
 162              		.align	2
ARM GAS  C:\Users\Kozak\AppData\Local\Temp\ccWfzO50.s 			page 5


 163              		.global	set_time
 164              		.code	16
 165              		.thumb_func
 166              		.type	set_time, %function
 167              	set_time:
 168              	.LFB65:
  61:rtc_bipboy.c  **** 
  62:rtc_bipboy.c  **** void set_time(void) {
 169              		.loc 1 62 0
 170              		.cfi_startproc
 171              		@ args = 0, pretend = 0, frame = 0
 172              		@ frame_needed = 0, uses_anonymous_args = 0
 173 0000 10B5     		push	{r4, lr}
 174              		.cfi_def_cfa_offset 8
 175              		.cfi_offset 4, -8
 176              		.cfi_offset 14, -4
  63:rtc_bipboy.c  ****     uint8 position = get_counter_ok_back();
 177              		.loc 1 63 0
 178 0002 FFF7FEFF 		bl	get_counter_ok_back
 179              	.LVL14:
 180 0006 0400     		movs	r4, r0
 181              	.LVL15:
  64:rtc_bipboy.c  ****     uint8 offset = get_counter_up_down();
 182              		.loc 1 64 0
 183 0008 FFF7FEFF 		bl	get_counter_up_down
 184              	.LVL16:
 185 000c C0B2     		uxtb	r0, r0
 186              	.LVL17:
  65:rtc_bipboy.c  ****     
  66:rtc_bipboy.c  ****     if(position == 1 && offset == 0) {
 187              		.loc 1 66 0
 188 000e 012C     		cmp	r4, #1
 189 0010 11D1     		bne	.L13
 190              		.loc 1 66 0 is_stmt 0 discriminator 1
 191 0012 0028     		cmp	r0, #0
 192 0014 0FD1     		bne	.L13
  67:rtc_bipboy.c  ****         hour = Time.hour;
 193              		.loc 1 67 0 is_stmt 1
 194 0016 444B     		ldr	r3, .L23
 195 0018 0020     		movs	r0, #0
 196              	.LVL18:
 197 001a 1856     		ldrsb	r0, [r3, r0]
 198 001c 434A     		ldr	r2, .L23+4
 199 001e 1070     		strb	r0, [r2]
  68:rtc_bipboy.c  ****         Time.minute = minute;
 200              		.loc 1 68 0
 201 0020 434A     		ldr	r2, .L23+8
 202 0022 1278     		ldrb	r2, [r2]
 203 0024 5A70     		strb	r2, [r3, #1]
  69:rtc_bipboy.c  ****         minute = Time.minute;
  70:rtc_bipboy.c  ****         second = Time.second;
 204              		.loc 1 70 0
 205 0026 9A78     		ldrb	r2, [r3, #2]
 206 0028 424B     		ldr	r3, .L23+12
 207 002a 1A70     		strb	r2, [r3]
  71:rtc_bipboy.c  ****         set_counter_up_down(hour + 2);
 208              		.loc 1 71 0
ARM GAS  C:\Users\Kozak\AppData\Local\Temp\ccWfzO50.s 			page 6


 209 002c 0230     		adds	r0, r0, #2
 210 002e 00B2     		sxth	r0, r0
 211 0030 FFF7FEFF 		bl	set_counter_up_down
 212              	.LVL19:
 213 0034 2CE0     		b	.L14
 214              	.LVL20:
 215              	.L13:
  72:rtc_bipboy.c  ****     } else if(position == 2 && offset == 0) {
 216              		.loc 1 72 0
 217 0036 022C     		cmp	r4, #2
 218 0038 11D1     		bne	.L15
 219              		.loc 1 72 0 is_stmt 0 discriminator 1
 220 003a 0028     		cmp	r0, #0
 221 003c 0FD1     		bne	.L15
  73:rtc_bipboy.c  ****         Time.hour = hour;
 222              		.loc 1 73 0 is_stmt 1
 223 003e 3A4B     		ldr	r3, .L23
 224 0040 3A4A     		ldr	r2, .L23+4
 225 0042 1278     		ldrb	r2, [r2]
 226 0044 1A70     		strb	r2, [r3]
  74:rtc_bipboy.c  ****         minute = Time.minute;
 227              		.loc 1 74 0
 228 0046 0120     		movs	r0, #1
 229              	.LVL21:
 230 0048 1856     		ldrsb	r0, [r3, r0]
 231 004a 394A     		ldr	r2, .L23+8
 232 004c 1070     		strb	r0, [r2]
  75:rtc_bipboy.c  ****         Time.second = second;
 233              		.loc 1 75 0
 234 004e 394A     		ldr	r2, .L23+12
 235 0050 1278     		ldrb	r2, [r2]
 236 0052 9A70     		strb	r2, [r3, #2]
  76:rtc_bipboy.c  ****         set_counter_up_down(minute + 2);
 237              		.loc 1 76 0
 238 0054 0230     		adds	r0, r0, #2
 239 0056 00B2     		sxth	r0, r0
 240 0058 FFF7FEFF 		bl	set_counter_up_down
 241              	.LVL22:
 242 005c 18E0     		b	.L14
 243              	.LVL23:
 244              	.L15:
  77:rtc_bipboy.c  ****     } else if(position == 3 && offset == 0) {
 245              		.loc 1 77 0
 246 005e 032C     		cmp	r4, #3
 247 0060 0ED1     		bne	.L16
 248              		.loc 1 77 0 is_stmt 0 discriminator 1
 249 0062 0028     		cmp	r0, #0
 250 0064 0CD1     		bne	.L16
  78:rtc_bipboy.c  ****         Time.minute = minute;
 251              		.loc 1 78 0 is_stmt 1
 252 0066 304B     		ldr	r3, .L23
 253 0068 314A     		ldr	r2, .L23+8
 254 006a 1278     		ldrb	r2, [r2]
 255 006c 5A70     		strb	r2, [r3, #1]
  79:rtc_bipboy.c  ****         second = Time.second;
 256              		.loc 1 79 0
 257 006e 0220     		movs	r0, #2
ARM GAS  C:\Users\Kozak\AppData\Local\Temp\ccWfzO50.s 			page 7


 258              	.LVL24:
 259 0070 1856     		ldrsb	r0, [r3, r0]
 260 0072 304B     		ldr	r3, .L23+12
 261 0074 1870     		strb	r0, [r3]
  80:rtc_bipboy.c  ****         set_counter_up_down(second + 2);
 262              		.loc 1 80 0
 263 0076 0230     		adds	r0, r0, #2
 264 0078 00B2     		sxth	r0, r0
 265 007a FFF7FEFF 		bl	set_counter_up_down
 266              	.LVL25:
 267 007e 07E0     		b	.L14
 268              	.LVL26:
 269              	.L16:
  81:rtc_bipboy.c  ****     } else if(position == 4 && offset == 0) {
 270              		.loc 1 81 0
 271 0080 042C     		cmp	r4, #4
 272 0082 05D1     		bne	.L14
 273              		.loc 1 81 0 is_stmt 0 discriminator 1
 274 0084 0028     		cmp	r0, #0
 275 0086 03D1     		bne	.L14
  82:rtc_bipboy.c  ****         Time.second = second;
 276              		.loc 1 82 0 is_stmt 1
 277 0088 2A4B     		ldr	r3, .L23+12
 278 008a 1A78     		ldrb	r2, [r3]
 279 008c 264B     		ldr	r3, .L23
 280 008e 9A70     		strb	r2, [r3, #2]
 281              	.LVL27:
 282              	.L14:
  83:rtc_bipboy.c  **** 
  84:rtc_bipboy.c  ****     }
  85:rtc_bipboy.c  ****     
  86:rtc_bipboy.c  ****     offset = get_counter_up_down();
 283              		.loc 1 86 0
 284 0090 FFF7FEFF 		bl	get_counter_up_down
 285              	.LVL28:
 286 0094 C0B2     		uxtb	r0, r0
 287              	.LVL29:
  87:rtc_bipboy.c  ****     
  88:rtc_bipboy.c  ****     if(position == 1) {
 288              		.loc 1 88 0
 289 0096 012C     		cmp	r4, #1
 290 0098 15D1     		bne	.L17
  89:rtc_bipboy.c  ****         hour = offset - 2;
 291              		.loc 1 89 0
 292 009a 0238     		subs	r0, r0, #2
 293              	.LVL30:
 294 009c 40B2     		sxtb	r0, r0
 295              	.LVL31:
 296 009e 234B     		ldr	r3, .L23+4
 297 00a0 1870     		strb	r0, [r3]
  90:rtc_bipboy.c  ****         if(hour > 23) {
 298              		.loc 1 90 0
 299 00a2 1728     		cmp	r0, #23
 300 00a4 06DD     		ble	.L18
  91:rtc_bipboy.c  ****             set_counter_up_down(0 + 2);
 301              		.loc 1 91 0
 302 00a6 0220     		movs	r0, #2
ARM GAS  C:\Users\Kozak\AppData\Local\Temp\ccWfzO50.s 			page 8


 303 00a8 FFF7FEFF 		bl	set_counter_up_down
 304              	.LVL32:
  92:rtc_bipboy.c  ****             hour = 0;
 305              		.loc 1 92 0
 306 00ac 0022     		movs	r2, #0
 307 00ae 1F4B     		ldr	r3, .L23+4
 308 00b0 1A70     		strb	r2, [r3]
 309 00b2 37E0     		b	.L12
 310              	.L18:
  93:rtc_bipboy.c  ****         } else if(hour < 0) {
 311              		.loc 1 93 0
 312 00b4 0028     		cmp	r0, #0
 313 00b6 35DA     		bge	.L12
  94:rtc_bipboy.c  ****             set_counter_up_down(23 + 2);
 314              		.loc 1 94 0
 315 00b8 1920     		movs	r0, #25
 316 00ba FFF7FEFF 		bl	set_counter_up_down
 317              	.LVL33:
  95:rtc_bipboy.c  ****             hour = 23;
 318              		.loc 1 95 0
 319 00be 1722     		movs	r2, #23
 320 00c0 1A4B     		ldr	r3, .L23+4
 321 00c2 1A70     		strb	r2, [r3]
 322 00c4 2EE0     		b	.L12
 323              	.LVL34:
 324              	.L17:
  96:rtc_bipboy.c  ****         }
  97:rtc_bipboy.c  ****     } else if(position == 2) {
 325              		.loc 1 97 0
 326 00c6 022C     		cmp	r4, #2
 327 00c8 15D1     		bne	.L20
  98:rtc_bipboy.c  ****         minute = offset - 2;
 328              		.loc 1 98 0
 329 00ca 0238     		subs	r0, r0, #2
 330              	.LVL35:
 331 00cc 40B2     		sxtb	r0, r0
 332              	.LVL36:
 333 00ce 184B     		ldr	r3, .L23+8
 334 00d0 1870     		strb	r0, [r3]
  99:rtc_bipboy.c  ****         if(minute > 59) {
 335              		.loc 1 99 0
 336 00d2 3B28     		cmp	r0, #59
 337 00d4 06DD     		ble	.L21
 100:rtc_bipboy.c  ****             set_counter_up_down(0 + 2);
 338              		.loc 1 100 0
 339 00d6 0220     		movs	r0, #2
 340 00d8 FFF7FEFF 		bl	set_counter_up_down
 341              	.LVL37:
 101:rtc_bipboy.c  ****             minute = 0;
 342              		.loc 1 101 0
 343 00dc 0022     		movs	r2, #0
 344 00de 144B     		ldr	r3, .L23+8
 345 00e0 1A70     		strb	r2, [r3]
 346 00e2 1FE0     		b	.L12
 347              	.L21:
 102:rtc_bipboy.c  ****         } else if(minute < 0) {
 348              		.loc 1 102 0
ARM GAS  C:\Users\Kozak\AppData\Local\Temp\ccWfzO50.s 			page 9


 349 00e4 0028     		cmp	r0, #0
 350 00e6 1DDA     		bge	.L12
 103:rtc_bipboy.c  ****             set_counter_up_down(59 + 2);
 351              		.loc 1 103 0
 352 00e8 3D20     		movs	r0, #61
 353 00ea FFF7FEFF 		bl	set_counter_up_down
 354              	.LVL38:
 104:rtc_bipboy.c  ****             minute = 59;
 355              		.loc 1 104 0
 356 00ee 3B22     		movs	r2, #59
 357 00f0 0F4B     		ldr	r3, .L23+8
 358 00f2 1A70     		strb	r2, [r3]
 359 00f4 16E0     		b	.L12
 360              	.LVL39:
 361              	.L20:
 105:rtc_bipboy.c  ****         }
 106:rtc_bipboy.c  ****     } else if(position == 3) {
 362              		.loc 1 106 0
 363 00f6 032C     		cmp	r4, #3
 364 00f8 14D1     		bne	.L12
 107:rtc_bipboy.c  ****         second = offset - 2;
 365              		.loc 1 107 0
 366 00fa 0238     		subs	r0, r0, #2
 367              	.LVL40:
 368 00fc 40B2     		sxtb	r0, r0
 369              	.LVL41:
 370 00fe 0D4B     		ldr	r3, .L23+12
 371 0100 1870     		strb	r0, [r3]
 108:rtc_bipboy.c  ****         if(second > 59) {
 372              		.loc 1 108 0
 373 0102 3B28     		cmp	r0, #59
 374 0104 06DD     		ble	.L22
 109:rtc_bipboy.c  ****             set_counter_up_down(0 + 2);
 375              		.loc 1 109 0
 376 0106 0220     		movs	r0, #2
 377 0108 FFF7FEFF 		bl	set_counter_up_down
 378              	.LVL42:
 110:rtc_bipboy.c  ****             second = 0;
 379              		.loc 1 110 0
 380 010c 0022     		movs	r2, #0
 381 010e 094B     		ldr	r3, .L23+12
 382 0110 1A70     		strb	r2, [r3]
 383 0112 07E0     		b	.L12
 384              	.L22:
 111:rtc_bipboy.c  ****         } else if(second < 0) {
 385              		.loc 1 111 0
 386 0114 0028     		cmp	r0, #0
 387 0116 05DA     		bge	.L12
 112:rtc_bipboy.c  ****             set_counter_up_down(59 + 2);
 388              		.loc 1 112 0
 389 0118 3D20     		movs	r0, #61
 390 011a FFF7FEFF 		bl	set_counter_up_down
 391              	.LVL43:
 113:rtc_bipboy.c  ****             second = 59;
 392              		.loc 1 113 0
 393 011e 3B22     		movs	r2, #59
 394 0120 044B     		ldr	r3, .L23+12
ARM GAS  C:\Users\Kozak\AppData\Local\Temp\ccWfzO50.s 			page 10


 395 0122 1A70     		strb	r2, [r3]
 396              	.L12:
 114:rtc_bipboy.c  ****         }
 115:rtc_bipboy.c  ****     }
 116:rtc_bipboy.c  **** }
 397              		.loc 1 116 0
 398              		@ sp needed
 399              	.LVL44:
 400 0124 10BD     		pop	{r4, pc}
 401              	.L24:
 402 0126 C046     		.align	2
 403              	.L23:
 404 0128 00000000 		.word	Time
 405 012c 00000000 		.word	hour
 406 0130 00000000 		.word	minute
 407 0134 00000000 		.word	second
 408              		.cfi_endproc
 409              	.LFE65:
 410              		.size	set_time, .-set_time
 411              		.section	.text.set_date,"ax",%progbits
 412              		.align	2
 413              		.global	set_date
 414              		.code	16
 415              		.thumb_func
 416              		.type	set_date, %function
 417              	set_date:
 418              	.LFB66:
 117:rtc_bipboy.c  **** 
 118:rtc_bipboy.c  **** void set_date(void) {
 419              		.loc 1 118 0
 420              		.cfi_startproc
 421              		@ args = 0, pretend = 0, frame = 0
 422              		@ frame_needed = 0, uses_anonymous_args = 0
 423 0000 10B5     		push	{r4, lr}
 424              		.cfi_def_cfa_offset 8
 425              		.cfi_offset 4, -8
 426              		.cfi_offset 14, -4
 119:rtc_bipboy.c  ****     uint8 position = get_counter_ok_back();
 427              		.loc 1 119 0
 428 0002 FFF7FEFF 		bl	get_counter_ok_back
 429              	.LVL45:
 430 0006 0400     		movs	r4, r0
 431              	.LVL46:
 120:rtc_bipboy.c  ****     uint16 offset = get_counter_up_down();
 432              		.loc 1 120 0
 433 0008 FFF7FEFF 		bl	get_counter_up_down
 434              	.LVL47:
 435 000c 80B2     		uxth	r0, r0
 436              	.LVL48:
 121:rtc_bipboy.c  ****     
 122:rtc_bipboy.c  ****     if(position == 1 && offset == 0) {
 437              		.loc 1 122 0
 438 000e 012C     		cmp	r4, #1
 439 0010 11D1     		bne	.L26
 440              		.loc 1 122 0 is_stmt 0 discriminator 1
 441 0012 0028     		cmp	r0, #0
 442 0014 0FD1     		bne	.L26
ARM GAS  C:\Users\Kozak\AppData\Local\Temp\ccWfzO50.s 			page 11


 123:rtc_bipboy.c  ****         day = Date.day;
 443              		.loc 1 123 0 is_stmt 1
 444 0016 444B     		ldr	r3, .L36
 445 0018 0020     		movs	r0, #0
 446              	.LVL49:
 447 001a 1856     		ldrsb	r0, [r3, r0]
 448 001c 434A     		ldr	r2, .L36+4
 449 001e 1070     		strb	r0, [r2]
 124:rtc_bipboy.c  ****         Date.month = month;
 450              		.loc 1 124 0
 451 0020 434A     		ldr	r2, .L36+8
 452 0022 1279     		ldrb	r2, [r2, #4]
 453 0024 5A70     		strb	r2, [r3, #1]
 125:rtc_bipboy.c  ****         month = Date.month;
 126:rtc_bipboy.c  ****         year = Date.year;
 454              		.loc 1 126 0
 455 0026 5A88     		ldrh	r2, [r3, #2]
 456 0028 424B     		ldr	r3, .L36+12
 457 002a 1A80     		strh	r2, [r3]
 127:rtc_bipboy.c  ****         set_counter_up_down(day + 2);
 458              		.loc 1 127 0
 459 002c 0230     		adds	r0, r0, #2
 460 002e 00B2     		sxth	r0, r0
 461 0030 FFF7FEFF 		bl	set_counter_up_down
 462              	.LVL50:
 463 0034 2BE0     		b	.L27
 464              	.LVL51:
 465              	.L26:
 128:rtc_bipboy.c  ****     } else if(position == 2 && offset == 0) {
 466              		.loc 1 128 0
 467 0036 022C     		cmp	r4, #2
 468 0038 11D1     		bne	.L28
 469              		.loc 1 128 0 is_stmt 0 discriminator 1
 470 003a 0028     		cmp	r0, #0
 471 003c 0FD1     		bne	.L28
 129:rtc_bipboy.c  ****         Date.day = day;
 472              		.loc 1 129 0 is_stmt 1
 473 003e 3A4B     		ldr	r3, .L36
 474 0040 3A4A     		ldr	r2, .L36+4
 475 0042 1278     		ldrb	r2, [r2]
 476 0044 1A70     		strb	r2, [r3]
 130:rtc_bipboy.c  ****         month = Date.month;
 477              		.loc 1 130 0
 478 0046 0120     		movs	r0, #1
 479              	.LVL52:
 480 0048 1856     		ldrsb	r0, [r3, r0]
 481 004a 394A     		ldr	r2, .L36+8
 482 004c 1071     		strb	r0, [r2, #4]
 131:rtc_bipboy.c  ****         Date.year = year;
 483              		.loc 1 131 0
 484 004e 394A     		ldr	r2, .L36+12
 485 0050 1288     		ldrh	r2, [r2]
 486 0052 5A80     		strh	r2, [r3, #2]
 132:rtc_bipboy.c  ****         set_counter_up_down(month + 2);
 487              		.loc 1 132 0
 488 0054 0230     		adds	r0, r0, #2
 489 0056 00B2     		sxth	r0, r0
ARM GAS  C:\Users\Kozak\AppData\Local\Temp\ccWfzO50.s 			page 12


 490 0058 FFF7FEFF 		bl	set_counter_up_down
 491              	.LVL53:
 492 005c 17E0     		b	.L27
 493              	.LVL54:
 494              	.L28:
 133:rtc_bipboy.c  ****     } else if(position == 3 && offset == 0) {
 495              		.loc 1 133 0
 496 005e 032C     		cmp	r4, #3
 497 0060 0DD1     		bne	.L29
 498              		.loc 1 133 0 is_stmt 0 discriminator 1
 499 0062 0028     		cmp	r0, #0
 500 0064 0BD1     		bne	.L29
 134:rtc_bipboy.c  ****         Date.month = month;
 501              		.loc 1 134 0 is_stmt 1
 502 0066 304B     		ldr	r3, .L36
 503 0068 314A     		ldr	r2, .L36+8
 504 006a 1279     		ldrb	r2, [r2, #4]
 505 006c 5A70     		strb	r2, [r3, #1]
 135:rtc_bipboy.c  ****         year = Date.year;
 506              		.loc 1 135 0
 507 006e 5888     		ldrh	r0, [r3, #2]
 508              	.LVL55:
 509 0070 304B     		ldr	r3, .L36+12
 510 0072 1880     		strh	r0, [r3]
 136:rtc_bipboy.c  ****         set_counter_up_down(year + 2);
 511              		.loc 1 136 0
 512 0074 0230     		adds	r0, r0, #2
 513 0076 00B2     		sxth	r0, r0
 514 0078 FFF7FEFF 		bl	set_counter_up_down
 515              	.LVL56:
 516 007c 07E0     		b	.L27
 517              	.LVL57:
 518              	.L29:
 137:rtc_bipboy.c  ****     } else if(position == 4 && offset == 0) {
 519              		.loc 1 137 0
 520 007e 042C     		cmp	r4, #4
 521 0080 05D1     		bne	.L27
 522              		.loc 1 137 0 is_stmt 0 discriminator 1
 523 0082 0028     		cmp	r0, #0
 524 0084 03D1     		bne	.L27
 138:rtc_bipboy.c  ****         Date.year = year;
 525              		.loc 1 138 0 is_stmt 1
 526 0086 2B4B     		ldr	r3, .L36+12
 527 0088 1A88     		ldrh	r2, [r3]
 528 008a 274B     		ldr	r3, .L36
 529 008c 5A80     		strh	r2, [r3, #2]
 530              	.LVL58:
 531              	.L27:
 139:rtc_bipboy.c  **** 
 140:rtc_bipboy.c  ****     }
 141:rtc_bipboy.c  ****     
 142:rtc_bipboy.c  ****     offset = get_counter_up_down();
 532              		.loc 1 142 0
 533 008e FFF7FEFF 		bl	get_counter_up_down
 534              	.LVL59:
 535 0092 83B2     		uxth	r3, r0
 536              	.LVL60:
ARM GAS  C:\Users\Kozak\AppData\Local\Temp\ccWfzO50.s 			page 13


 143:rtc_bipboy.c  ****     
 144:rtc_bipboy.c  ****     if(position == 1) {
 537              		.loc 1 144 0
 538 0094 012C     		cmp	r4, #1
 539 0096 15D1     		bne	.L30
 145:rtc_bipboy.c  ****         day = offset - 2;
 540              		.loc 1 145 0
 541 0098 0238     		subs	r0, r0, #2
 542 009a 40B2     		sxtb	r0, r0
 543 009c 234B     		ldr	r3, .L36+4
 544              	.LVL61:
 545 009e 1870     		strb	r0, [r3]
 146:rtc_bipboy.c  ****         if(day > 31) {
 546              		.loc 1 146 0
 547 00a0 1F28     		cmp	r0, #31
 548 00a2 06DD     		ble	.L31
 147:rtc_bipboy.c  ****             set_counter_up_down(1 + 2);
 549              		.loc 1 147 0
 550 00a4 0320     		movs	r0, #3
 551 00a6 FFF7FEFF 		bl	set_counter_up_down
 552              	.LVL62:
 148:rtc_bipboy.c  ****             day = 1;
 553              		.loc 1 148 0
 554 00aa 0122     		movs	r2, #1
 555 00ac 1F4B     		ldr	r3, .L36+4
 556 00ae 1A70     		strb	r2, [r3]
 557 00b0 39E0     		b	.L25
 558              	.L31:
 149:rtc_bipboy.c  ****         } else if(day < 1) {
 559              		.loc 1 149 0
 560 00b2 0028     		cmp	r0, #0
 561 00b4 37DC     		bgt	.L25
 150:rtc_bipboy.c  ****             set_counter_up_down(31 + 2);
 562              		.loc 1 150 0
 563 00b6 2120     		movs	r0, #33
 564 00b8 FFF7FEFF 		bl	set_counter_up_down
 565              	.LVL63:
 151:rtc_bipboy.c  ****             day = 31;
 566              		.loc 1 151 0
 567 00bc 1F22     		movs	r2, #31
 568 00be 1B4B     		ldr	r3, .L36+4
 569 00c0 1A70     		strb	r2, [r3]
 570 00c2 30E0     		b	.L25
 571              	.LVL64:
 572              	.L30:
 152:rtc_bipboy.c  ****         }
 153:rtc_bipboy.c  ****     } else if(position == 2) {
 573              		.loc 1 153 0
 574 00c4 022C     		cmp	r4, #2
 575 00c6 15D1     		bne	.L33
 154:rtc_bipboy.c  ****         month = offset - 2;
 576              		.loc 1 154 0
 577 00c8 0238     		subs	r0, r0, #2
 578 00ca 40B2     		sxtb	r0, r0
 579 00cc 184B     		ldr	r3, .L36+8
 580              	.LVL65:
 581 00ce 1871     		strb	r0, [r3, #4]
ARM GAS  C:\Users\Kozak\AppData\Local\Temp\ccWfzO50.s 			page 14


 155:rtc_bipboy.c  ****         if(month > 12) {
 582              		.loc 1 155 0
 583 00d0 0C28     		cmp	r0, #12
 584 00d2 06DD     		ble	.L34
 156:rtc_bipboy.c  ****             set_counter_up_down(1 + 2);
 585              		.loc 1 156 0
 586 00d4 0320     		movs	r0, #3
 587 00d6 FFF7FEFF 		bl	set_counter_up_down
 588              	.LVL66:
 157:rtc_bipboy.c  ****             month = 1;
 589              		.loc 1 157 0
 590 00da 0122     		movs	r2, #1
 591 00dc 144B     		ldr	r3, .L36+8
 592 00de 1A71     		strb	r2, [r3, #4]
 593 00e0 21E0     		b	.L25
 594              	.L34:
 158:rtc_bipboy.c  ****         } else if(month < 1) {
 595              		.loc 1 158 0
 596 00e2 0028     		cmp	r0, #0
 597 00e4 1FDC     		bgt	.L25
 159:rtc_bipboy.c  ****             set_counter_up_down(12 + 2);
 598              		.loc 1 159 0
 599 00e6 0E20     		movs	r0, #14
 600 00e8 FFF7FEFF 		bl	set_counter_up_down
 601              	.LVL67:
 160:rtc_bipboy.c  ****             month = 12;
 602              		.loc 1 160 0
 603 00ec 0C22     		movs	r2, #12
 604 00ee 104B     		ldr	r3, .L36+8
 605 00f0 1A71     		strb	r2, [r3, #4]
 606 00f2 18E0     		b	.L25
 607              	.LVL68:
 608              	.L33:
 161:rtc_bipboy.c  ****         }
 162:rtc_bipboy.c  ****     } else if(position == 3) {
 609              		.loc 1 162 0
 610 00f4 032C     		cmp	r4, #3
 611 00f6 16D1     		bne	.L25
 163:rtc_bipboy.c  ****         year = offset - 2;
 612              		.loc 1 163 0
 613 00f8 023B     		subs	r3, r3, #2
 614              	.LVL69:
 615 00fa 1BB2     		sxth	r3, r3
 616              	.LVL70:
 617 00fc 0D4A     		ldr	r2, .L36+12
 618 00fe 1380     		strh	r3, [r2]
 164:rtc_bipboy.c  ****         if(year > 2050) {
 619              		.loc 1 164 0
 620 0100 0D4A     		ldr	r2, .L36+16
 621 0102 9342     		cmp	r3, r2
 622 0104 06DD     		ble	.L35
 165:rtc_bipboy.c  ****             set_counter_up_down(2019 + 2);
 623              		.loc 1 165 0
 624 0106 0D48     		ldr	r0, .L36+20
 625              	.LVL71:
 626 0108 FFF7FEFF 		bl	set_counter_up_down
 627              	.LVL72:
ARM GAS  C:\Users\Kozak\AppData\Local\Temp\ccWfzO50.s 			page 15


 166:rtc_bipboy.c  ****             year = 2019;
 628              		.loc 1 166 0
 629 010c 0C4A     		ldr	r2, .L36+24
 630 010e 094B     		ldr	r3, .L36+12
 631 0110 1A80     		strh	r2, [r3]
 632 0112 08E0     		b	.L25
 633              	.LVL73:
 634              	.L35:
 167:rtc_bipboy.c  ****         } else if(year < 2019) {
 635              		.loc 1 167 0
 636 0114 0B4A     		ldr	r2, .L36+28
 637 0116 9342     		cmp	r3, r2
 638 0118 05DC     		bgt	.L25
 168:rtc_bipboy.c  ****             set_counter_up_down(2050 + 2);
 639              		.loc 1 168 0
 640 011a 0B48     		ldr	r0, .L36+32
 641              	.LVL74:
 642 011c FFF7FEFF 		bl	set_counter_up_down
 643              	.LVL75:
 169:rtc_bipboy.c  ****             year = 2050;
 644              		.loc 1 169 0
 645 0120 054A     		ldr	r2, .L36+16
 646 0122 044B     		ldr	r3, .L36+12
 647 0124 1A80     		strh	r2, [r3]
 648              	.L25:
 170:rtc_bipboy.c  ****         }
 171:rtc_bipboy.c  ****     }
 172:rtc_bipboy.c  **** }
 649              		.loc 1 172 0
 650              		@ sp needed
 651              	.LVL76:
 652 0126 10BD     		pop	{r4, pc}
 653              	.L37:
 654              		.align	2
 655              	.L36:
 656 0128 00000000 		.word	Date
 657 012c 00000000 		.word	day
 658 0130 00000000 		.word	.LANCHOR0
 659 0134 00000000 		.word	year
 660 0138 02080000 		.word	2050
 661 013c E5070000 		.word	2021
 662 0140 E3070000 		.word	2019
 663 0144 E2070000 		.word	2018
 664 0148 04080000 		.word	2052
 665              		.cfi_endproc
 666              	.LFE66:
 667              		.size	set_date, .-set_date
 668              		.section	.text.get_hour,"ax",%progbits
 669              		.align	2
 670              		.global	get_hour
 671              		.code	16
 672              		.thumb_func
 673              		.type	get_hour, %function
 674              	get_hour:
 675              	.LFB67:
 173:rtc_bipboy.c  **** 
 174:rtc_bipboy.c  **** int8 get_hour(void) {
ARM GAS  C:\Users\Kozak\AppData\Local\Temp\ccWfzO50.s 			page 16


 676              		.loc 1 174 0
 677              		.cfi_startproc
 678              		@ args = 0, pretend = 0, frame = 0
 679              		@ frame_needed = 0, uses_anonymous_args = 0
 680              		@ link register save eliminated.
 175:rtc_bipboy.c  ****     return hour;
 681              		.loc 1 175 0
 682 0000 014B     		ldr	r3, .L39
 683 0002 0020     		movs	r0, #0
 684 0004 1856     		ldrsb	r0, [r3, r0]
 176:rtc_bipboy.c  **** }
 685              		.loc 1 176 0
 686              		@ sp needed
 687 0006 7047     		bx	lr
 688              	.L40:
 689              		.align	2
 690              	.L39:
 691 0008 00000000 		.word	hour
 692              		.cfi_endproc
 693              	.LFE67:
 694              		.size	get_hour, .-get_hour
 695              		.section	.text.get_minute,"ax",%progbits
 696              		.align	2
 697              		.global	get_minute
 698              		.code	16
 699              		.thumb_func
 700              		.type	get_minute, %function
 701              	get_minute:
 702              	.LFB68:
 177:rtc_bipboy.c  **** 
 178:rtc_bipboy.c  **** int8 get_minute(void) {
 703              		.loc 1 178 0
 704              		.cfi_startproc
 705              		@ args = 0, pretend = 0, frame = 0
 706              		@ frame_needed = 0, uses_anonymous_args = 0
 707              		@ link register save eliminated.
 179:rtc_bipboy.c  ****     return minute;
 708              		.loc 1 179 0
 709 0000 014B     		ldr	r3, .L42
 710 0002 0020     		movs	r0, #0
 711 0004 1856     		ldrsb	r0, [r3, r0]
 180:rtc_bipboy.c  **** }
 712              		.loc 1 180 0
 713              		@ sp needed
 714 0006 7047     		bx	lr
 715              	.L43:
 716              		.align	2
 717              	.L42:
 718 0008 00000000 		.word	minute
 719              		.cfi_endproc
 720              	.LFE68:
 721              		.size	get_minute, .-get_minute
 722              		.section	.text.get_second,"ax",%progbits
 723              		.align	2
 724              		.global	get_second
 725              		.code	16
 726              		.thumb_func
ARM GAS  C:\Users\Kozak\AppData\Local\Temp\ccWfzO50.s 			page 17


 727              		.type	get_second, %function
 728              	get_second:
 729              	.LFB69:
 181:rtc_bipboy.c  **** 
 182:rtc_bipboy.c  **** int8 get_second(void) {
 730              		.loc 1 182 0
 731              		.cfi_startproc
 732              		@ args = 0, pretend = 0, frame = 0
 733              		@ frame_needed = 0, uses_anonymous_args = 0
 734              		@ link register save eliminated.
 183:rtc_bipboy.c  ****     return second;
 735              		.loc 1 183 0
 736 0000 014B     		ldr	r3, .L45
 737 0002 0020     		movs	r0, #0
 738 0004 1856     		ldrsb	r0, [r3, r0]
 184:rtc_bipboy.c  **** }
 739              		.loc 1 184 0
 740              		@ sp needed
 741 0006 7047     		bx	lr
 742              	.L46:
 743              		.align	2
 744              	.L45:
 745 0008 00000000 		.word	second
 746              		.cfi_endproc
 747              	.LFE69:
 748              		.size	get_second, .-get_second
 749              		.section	.text.get_day,"ax",%progbits
 750              		.align	2
 751              		.global	get_day
 752              		.code	16
 753              		.thumb_func
 754              		.type	get_day, %function
 755              	get_day:
 756              	.LFB70:
 185:rtc_bipboy.c  **** 
 186:rtc_bipboy.c  **** int8 get_day(void) {
 757              		.loc 1 186 0
 758              		.cfi_startproc
 759              		@ args = 0, pretend = 0, frame = 0
 760              		@ frame_needed = 0, uses_anonymous_args = 0
 761              		@ link register save eliminated.
 187:rtc_bipboy.c  ****     return day;
 762              		.loc 1 187 0
 763 0000 014B     		ldr	r3, .L48
 764 0002 0020     		movs	r0, #0
 765 0004 1856     		ldrsb	r0, [r3, r0]
 188:rtc_bipboy.c  **** }
 766              		.loc 1 188 0
 767              		@ sp needed
 768 0006 7047     		bx	lr
 769              	.L49:
 770              		.align	2
 771              	.L48:
 772 0008 00000000 		.word	day
 773              		.cfi_endproc
 774              	.LFE70:
 775              		.size	get_day, .-get_day
ARM GAS  C:\Users\Kozak\AppData\Local\Temp\ccWfzO50.s 			page 18


 776              		.section	.text.get_month,"ax",%progbits
 777              		.align	2
 778              		.global	get_month
 779              		.code	16
 780              		.thumb_func
 781              		.type	get_month, %function
 782              	get_month:
 783              	.LFB71:
 189:rtc_bipboy.c  **** 
 190:rtc_bipboy.c  **** int8 get_month(void) {
 784              		.loc 1 190 0
 785              		.cfi_startproc
 786              		@ args = 0, pretend = 0, frame = 0
 787              		@ frame_needed = 0, uses_anonymous_args = 0
 788              		@ link register save eliminated.
 191:rtc_bipboy.c  ****     return month;
 789              		.loc 1 191 0
 790 0000 014B     		ldr	r3, .L51
 791 0002 0420     		movs	r0, #4
 792 0004 1856     		ldrsb	r0, [r3, r0]
 192:rtc_bipboy.c  **** }
 793              		.loc 1 192 0
 794              		@ sp needed
 795 0006 7047     		bx	lr
 796              	.L52:
 797              		.align	2
 798              	.L51:
 799 0008 00000000 		.word	.LANCHOR0
 800              		.cfi_endproc
 801              	.LFE71:
 802              		.size	get_month, .-get_month
 803              		.section	.text.get_year,"ax",%progbits
 804              		.align	2
 805              		.global	get_year
 806              		.code	16
 807              		.thumb_func
 808              		.type	get_year, %function
 809              	get_year:
 810              	.LFB72:
 193:rtc_bipboy.c  **** 
 194:rtc_bipboy.c  **** int16 get_year(void) {
 811              		.loc 1 194 0
 812              		.cfi_startproc
 813              		@ args = 0, pretend = 0, frame = 0
 814              		@ frame_needed = 0, uses_anonymous_args = 0
 815              		@ link register save eliminated.
 195:rtc_bipboy.c  ****     return year;
 816              		.loc 1 195 0
 817 0000 014B     		ldr	r3, .L54
 818 0002 0020     		movs	r0, #0
 819 0004 185E     		ldrsh	r0, [r3, r0]
 196:rtc_bipboy.c  **** }
 820              		.loc 1 196 0
 821              		@ sp needed
 822 0006 7047     		bx	lr
 823              	.L55:
 824              		.align	2
ARM GAS  C:\Users\Kozak\AppData\Local\Temp\ccWfzO50.s 			page 19


 825              	.L54:
 826 0008 00000000 		.word	year
 827              		.cfi_endproc
 828              	.LFE72:
 829              		.size	get_year, .-get_year
 830              		.section	.text.rtc_update_time,"ax",%progbits
 831              		.align	2
 832              		.global	rtc_update_time
 833              		.code	16
 834              		.thumb_func
 835              		.type	rtc_update_time, %function
 836              	rtc_update_time:
 837              	.LFB73:
 197:rtc_bipboy.c  **** 
 198:rtc_bipboy.c  **** void rtc_update_time(void) {
 838              		.loc 1 198 0
 839              		.cfi_startproc
 840              		@ args = 0, pretend = 0, frame = 0
 841              		@ frame_needed = 0, uses_anonymous_args = 0
 842 0000 10B5     		push	{r4, lr}
 843              		.cfi_def_cfa_offset 8
 844              		.cfi_offset 4, -8
 845              		.cfi_offset 14, -4
 199:rtc_bipboy.c  ****     timeHrMinSec = ((uint32)(Time.hour << RTC_HOURS_OFFSET) | 
 846              		.loc 1 199 0
 847 0002 074A     		ldr	r2, .L57
 848 0004 1078     		ldrb	r0, [r2]
 849 0006 0004     		lsls	r0, r0, #16
 200:rtc_bipboy.c  ****                     (uint32)(Time.minute << RTC_MINUTES_OFFSET) |
 850              		.loc 1 200 0
 851 0008 5378     		ldrb	r3, [r2, #1]
 852 000a 1B02     		lsls	r3, r3, #8
 199:rtc_bipboy.c  ****     timeHrMinSec = ((uint32)(Time.hour << RTC_HOURS_OFFSET) | 
 853              		.loc 1 199 0
 854 000c 1843     		orrs	r0, r3
 201:rtc_bipboy.c  ****                              Time.second);
 855              		.loc 1 201 0
 856 000e 9378     		ldrb	r3, [r2, #2]
 200:rtc_bipboy.c  ****                     (uint32)(Time.minute << RTC_MINUTES_OFFSET) |
 857              		.loc 1 200 0
 858 0010 1843     		orrs	r0, r3
 199:rtc_bipboy.c  ****     timeHrMinSec = ((uint32)(Time.hour << RTC_HOURS_OFFSET) | 
 859              		.loc 1 199 0
 860 0012 044B     		ldr	r3, .L57+4
 861 0014 1860     		str	r0, [r3]
 202:rtc_bipboy.c  ****     RTC_SetDateAndTime(timeHrMinSec, dateMonthDayYear);    
 862              		.loc 1 202 0
 863 0016 044B     		ldr	r3, .L57+8
 864 0018 1968     		ldr	r1, [r3]
 865 001a FFF7FEFF 		bl	RTC_SetDateAndTime
 866              	.LVL77:
 203:rtc_bipboy.c  **** }
 867              		.loc 1 203 0
 868              		@ sp needed
 869 001e 10BD     		pop	{r4, pc}
 870              	.L58:
 871              		.align	2
ARM GAS  C:\Users\Kozak\AppData\Local\Temp\ccWfzO50.s 			page 20


 872              	.L57:
 873 0020 00000000 		.word	Time
 874 0024 00000000 		.word	.LANCHOR1
 875 0028 00000000 		.word	.LANCHOR0
 876              		.cfi_endproc
 877              	.LFE73:
 878              		.size	rtc_update_time, .-rtc_update_time
 879              		.section	.text.rtc_update_date,"ax",%progbits
 880              		.align	2
 881              		.global	rtc_update_date
 882              		.code	16
 883              		.thumb_func
 884              		.type	rtc_update_date, %function
 885              	rtc_update_date:
 886              	.LFB74:
 204:rtc_bipboy.c  **** 
 205:rtc_bipboy.c  **** void rtc_update_date(void) {
 887              		.loc 1 205 0
 888              		.cfi_startproc
 889              		@ args = 0, pretend = 0, frame = 0
 890              		@ frame_needed = 0, uses_anonymous_args = 0
 891 0000 10B5     		push	{r4, lr}
 892              		.cfi_def_cfa_offset 8
 893              		.cfi_offset 4, -8
 894              		.cfi_offset 14, -4
 206:rtc_bipboy.c  ****     dateMonthDayYear = ((uint32)(Date.month << RTC_MONTH_OFFSET)   |
 895              		.loc 1 206 0
 896 0002 074A     		ldr	r2, .L60
 897 0004 5178     		ldrb	r1, [r2, #1]
 898 0006 0906     		lsls	r1, r1, #24
 207:rtc_bipboy.c  ****                         (uint32)(Date.day << RTC_DAY_OFFSET)       |
 899              		.loc 1 207 0
 900 0008 1378     		ldrb	r3, [r2]
 901 000a 1B04     		lsls	r3, r3, #16
 206:rtc_bipboy.c  ****     dateMonthDayYear = ((uint32)(Date.month << RTC_MONTH_OFFSET)   |
 902              		.loc 1 206 0
 903 000c 1943     		orrs	r1, r3
 208:rtc_bipboy.c  ****                         Date.year);
 904              		.loc 1 208 0
 905 000e 5388     		ldrh	r3, [r2, #2]
 207:rtc_bipboy.c  ****                         (uint32)(Date.day << RTC_DAY_OFFSET)       |
 906              		.loc 1 207 0
 907 0010 1943     		orrs	r1, r3
 206:rtc_bipboy.c  ****     dateMonthDayYear = ((uint32)(Date.month << RTC_MONTH_OFFSET)   |
 908              		.loc 1 206 0
 909 0012 044B     		ldr	r3, .L60+4
 910 0014 1960     		str	r1, [r3]
 209:rtc_bipboy.c  ****     RTC_SetDateAndTime(timeHrMinSec, dateMonthDayYear);
 911              		.loc 1 209 0
 912 0016 044B     		ldr	r3, .L60+8
 913 0018 1868     		ldr	r0, [r3]
 914 001a FFF7FEFF 		bl	RTC_SetDateAndTime
 915              	.LVL78:
 210:rtc_bipboy.c  **** }
 916              		.loc 1 210 0
 917              		@ sp needed
 918 001e 10BD     		pop	{r4, pc}
ARM GAS  C:\Users\Kozak\AppData\Local\Temp\ccWfzO50.s 			page 21


 919              	.L61:
 920              		.align	2
 921              	.L60:
 922 0020 00000000 		.word	Date
 923 0024 00000000 		.word	.LANCHOR0
 924 0028 00000000 		.word	.LANCHOR1
 925              		.cfi_endproc
 926              	.LFE74:
 927              		.size	rtc_update_date, .-rtc_update_date
 928              		.section	.text.set_current_time,"ax",%progbits
 929              		.align	2
 930              		.global	set_current_time
 931              		.code	16
 932              		.thumb_func
 933              		.type	set_current_time, %function
 934              	set_current_time:
 935              	.LFB75:
 211:rtc_bipboy.c  **** 
 212:rtc_bipboy.c  **** void set_current_time(void) {
 936              		.loc 1 212 0
 937              		.cfi_startproc
 938              		@ args = 0, pretend = 0, frame = 0
 939              		@ frame_needed = 0, uses_anonymous_args = 0
 940              		@ link register save eliminated.
 213:rtc_bipboy.c  ****     Time.hour = 0;
 941              		.loc 1 213 0
 942 0000 024B     		ldr	r3, .L63
 943 0002 0022     		movs	r2, #0
 944 0004 1A70     		strb	r2, [r3]
 214:rtc_bipboy.c  ****     Time.minute = 0;
 945              		.loc 1 214 0
 946 0006 5A70     		strb	r2, [r3, #1]
 215:rtc_bipboy.c  ****     Time.second = 0; 
 947              		.loc 1 215 0
 948 0008 9A70     		strb	r2, [r3, #2]
 216:rtc_bipboy.c  **** }
 949              		.loc 1 216 0
 950              		@ sp needed
 951 000a 7047     		bx	lr
 952              	.L64:
 953              		.align	2
 954              	.L63:
 955 000c 00000000 		.word	Time
 956              		.cfi_endproc
 957              	.LFE75:
 958              		.size	set_current_time, .-set_current_time
 959              		.section	.text.set_current_date,"ax",%progbits
 960              		.align	2
 961              		.global	set_current_date
 962              		.code	16
 963              		.thumb_func
 964              		.type	set_current_date, %function
 965              	set_current_date:
 966              	.LFB76:
 217:rtc_bipboy.c  **** 
 218:rtc_bipboy.c  **** void set_current_date(void) {
 967              		.loc 1 218 0
ARM GAS  C:\Users\Kozak\AppData\Local\Temp\ccWfzO50.s 			page 22


 968              		.cfi_startproc
 969              		@ args = 0, pretend = 0, frame = 0
 970              		@ frame_needed = 0, uses_anonymous_args = 0
 971              		@ link register save eliminated.
 219:rtc_bipboy.c  ****     Date.day = 1;
 972              		.loc 1 219 0
 973 0000 034B     		ldr	r3, .L66
 974 0002 0122     		movs	r2, #1
 975 0004 1A70     		strb	r2, [r3]
 220:rtc_bipboy.c  ****     Date.month = 1;
 976              		.loc 1 220 0
 977 0006 5A70     		strb	r2, [r3, #1]
 221:rtc_bipboy.c  ****     Date.year = 2019;
 978              		.loc 1 221 0
 979 0008 024A     		ldr	r2, .L66+4
 980 000a 5A80     		strh	r2, [r3, #2]
 222:rtc_bipboy.c  **** }...
 981              		.loc 1 222 0
 982              		@ sp needed
 983 000c 7047     		bx	lr
 984              	.L67:
 985 000e C046     		.align	2
 986              	.L66:
 987 0010 00000000 		.word	Date
 988 0014 E3070000 		.word	2019
 989              		.cfi_endproc
 990              	.LFE76:
 991              		.size	set_current_date, .-set_current_date
 992              		.comm	counter,1,1
 993              		.global	dateMonthDayYear
 994              		.global	timeHrMinSec
 995              		.comm	year,2,2
 996              		.global	month
 997              		.comm	day,1,1
 998              		.comm	second,1,1
 999              		.comm	minute,1,1
 1000              		.comm	hour,1,1
 1001              		.comm	Date,4,4
 1002              		.comm	Time,3,4
 1003              		.data
 1004              		.align	2
 1005              		.set	.LANCHOR0,. + 0
 1006              		.type	dateMonthDayYear, %object
 1007              		.size	dateMonthDayYear, 4
 1008              	dateMonthDayYear:
 1009 0000 19200101 		.word	16850969
 1010              		.type	month, %object
 1011              		.size	month, 1
 1012              	month:
 1013 0004 01       		.byte	1
 1014              		.bss
 1015              		.align	2
 1016              		.set	.LANCHOR1,. + 0
 1017              		.type	timeHrMinSec, %object
 1018              		.size	timeHrMinSec, 4
 1019              	timeHrMinSec:
 1020 0000 00000000 		.space	4
ARM GAS  C:\Users\Kozak\AppData\Local\Temp\ccWfzO50.s 			page 23


 1021              		.text
 1022              	.Letext0:
 1023              		.file 2 "Generated_Source\\PSoC4/cytypes.h"
 1024              		.file 3 "rtc_bipboy.h"
 1025              		.file 4 "Generated_Source\\PSoC4/CyLib.h"
 1026              		.file 5 "Generated_Source\\PSoC4/RTC.h"
 1027              		.file 6 "lcd_bipboy.h"
 1028              		.file 7 "buttons.h"