ARM GAS  C:\Users\Roi\AppData\Local\Temp\ccvUQAdr.s 			page 1


   1              		.syntax unified
   2              		.cpu cortex-m0
   3              		.fpu softvfp
   4              		.eabi_attribute 20, 1
   5              		.eabi_attribute 21, 1
   6              		.eabi_attribute 23, 3
   7              		.eabi_attribute 24, 1
   8              		.eabi_attribute 25, 1
   9              		.eabi_attribute 26, 1
  10              		.eabi_attribute 30, 1
  11              		.eabi_attribute 34, 0
  12              		.eabi_attribute 18, 4
  13              		.thumb
  14              		.syntax unified
  15              		.file	"verify_value.c"
  16              		.text
  17              	.Ltext0:
  18              		.cfi_sections	.debug_frame
  19              		.section	.text.sensor_signalization,"ax",%progbits
  20              		.align	2
  21              		.global	sensor_signalization
  22              		.code	16
  23              		.thumb_func
  24              		.type	sensor_signalization, %function
  25              	sensor_signalization:
  26              	.LFB36:
  27              		.file 1 "verify_value.c"
   1:verify_value.c **** #include "smartboy.h"
   2:verify_value.c **** 
   3:verify_value.c **** void sensor_signalization() {
  28              		.loc 1 3 0
  29              		.cfi_startproc
  30              		@ args = 0, pretend = 0, frame = 0
  31              		@ frame_needed = 0, uses_anonymous_args = 0
  32 0000 70B5     		push	{r4, r5, r6, lr}
  33              		.cfi_def_cfa_offset 16
  34              		.cfi_offset 4, -16
  35              		.cfi_offset 5, -12
  36              		.cfi_offset 6, -8
  37              		.cfi_offset 14, -4
   4:verify_value.c ****     uint16 *adc_data_list = get_adc_list();
  38              		.loc 1 4 0
  39 0002 FFF7FEFF 		bl	get_adc_list
  40              	.LVL0:
  41 0006 0500     		movs	r5, r0
  42              	.LVL1:
  43              	.LBB2:
   5:verify_value.c ****     
   6:verify_value.c ****     for(int sensor = 0; sensor < NUMBERS_OF_SENSORS; sensor++){
  44              		.loc 1 6 0
  45 0008 0024     		movs	r4, #0
  46 000a 0EE0     		b	.L2
  47              	.LVL2:
  48              	.L4:
   7:verify_value.c ****         if(adc_data_list[sensor] > 700){
  49              		.loc 1 7 0
  50 000c 6300     		lsls	r3, r4, #1
ARM GAS  C:\Users\Roi\AppData\Local\Temp\ccvUQAdr.s 			page 2


  51 000e 5A5B     		ldrh	r2, [r3, r5]
  52 0010 AF23     		movs	r3, #175
  53 0012 9B00     		lsls	r3, r3, #2
  54 0014 9A42     		cmp	r2, r3
  55 0016 07D9     		bls	.L3
   8:verify_value.c ****             if(ble_state == BLE_DISCONNECTED) {
  56              		.loc 1 8 0
  57 0018 074B     		ldr	r3, .L5
  58 001a 1B78     		ldrb	r3, [r3]
  59 001c 012B     		cmp	r3, #1
  60 001e 03D1     		bne	.L3
   9:verify_value.c ****                 handle_scan();
  61              		.loc 1 9 0
  62 0020 FFF7FEFF 		bl	handle_scan
  63              	.LVL3:
  10:verify_value.c ****                 connect();
  64              		.loc 1 10 0
  65 0024 FFF7FEFF 		bl	connect
  66              	.LVL4:
  67              	.L3:
   6:verify_value.c ****         if(adc_data_list[sensor] > 700){
  68              		.loc 1 6 0 discriminator 2
  69 0028 0134     		adds	r4, r4, #1
  70              	.LVL5:
  71              	.L2:
   6:verify_value.c ****         if(adc_data_list[sensor] > 700){
  72              		.loc 1 6 0 is_stmt 0 discriminator 1
  73 002a 012C     		cmp	r4, #1
  74 002c EEDD     		ble	.L4
  75              	.LBE2:
  11:verify_value.c ****             }
  12:verify_value.c ****         }
  13:verify_value.c ****     }
  14:verify_value.c ****     free(adc_data_list);
  76              		.loc 1 14 0 is_stmt 1
  77 002e 2800     		movs	r0, r5
  78 0030 FFF7FEFF 		bl	free
  79              	.LVL6:
  15:verify_value.c **** }
  80              		.loc 1 15 0
  81              		@ sp needed
  82              	.LVL7:
  83              	.LVL8:
  84 0034 70BD     		pop	{r4, r5, r6, pc}
  85              	.L6:
  86 0036 C046     		.align	2
  87              	.L5:
  88 0038 00000000 		.word	ble_state
  89              		.cfi_endproc
  90              	.LFE36:
  91              		.size	sensor_signalization, .-sensor_signalization
  92              		.text
  93              	.Letext0:
  94              		.file 2 "Generated_Source\\PSoC4/cytypes.h"
  95              		.file 3 "ble_client.h"
  96              		.file 4 "adc_read.h"
  97              		.file 5 "c:\\program files (x86)\\cypress\\psoc creator\\4.2\\psoc creator\\import\\gnu\\arm\\5.4.
ARM GAS  C:\Users\Roi\AppData\Local\Temp\ccvUQAdr.s 			page 3

