ARM GAS  C:\Users\Roi\AppData\Local\Temp\ccI39Lvh.s 			page 1


   1              		.syntax unified
   2              		.cpu cortex-m0
   3              		.fpu softvfp
   4              		.eabi_attribute 20, 1
   5              		.eabi_attribute 21, 1
   6              		.eabi_attribute 23, 3
   7              		.eabi_attribute 24, 1
   8              		.eabi_attribute 25, 1
   9              		.eabi_attribute 26, 1
  10              		.eabi_attribute 30, 6
  11              		.eabi_attribute 34, 0
  12              		.eabi_attribute 18, 4
  13              		.thumb
  14              		.syntax unified
  15              		.file	"ble_update.c"
  16              		.text
  17              	.Ltext0:
  18              		.cfi_sections	.debug_frame
  19              		.section	.text.read,"ax",%progbits
  20              		.align	2
  21              		.global	read
  22              		.code	16
  23              		.thumb_func
  24              		.type	read, %function
  25              	read:
  26              	.LFB35:
  27              		.file 1 "ble_update.c"
   1:ble_update.c  **** #include "goal.h"
   2:ble_update.c  **** 
   3:ble_update.c  **** void read(void) {  
  28              		.loc 1 3 0
  29              		.cfi_startproc
  30              		@ args = 0, pretend = 0, frame = 16
  31              		@ frame_needed = 1, uses_anonymous_args = 0
  32 0000 80B5     		push	{r7, lr}
  33              		.cfi_def_cfa_offset 8
  34              		.cfi_offset 7, -8
  35              		.cfi_offset 14, -4
  36 0002 84B0     		sub	sp, sp, #16
  37              		.cfi_def_cfa_offset 24
  38 0004 00AF     		add	r7, sp, #0
  39              		.cfi_def_cfa_register 7
   4:ble_update.c  ****     CYBLE_GATTS_HANDLE_VALUE_NTF_T tempHandle;
   5:ble_update.c  ****     
   6:ble_update.c  ****     uint16 LED_Conect_State = get_data_mcu(0);
  40              		.loc 1 6 0
  41 0006 0020     		movs	r0, #0
  42 0008 FFF7FEFF 		bl	get_data_mcu
  43 000c 0300     		movs	r3, r0
  44 000e 1A00     		movs	r2, r3
  45 0010 BB1C     		adds	r3, r7, #2
  46 0012 1A80     		strh	r2, [r3]
   7:ble_update.c  ****     
   8:ble_update.c  ****     tempHandle.attrHandle = CYBLE_SWITCH_FAUCET_CHAR_HANDLE;
  47              		.loc 1 8 0
  48 0014 3B1D     		adds	r3, r7, #4
  49 0016 1222     		movs	r2, #18
ARM GAS  C:\Users\Roi\AppData\Local\Temp\ccI39Lvh.s 			page 2


  50 0018 1A81     		strh	r2, [r3, #8]
   9:ble_update.c  ****     tempHandle.value.val = (uint8 *) &LED_Conect_State;
  51              		.loc 1 9 0
  52 001a 3B1D     		adds	r3, r7, #4
  53 001c BA1C     		adds	r2, r7, #2
  54 001e 1A60     		str	r2, [r3]
  10:ble_update.c  ****     tempHandle.value.len = 1;
  55              		.loc 1 10 0
  56 0020 3B1D     		adds	r3, r7, #4
  57 0022 0122     		movs	r2, #1
  58 0024 9A80     		strh	r2, [r3, #4]
  11:ble_update.c  ****     CyBle_GattsWriteAttributeValue(&tempHandle, 0, &cyBle_connHandle,CYBLE_GATT_DB_LOCALLY_INITIATE
  59              		.loc 1 11 0
  60 0026 054A     		ldr	r2, .L2
  61 0028 381D     		adds	r0, r7, #4
  62 002a 0023     		movs	r3, #0
  63 002c 0021     		movs	r1, #0
  64 002e FFF7FEFF 		bl	CyBle_GattsWriteAttributeValue
  12:ble_update.c  **** }
  65              		.loc 1 12 0
  66 0032 C046     		nop
  67 0034 BD46     		mov	sp, r7
  68 0036 04B0     		add	sp, sp, #16
  69              		@ sp needed
  70 0038 80BD     		pop	{r7, pc}
  71              	.L3:
  72 003a C046     		.align	2
  73              	.L2:
  74 003c 00000000 		.word	cyBle_connHandle
  75              		.cfi_endproc
  76              	.LFE35:
  77              		.size	read, .-read
  78              		.section	.text.write,"ax",%progbits
  79              		.align	2
  80              		.global	write
  81              		.code	16
  82              		.thumb_func
  83              		.type	write, %function
  84              	write:
  85              	.LFB36:
  13:ble_update.c  **** 
  14:ble_update.c  **** /**************************************************************************************************
  15:ble_update.c  **** 
  16:ble_update.c  **** void write(CYBLE_GATTS_WRITE_CMD_REQ_PARAM_T *wrReqParam) {
  86              		.loc 1 16 0
  87              		.cfi_startproc
  88              		@ args = 0, pretend = 0, frame = 8
  89              		@ frame_needed = 1, uses_anonymous_args = 0
  90 0000 80B5     		push	{r7, lr}
  91              		.cfi_def_cfa_offset 8
  92              		.cfi_offset 7, -8
  93              		.cfi_offset 14, -4
  94 0002 82B0     		sub	sp, sp, #8
  95              		.cfi_def_cfa_offset 16
  96 0004 00AF     		add	r7, sp, #0
  97              		.cfi_def_cfa_register 7
  98 0006 7860     		str	r0, [r7, #4]
ARM GAS  C:\Users\Roi\AppData\Local\Temp\ccI39Lvh.s 			page 3


  17:ble_update.c  ****     if(wrReqParam->handleValPair.attrHandle == CYBLE_SWITCH_FAUCET_CHAR_HANDLE) {
  99              		.loc 1 17 0
 100 0008 7B68     		ldr	r3, [r7, #4]
 101 000a 9B89     		ldrh	r3, [r3, #12]
 102 000c 122B     		cmp	r3, #18
 103 000e 1ED1     		bne	.L6
  18:ble_update.c  ****         if(CYBLE_GATT_ERR_NONE == CyBle_GattsWriteAttributeValue(&wrReqParam->handleValPair, 0, &cy
 104              		.loc 1 18 0
 105 0010 7B68     		ldr	r3, [r7, #4]
 106 0012 181D     		adds	r0, r3, #4
 107 0014 104A     		ldr	r2, .L7
 108 0016 4023     		movs	r3, #64
 109 0018 0021     		movs	r1, #0
 110 001a FFF7FEFF 		bl	CyBle_GattsWriteAttributeValue
 111 001e 031E     		subs	r3, r0, #0
 112 0020 15D1     		bne	.L6
  19:ble_update.c  ****             set_data_mcu(0, wrReqParam->handleValPair.value.val[0]);
 113              		.loc 1 19 0
 114 0022 7B68     		ldr	r3, [r7, #4]
 115 0024 5B68     		ldr	r3, [r3, #4]
 116 0026 1B78     		ldrb	r3, [r3]
 117 0028 9BB2     		uxth	r3, r3
 118 002a 1900     		movs	r1, r3
 119 002c 0020     		movs	r0, #0
 120 002e FFF7FEFF 		bl	set_data_mcu
  20:ble_update.c  ****             CyBle_GattsWriteRsp(cyBle_connHandle);
 121              		.loc 1 20 0
 122 0032 094B     		ldr	r3, .L7
 123 0034 1A78     		ldrb	r2, [r3]
 124 0036 5B78     		ldrb	r3, [r3, #1]
 125 0038 1B02     		lsls	r3, r3, #8
 126 003a 1A43     		orrs	r2, r3
 127 003c 0023     		movs	r3, #0
 128 003e 1204     		lsls	r2, r2, #16
 129 0040 120C     		lsrs	r2, r2, #16
 130 0042 1B0C     		lsrs	r3, r3, #16
 131 0044 1B04     		lsls	r3, r3, #16
 132 0046 1343     		orrs	r3, r2
 133 0048 1800     		movs	r0, r3
 134 004a FFF7FEFF 		bl	CyBle_GattsWriteRsp
 135              	.L6:
  21:ble_update.c  ****         }
  22:ble_update.c  ****     }
  23:ble_update.c  **** }
 136              		.loc 1 23 0
 137 004e C046     		nop
 138 0050 BD46     		mov	sp, r7
 139 0052 02B0     		add	sp, sp, #8
 140              		@ sp needed
 141 0054 80BD     		pop	{r7, pc}
 142              	.L8:
 143 0056 C046     		.align	2
 144              	.L7:
 145 0058 00000000 		.word	cyBle_connHandle
 146              		.cfi_endproc
 147              	.LFE36:
 148              		.size	write, .-write
ARM GAS  C:\Users\Roi\AppData\Local\Temp\ccI39Lvh.s 			page 4


 149              		.text
 150              	.Letext0:
 151              		.file 2 "Generated_Source\\PSoC4/cytypes.h"
 152              		.file 3 "Generated_Source\\PSoC4/BLE_StackGatt.h"
 153              		.file 4 "Generated_Source\\PSoC4/BLE_StackGattServer.h"
 154              		.file 5 "Generated_Source\\PSoC4/BLE_eventHandler.h"