ARM GAS  C:\Users\ADMIN\AppData\Local\Temp\ccKpyUDv.s 			page 1


   1              		.syntax unified
   2              		.cpu cortex-m0
   3              		.fpu softvfp
   4              		.eabi_attribute 20, 1
   5              		.eabi_attribute 21, 1
   6              		.eabi_attribute 23, 3
   7              		.eabi_attribute 24, 1
   8              		.eabi_attribute 25, 1
   9              		.eabi_attribute 26, 1
  10              		.eabi_attribute 30, 6
  11              		.eabi_attribute 34, 0
  12              		.eabi_attribute 18, 4
  13              		.thumb
  14              		.syntax unified
  15              		.file	"i2c_ez_ble.c"
  16              		.text
  17              	.Ltext0:
  18              		.cfi_sections	.debug_frame
  19              		.comm	data_from_ble,1,4
  20              		.comm	data_from_mcu,2,4
  21              		.section	.text.i2c_init,"ax",%progbits
  22              		.align	2
  23              		.global	i2c_init
  24              		.code	16
  25              		.thumb_func
  26              		.type	i2c_init, %function
  27              	i2c_init:
  28              	.LFB35:
  29              		.file 1 "i2c_ez_ble.c"
   1:i2c_ez_ble.c  **** #include "ez_ble.h"
   2:i2c_ez_ble.c  **** 
   3:i2c_ez_ble.c  **** uint8 data_from_ble[1];
   4:i2c_ez_ble.c  **** uint8 data_from_mcu[2];
   5:i2c_ez_ble.c  **** 
   6:i2c_ez_ble.c  **** void i2c_init(void) {
  30              		.loc 1 6 0
  31              		.cfi_startproc
  32              		@ args = 0, pretend = 0, frame = 0
  33              		@ frame_needed = 1, uses_anonymous_args = 0
  34 0000 80B5     		push	{r7, lr}
  35              		.cfi_def_cfa_offset 8
  36              		.cfi_offset 7, -8
  37              		.cfi_offset 14, -4
  38 0002 00AF     		add	r7, sp, #0
  39              		.cfi_def_cfa_register 7
   7:i2c_ez_ble.c  ****     I2C_Start();  
  40              		.loc 1 7 0
  41 0004 FFF7FEFF 		bl	I2C_Start
   8:i2c_ez_ble.c  ****     I2C_EzI2CSetBuffer1(1, 1, data_from_ble);
  42              		.loc 1 8 0
  43 0008 074B     		ldr	r3, .L2
  44 000a 1A00     		movs	r2, r3
  45 000c 0121     		movs	r1, #1
  46 000e 0120     		movs	r0, #1
  47 0010 FFF7FEFF 		bl	I2C_EzI2CSetBuffer1
   9:i2c_ez_ble.c  ****     I2C_EzI2CSetBuffer2(2, 2, data_from_mcu);
  48              		.loc 1 9 0
ARM GAS  C:\Users\ADMIN\AppData\Local\Temp\ccKpyUDv.s 			page 2


  49 0014 054B     		ldr	r3, .L2+4
  50 0016 1A00     		movs	r2, r3
  51 0018 0221     		movs	r1, #2
  52 001a 0220     		movs	r0, #2
  53 001c FFF7FEFF 		bl	I2C_EzI2CSetBuffer2
  10:i2c_ez_ble.c  **** }
  54              		.loc 1 10 0
  55 0020 C046     		nop
  56 0022 BD46     		mov	sp, r7
  57              		@ sp needed
  58 0024 80BD     		pop	{r7, pc}
  59              	.L3:
  60 0026 C046     		.align	2
  61              	.L2:
  62 0028 00000000 		.word	data_from_ble
  63 002c 00000000 		.word	data_from_mcu
  64              		.cfi_endproc
  65              	.LFE35:
  66              		.size	i2c_init, .-i2c_init
  67              		.section	.text.set_data_from_ble,"ax",%progbits
  68              		.align	2
  69              		.global	set_data_from_ble
  70              		.code	16
  71              		.thumb_func
  72              		.type	set_data_from_ble, %function
  73              	set_data_from_ble:
  74              	.LFB36:
  11:i2c_ez_ble.c  **** 
  12:i2c_ez_ble.c  **** void set_data_from_ble(uint8 index, uint16 value) {
  75              		.loc 1 12 0
  76              		.cfi_startproc
  77              		@ args = 0, pretend = 0, frame = 8
  78              		@ frame_needed = 1, uses_anonymous_args = 0
  79 0000 80B5     		push	{r7, lr}
  80              		.cfi_def_cfa_offset 8
  81              		.cfi_offset 7, -8
  82              		.cfi_offset 14, -4
  83 0002 82B0     		sub	sp, sp, #8
  84              		.cfi_def_cfa_offset 16
  85 0004 00AF     		add	r7, sp, #0
  86              		.cfi_def_cfa_register 7
  87 0006 0200     		movs	r2, r0
  88 0008 FB1D     		adds	r3, r7, #7
  89 000a 1A70     		strb	r2, [r3]
  90 000c 3B1D     		adds	r3, r7, #4
  91 000e 0A1C     		adds	r2, r1, #0
  92 0010 1A80     		strh	r2, [r3]
  13:i2c_ez_ble.c  ****     data_from_ble[index] = value;
  93              		.loc 1 13 0
  94 0012 FB1D     		adds	r3, r7, #7
  95 0014 1B78     		ldrb	r3, [r3]
  96 0016 3A1D     		adds	r2, r7, #4
  97 0018 1288     		ldrh	r2, [r2]
  98 001a D1B2     		uxtb	r1, r2
  99 001c 024A     		ldr	r2, .L5
 100 001e D154     		strb	r1, [r2, r3]
  14:i2c_ez_ble.c  **** }
ARM GAS  C:\Users\ADMIN\AppData\Local\Temp\ccKpyUDv.s 			page 3


 101              		.loc 1 14 0
 102 0020 C046     		nop
 103 0022 BD46     		mov	sp, r7
 104 0024 02B0     		add	sp, sp, #8
 105              		@ sp needed
 106 0026 80BD     		pop	{r7, pc}
 107              	.L6:
 108              		.align	2
 109              	.L5:
 110 0028 00000000 		.word	data_from_ble
 111              		.cfi_endproc
 112              	.LFE36:
 113              		.size	set_data_from_ble, .-set_data_from_ble
 114              		.section	.text.get_data_from_mcu,"ax",%progbits
 115              		.align	2
 116              		.global	get_data_from_mcu
 117              		.code	16
 118              		.thumb_func
 119              		.type	get_data_from_mcu, %function
 120              	get_data_from_mcu:
 121              	.LFB37:
  15:i2c_ez_ble.c  **** 
  16:i2c_ez_ble.c  **** uint16 get_data_from_mcu(uint8 index) {
 122              		.loc 1 16 0
 123              		.cfi_startproc
 124              		@ args = 0, pretend = 0, frame = 8
 125              		@ frame_needed = 1, uses_anonymous_args = 0
 126 0000 80B5     		push	{r7, lr}
 127              		.cfi_def_cfa_offset 8
 128              		.cfi_offset 7, -8
 129              		.cfi_offset 14, -4
 130 0002 82B0     		sub	sp, sp, #8
 131              		.cfi_def_cfa_offset 16
 132 0004 00AF     		add	r7, sp, #0
 133              		.cfi_def_cfa_register 7
 134 0006 0200     		movs	r2, r0
 135 0008 FB1D     		adds	r3, r7, #7
 136 000a 1A70     		strb	r2, [r3]
  17:i2c_ez_ble.c  ****     return data_from_mcu[index];
 137              		.loc 1 17 0
 138 000c FB1D     		adds	r3, r7, #7
 139 000e 1B78     		ldrb	r3, [r3]
 140 0010 034A     		ldr	r2, .L9
 141 0012 D35C     		ldrb	r3, [r2, r3]
 142 0014 9BB2     		uxth	r3, r3
  18:i2c_ez_ble.c  **** }
 143              		.loc 1 18 0
 144 0016 1800     		movs	r0, r3
 145 0018 BD46     		mov	sp, r7
 146 001a 02B0     		add	sp, sp, #8
 147              		@ sp needed
 148 001c 80BD     		pop	{r7, pc}
 149              	.L10:
 150 001e C046     		.align	2
 151              	.L9:
 152 0020 00000000 		.word	data_from_mcu
 153              		.cfi_endproc
ARM GAS  C:\Users\ADMIN\AppData\Local\Temp\ccKpyUDv.s 			page 4


 154              	.LFE37:
 155              		.size	get_data_from_mcu, .-get_data_from_mcu
 156              		.text
 157              	.Letext0:
 158              		.file 2 "Generated_Source\\PSoC4/cytypes.h"
 159              		.file 3 "Generated_Source\\PSoC4/BLE_Stack.h"